 tfjs_binding

 Timestamp is 5bde18a2 (Sat Nov  3 14:52:34 2018)

 Preferred load address is 0000000180000000

 Start         Length     Name                   Class
 0001:00000000 000000d0H .text$di                CODE
 0001:000000d0 00025470H .text$mn                CODE
 0001:00025540 00000020H .text$mn$00             CODE
 0001:00025560 000003e0H .text$x                 CODE
 0001:00025940 0000013cH .text$yd                CODE
 0002:00000000 000003d8H .idata$5                DATA
 0002:000003d8 00000010H .00cfg                  DATA
 0002:000003e8 00000008H .CRT$XCA                DATA
 0002:000003f0 00000018H .CRT$XCC                DATA
 0002:00000408 00000010H .CRT$XCL                DATA
 0002:00000418 00000010H .CRT$XCU                DATA
 0002:00000428 00000008H .CRT$XCZ                DATA
 0002:00000430 00000008H .CRT$XIA                DATA
 0002:00000438 00000030H .CRT$XIC                DATA
 0002:00000468 00000008H .CRT$XIZ                DATA
 0002:00000470 00000008H .CRT$XLA                DATA
 0002:00000478 00000008H .CRT$XLZ                DATA
 0002:00000480 00000008H .CRT$XPA                DATA
 0002:00000488 00000010H .CRT$XPX                DATA
 0002:00000498 00000008H .CRT$XPXA               DATA
 0002:000004a0 00000008H .CRT$XPZ                DATA
 0002:000004a8 00000008H .CRT$XTA                DATA
 0002:000004b0 00000010H .CRT$XTZ                DATA
 0002:000004c0 0000ff20H .rdata                  DATA
 0002:000103e0 00000028H .rdata$T                DATA
 0002:00010408 00000884H .rdata$r                DATA
 0002:00010c8c 000004b4H .rdata$zzzdbg           DATA
 0002:00011140 00000008H .rtc$IAA                DATA
 0002:00011148 00000008H .rtc$IZZ                DATA
 0002:00011150 00000008H .rtc$TAA                DATA
 0002:00011158 00000008H .rtc$TZZ                DATA
 0002:00011160 00001df8H .xdata                  DATA
 0002:00012f58 00000244H .xdata$x                DATA
 0002:0001319c 00000020H .didat$2                DATA
 0002:000131bc 00000024H .didat$3                DATA
 0002:000131e0 000000e0H .didat$4                DATA
 0002:000132c0 00000280H .didat$6                DATA
 0002:00013540 000000e0H .didat$7                DATA
 0002:00013620 0000005cH .edata                  DATA
 0002:0001367c 00000028H .idata$2                DATA
 0002:000136a4 00000014H .idata$3                DATA
 0002:000136b8 000003d8H .idata$4                DATA
 0002:00013a90 00000928H .idata$6                DATA
 0003:00000000 00000a60H .data                   DATA
 0003:00000a60 000002f0H .data$r                 DATA
 0003:00000d50 000000e0H .didat$5                DATA
 0003:00000e30 0000186cH .bss                    DATA
 0004:00000000 000021d8H .pdata                  DATA
 0005:00000000 000000b4H .gfids$x                DATA
 0005:000000b4 00000128H .gfids$y                DATA
 0006:00000000 00000004H .tls                    DATA
 0006:00000004 00000004H .tls$                   DATA
 0006:00000008 00000001H .tls$ZZZ                DATA
 0007:00000000 00000060H .rsrc$01                DATA
 0007:00000060 00000180H .rsrc$02                DATA

  Address         Publics by Value              Rva+Base               Lib:Object

 0000:00000000       __guard_iat_count          0000000000000000     <absolute>
 0000:00000000       __dynamic_value_reloc_table 0000000000000000     <absolute>
 0000:00000000       __guard_iat_table          0000000000000000     <absolute>
 0000:00000000       __guard_longjmp_table      0000000000000000     <absolute>
 0000:00000000       __guard_longjmp_count      0000000000000000     <absolute>
 0000:00000000       __guard_fids_count         0000000000000000     <absolute>
 0000:00000000       ___safe_se_handler_table   0000000000000000     <absolute>
 0000:00000000       ___safe_se_handler_count   0000000000000000     <absolute>
 0000:00000000       __guard_fids_table         0000000000000000     <absolute>
 0000:00000100       __guard_flags              0000000000000100     <absolute>
 0000:00000000       __ImageBase                0000000180000000     <linker-defined>
 0001:000000d0       __local_stdio_printf_options 00000001800010d0 f i tfe_utils.obj
 0001:000000e0       ?what@exception@stdext@@UEBAPEBDXZ 00000001800010e0 f i tfe_utils.obj
 0001:00000100       ?_Raise@exception@stdext@@QEBAXXZ 0000000180001100 f i tfe_utils.obj
 0001:00000140       ?imbue@?$basic_streambuf@DU?$char_traits@D@std@@@std@@MEAAXAEBVlocale@2@@Z 0000000180001140 f i tfe_utils.obj
 0001:00000140       _guard_check_icall_nop     0000000180001140 f i LIBCMT:guard_support.obj
 0001:00000140       ?_Doraise@exception@stdext@@MEBAXXZ 0000000180001140 f i tfe_utils.obj
 0001:00000140       ?_Lock@?$basic_streambuf@DU?$char_traits@D@std@@@std@@UEAAXXZ 0000000180001140 f i tfe_utils.obj
 0001:00000140       ?_Unlock@?$basic_streambuf@DU?$char_traits@D@std@@@std@@UEAAXXZ 0000000180001140 f i tfe_utils.obj
 0001:00000140       __except_validate_context_record 0000000180001140 f i libvcruntime:jbcxrval.obj
 0001:00000140       ??$destroy@PEAU?$_Tree_node@V?$basic_string@DU?$char_traits@D@std@@V?$allocator@D@2@@std@@PEAX@std@@@?$_Wrap_alloc@V?$allocator@U?$_Tree_node@V?$basic_string@DU?$char_traits@D@std@@V?$allocator@D@2@@std@@PEAX@std@@@std@@@std@@QEAAXPEAPEAU?$_Tree_node@V?$basic_string@DU?$char_traits@D@std@@V?$allocator@D@2@@std@@PEAX@1@@Z 0000000180001140 f i tfe_utils.obj
 0001:00000150       ??_Eruntime_error@std@@UEAAPEAXI@Z 0000000180001150 f i * CIL library *:* CIL module *
 0001:00000150       ??_Gexception@stdext@@UEAAPEAXI@Z 0000000180001150 f i tfe_utils.obj
 0001:00000150       ??_Gruntime_error@std@@UEAAPEAXI@Z 0000000180001150 f i tfe_utils.obj
 0001:00000150       ??_Eexception@stdext@@UEAAPEAXI@Z 0000000180001150 f i * CIL library *:* CIL module *
 0001:00000180       sprintf_s                  0000000180001180 f i tfe_utils.obj
 0001:000001e0       ?_Doraise@failure@ios_base@std@@MEBAXXZ 00000001800011e0 f i tfe_utils.obj
 0001:000001e0       ?_Doraise@runtime_error@std@@MEBAXXZ 00000001800011e0 f i tfe_utils.obj
 0001:00000200       ??0_Locinfo@std@@QEAA@PEBD@Z 0000000180001200 f i tfe_utils.obj
 0001:000002c0       ??1_Locinfo@std@@QEAA@XZ   00000001800012c0 f i tfe_utils.obj
 0001:00000360       ??_G_Facet_base@std@@UEAAPEAXI@Z 0000000180001360 f i tfe_utils.obj
 0001:00000360       ??_E_Facet_base@std@@UEAAPEAXI@Z 0000000180001360 f i * CIL library *:* CIL module *
 0001:00000390       ?_Incref@facet@locale@std@@UEAAXXZ 0000000180001390 f i tfe_utils.obj
 0001:000003a0       ?_Decref@facet@locale@std@@UEAAPEAV_Facet_base@3@XZ 00000001800013a0 f i tfe_utils.obj
 0001:000003b0       ?_Getcat@?$ctype@D@std@@SA_KPEAPEBVfacet@locale@2@PEBV42@@Z 00000001800013b0 f i tfe_utils.obj
 0001:00000470       ?do_tolower@?$ctype@D@std@@MEBADD@Z 0000000180001470 f i tfe_utils.obj
 0001:00000480       ?do_tolower@?$ctype@D@std@@MEBAPEBDPEADPEBD@Z 0000000180001480 f i tfe_utils.obj
 0001:000004e0       ?do_toupper@?$ctype@D@std@@MEBADD@Z 00000001800014e0 f i tfe_utils.obj
 0001:000004f0       ?do_toupper@?$ctype@D@std@@MEBAPEBDPEADPEBD@Z 00000001800014f0 f i tfe_utils.obj
 0001:00000550       ?do_widen@?$ctype@D@std@@MEBADD@Z 0000000180001550 f i tfe_utils.obj
 0001:00000550       ?do_narrow@?$ctype@D@std@@MEBADDD@Z 0000000180001550 f i tfe_utils.obj
 0001:00000560       ?do_widen@?$ctype@D@std@@MEBAPEBDPEBD0PEAD@Z 0000000180001560 f i tfe_utils.obj
 0001:00000580       ?do_narrow@?$ctype@D@std@@MEBAPEBDPEBD0DPEAD@Z 0000000180001580 f i tfe_utils.obj
 0001:000005a0       ??_E?$ctype@D@std@@MEAAPEAXI@Z 00000001800015a0 f i * CIL library *:* CIL module *
 0001:000005a0       ??_G?$ctype@D@std@@MEAAPEAXI@Z 00000001800015a0 f i tfe_utils.obj
 0001:00000610       ??_Eerror_category@std@@UEAAPEAXI@Z 0000000180001610 f i * CIL library *:* CIL module *
 0001:00000610       ??_Gerror_category@std@@UEAAPEAXI@Z 0000000180001610 f i tfe_utils.obj
 0001:00000610       ??_G_Iostream_error_category@std@@UEAAPEAXI@Z 0000000180001610 f i tfe_utils.obj
 0001:00000610       ??_E_Iostream_error_category@std@@UEAAPEAXI@Z 0000000180001610 f i * CIL library *:* CIL module *
 0001:00000640       ?default_error_condition@error_category@std@@UEBA?AVerror_condition@2@H@Z 0000000180001640 f i tfe_utils.obj
 0001:00000650       ?equivalent@error_category@std@@UEBA_NHAEBVerror_condition@2@@Z 0000000180001650 f i tfe_utils.obj
 0001:00000690       ?equivalent@error_category@std@@UEBA_NAEBVerror_code@2@H@Z 0000000180001690 f i tfe_utils.obj
 0001:000006b0       ??0_System_error@std@@IEAA@Verror_code@1@AEBV?$basic_string@DU?$char_traits@D@std@@V?$allocator@D@2@@1@@Z 00000001800016b0 f i tfe_utils.obj
 0001:00000870       ??_E_System_error@std@@UEAAPEAXI@Z 0000000180001870 f i * CIL library *:* CIL module *
 0001:00000870       ??_Gfailure@ios_base@std@@UEAAPEAXI@Z 0000000180001870 f i tfe_utils.obj
 0001:00000870       ??_Efailure@ios_base@std@@UEAAPEAXI@Z 0000000180001870 f i * CIL library *:* CIL module *
 0001:00000870       ??_G_System_error@std@@UEAAPEAXI@Z 0000000180001870 f i tfe_utils.obj
 0001:000008a0       ?name@_Iostream_error_category@std@@UEBAPEBDXZ 00000001800018a0 f i tfe_utils.obj
 0001:000008b0       ?message@_Iostream_error_category@std@@UEBA?AV?$basic_string@DU?$char_traits@D@std@@V?$allocator@D@2@@2@H@Z 00000001800018b0 f i tfe_utils.obj
 0001:00000930       ??0failure@ios_base@std@@QEAA@PEBDAEBVerror_code@2@@Z 0000000180001930 f i tfe_utils.obj
 0001:00000a20       ?clear@ios_base@std@@QEAAXH_N@Z 0000000180001a20 f i tfe_utils.obj
 0001:00000bc0       ??_Gios_base@std@@UEAAPEAXI@Z 0000000180001bc0 f i tfe_utils.obj
 0001:00000bc0       ??_Eios_base@std@@UEAAPEAXI@Z 0000000180001bc0 f i * CIL library *:* CIL module *
 0001:00000c00       ??_GTF_AutoStatus@tfnodejs@@UEAAPEAXI@Z 0000000180001c00 f i tfe_utils.obj
 0001:00000c00       ??_ETF_AutoStatus@tfnodejs@@UEAAPEAXI@Z 0000000180001c00 f i * CIL library *:* CIL module *
 0001:00000c50       ?EnsureNapiOK@tfnodejs@@YA_NPEAUnapi_env__@@W4napi_status@@PEBD_K@Z 0000000180001c50 f i tfe_utils.obj
 0001:00000db0       ?EnsureTFOK@tfnodejs@@YA_NPEAUnapi_env__@@AEAVTF_AutoStatus@1@PEBD_K@Z 0000000180001db0 f i tfe_utils.obj
 0001:00000f40       ?ReportUnknownTFDataType@tfnodejs@@YAXPEAUnapi_env__@@W4TF_DataType@@PEBD_K@Z 0000000180001f40 f i tfe_utils.obj
 0001:000010d0       ?ReportUnknownTFAttrType@tfnodejs@@YAXPEAUnapi_env__@@W4TF_AttrType@@PEBD_K@Z 00000001800020d0 f i tfe_utils.obj
 0001:00001260       ?ReportUnknownTypedArrayType@tfnodejs@@YAXPEAUnapi_env__@@W4napi_typedarray_type@@PEBD_K@Z 0000000180002260 f i tfe_utils.obj
 0001:000013f0       ?ExtractArrayShape@tfnodejs@@YAXPEAUnapi_env__@@PEAUnapi_value__@@PEAV?$vector@_JV?$allocator@_J@std@@@std@@@Z 00000001800023f0 f i tfe_utils.obj
 0001:000014a0       ?GetStringParam@tfnodejs@@YA?AW4napi_status@@PEAUnapi_env__@@PEAUnapi_value__@@AEAV?$basic_string@DU?$char_traits@D@std@@V?$allocator@D@2@@std@@@Z 00000001800024a0 f i tfe_utils.obj
 0001:000015d0       ?CreateTFE_TensorHandleFromTypedArray@tfnodejs@@YAPEAUTFE_TensorHandle@@PEAUnapi_env__@@PEA_JIW4TF_DataType@@PEAUnapi_value__@@@Z 00000001800025d0 f   tfe_utils.obj
 0001:000017e0       ?CopyTFE_TensorHandleToDevice@tfnodejs@@YAPEAUTFE_TensorHandle@@PEAUnapi_env__@@PEBDPEAU2@PEAUTFE_Context@@@Z 00000001800027e0 f   tfe_utils.obj
 0001:00001870       ?CopyTFE_TensorHandleDataToTypedArray@tfnodejs@@YAXPEAUnapi_env__@@PEAUTFE_Context@@PEAUTFE_TensorHandle@@PEAPEAUnapi_value__@@@Z 0000000180002870 f   tfe_utils.obj
 0001:00001a70       ?GetTFE_TensorHandleShape@tfnodejs@@YAXPEAUnapi_env__@@PEAUTFE_TensorHandle@@PEAPEAUnapi_value__@@@Z 0000000180002a70 f   tfe_utils.obj
 0001:00001bb0       ?AssignOpAttr@tfnodejs@@YAXPEAUnapi_env__@@PEAUTFE_Op@@PEAUnapi_value__@@@Z 0000000180002bb0 f   tfe_utils.obj
 0001:00002330       ?push_back@?$vector@_JV?$allocator@_J@std@@@std@@QEAAXAEB_J@Z 0000000180003330 f i tfe_utils.obj
 0001:000024a0       ??1?$vector@_JV?$allocator@_J@std@@@std@@QEAA@XZ 00000001800034a0 f i tfe_utils.obj
 0001:00002540       ?assign@?$basic_string@DU?$char_traits@D@std@@V?$allocator@D@2@@std@@QEAAAEAV12@PEBD_K@Z 0000000180003540 f i tfe_utils.obj
 0001:00002670       ??1?$basic_string@DU?$char_traits@D@std@@V?$allocator@D@2@@std@@QEAA@XZ 0000000180003670 f i tfe_utils.obj
 0001:00002700       ??0?$basic_string@DU?$char_traits@D@std@@V?$allocator@D@2@@std@@QEAA@$$QEAV01@@Z 0000000180003700 f i tfe_utils.obj
 0001:000027a0       ??1?$basic_ostringstream@DU?$char_traits@D@std@@V?$allocator@D@2@@std@@UEAA@XZ 00000001800037a0 f i tfe_utils.obj
 0001:00002880       ??0?$basic_ostringstream@DU?$char_traits@D@std@@V?$allocator@D@2@@std@@QEAA@H@Z 0000000180003880 f i tfe_utils.obj
 0001:00002940       ?seekpos@?$basic_stringbuf@DU?$char_traits@D@std@@V?$allocator@D@2@@std@@MEAA?AV?$fpos@U_Mbstatet@@@2@V32@H@Z 0000000180003940 f i tfe_utils.obj
 0001:00002a50       ?seekoff@?$basic_stringbuf@DU?$char_traits@D@std@@V?$allocator@D@2@@std@@MEAA?AV?$fpos@U_Mbstatet@@@2@_JHH@Z 0000000180003a50 f i tfe_utils.obj
 0001:00002be0       ?underflow@?$basic_stringbuf@DU?$char_traits@D@std@@V?$allocator@D@2@@std@@MEAAHXZ 0000000180003be0 f i tfe_utils.obj
 0001:00002c40       ?pbackfail@?$basic_stringbuf@DU?$char_traits@D@std@@V?$allocator@D@2@@std@@MEAAHH@Z 0000000180003c40 f i tfe_utils.obj
 0001:00002c90       ?overflow@?$basic_stringbuf@DU?$char_traits@D@std@@V?$allocator@D@2@@std@@MEAAHH@Z 0000000180003c90 f i tfe_utils.obj
 0001:00002f00       ??6?$basic_ostream@DU?$char_traits@D@std@@@std@@QEAAAEAV01@H@Z 0000000180003f00 f i tfe_utils.obj
 0001:000030a0       ?sync@?$basic_streambuf@DU?$char_traits@D@std@@@std@@MEAAHXZ 00000001800040a0 f i tfe_utils.obj
 0001:000030a0       ?showmanyc@?$basic_streambuf@DU?$char_traits@D@std@@@std@@MEAA_JXZ 00000001800040a0 f i tfe_utils.obj
 0001:000030b0       ?setbuf@?$basic_streambuf@DU?$char_traits@D@std@@@std@@MEAAPEAV12@PEAD_J@Z 00000001800040b0 f i tfe_utils.obj
 0001:000030c0       ?seekpos@?$basic_streambuf@DU?$char_traits@D@std@@@std@@MEAA?AV?$fpos@U_Mbstatet@@@2@V32@H@Z 00000001800040c0 f i tfe_utils.obj
 0001:000030c0       ?seekoff@?$basic_streambuf@DU?$char_traits@D@std@@@std@@MEAA?AV?$fpos@U_Mbstatet@@@2@_JHH@Z 00000001800040c0 f i tfe_utils.obj
 0001:000030e0       ?xsputn@?$basic_streambuf@DU?$char_traits@D@std@@@std@@MEAA_JPEBD_J@Z 00000001800040e0 f i tfe_utils.obj
 0001:000031a0       ?xsgetn@?$basic_streambuf@DU?$char_traits@D@std@@@std@@MEAA_JPEAD_J@Z 00000001800041a0 f i tfe_utils.obj
 0001:00003260       ?uflow@?$basic_streambuf@DU?$char_traits@D@std@@@std@@MEAAHXZ 0000000180004260 f i tfe_utils.obj
 0001:000032a0       ?overflow@?$basic_streambuf@DU?$char_traits@D@std@@@std@@MEAAHH@Z 00000001800042a0 f i tfe_utils.obj
 0001:000032a0       ?underflow@?$basic_streambuf@DU?$char_traits@D@std@@@std@@MEAAHXZ 00000001800042a0 f i tfe_utils.obj
 0001:000032a0       ?pbackfail@?$basic_streambuf@DU?$char_traits@D@std@@@std@@MEAAHH@Z 00000001800042a0 f i tfe_utils.obj
 0001:000032b0       ??_E?$basic_ostringstream@DU?$char_traits@D@std@@V?$allocator@D@2@@std@@UEAAPEAXI@Z 00000001800042b0 f i * CIL library *:* CIL module *
 0001:000032b0       ??_G?$basic_ostringstream@DU?$char_traits@D@std@@V?$allocator@D@2@@std@@UEAAPEAXI@Z 00000001800042b0 f i tfe_utils.obj
 0001:00003300       ??_G?$basic_stringbuf@DU?$char_traits@D@std@@V?$allocator@D@2@@std@@UEAAPEAXI@Z 0000000180004300 f i tfe_utils.obj
 0001:00003300       ??_E?$basic_stringbuf@DU?$char_traits@D@std@@V?$allocator@D@2@@std@@UEAAPEAXI@Z 0000000180004300 f i * CIL library *:* CIL module *
 0001:00003390       ??_G?$basic_ostream@DU?$char_traits@D@std@@@std@@UEAAPEAXI@Z 0000000180004390 f i tfe_utils.obj
 0001:00003390       ??_E?$basic_ostream@DU?$char_traits@D@std@@@std@@UEAAPEAXI@Z 0000000180004390 f i * CIL library *:* CIL module *
 0001:00003400       ??_G?$basic_streambuf@DU?$char_traits@D@std@@@std@@UEAAPEAXI@Z 0000000180004400 f i tfe_utils.obj
 0001:00003400       ??_E?$basic_streambuf@DU?$char_traits@D@std@@@std@@UEAAPEAXI@Z 0000000180004400 f i * CIL library *:* CIL module *
 0001:00003480       ??_Glocale@std@@QEAAPEAXI@Z 0000000180004480 f i tfe_utils.obj
 0001:000034e0       ??_E?$basic_ios@DU?$char_traits@D@std@@@std@@UEAAPEAXI@Z 00000001800044e0 f i * CIL library *:* CIL module *
 0001:000034e0       ??_G?$basic_ios@DU?$char_traits@D@std@@@std@@UEAAPEAXI@Z 00000001800044e0 f i tfe_utils.obj
 0001:00003520       ??0sentry@?$basic_ostream@DU?$char_traits@D@std@@@std@@QEAA@AEAV12@@Z 0000000180004520 f i tfe_utils.obj
 0001:00003590       ?do_put@?$num_put@DV?$ostreambuf_iterator@DU?$char_traits@D@std@@@std@@@std@@MEBA?AV?$ostreambuf_iterator@DU?$char_traits@D@std@@@2@V32@AEAVios_base@2@DPEBX@Z 0000000180004590 f i tfe_utils.obj
 0001:00003630       ?do_put@?$num_put@DV?$ostreambuf_iterator@DU?$char_traits@D@std@@@std@@@std@@MEBA?AV?$ostreambuf_iterator@DU?$char_traits@D@std@@@2@V32@AEAVios_base@2@DO@Z 0000000180004630 f i tfe_utils.obj
 0001:000038a0       ?do_put@?$num_put@DV?$ostreambuf_iterator@DU?$char_traits@D@std@@@std@@@std@@MEBA?AV?$ostreambuf_iterator@DU?$char_traits@D@std@@@2@V32@AEAVios_base@2@DN@Z 00000001800048a0 f i tfe_utils.obj
 0001:00003b10       ?do_put@?$num_put@DV?$ostreambuf_iterator@DU?$char_traits@D@std@@@std@@@std@@MEBA?AV?$ostreambuf_iterator@DU?$char_traits@D@std@@@2@V32@AEAVios_base@2@D_K@Z 0000000180004b10 f i tfe_utils.obj
 0001:00003c10       ?do_put@?$num_put@DV?$ostreambuf_iterator@DU?$char_traits@D@std@@@std@@@std@@MEBA?AV?$ostreambuf_iterator@DU?$char_traits@D@std@@@2@V32@AEAVios_base@2@D_J@Z 0000000180004c10 f i tfe_utils.obj
 0001:00003d10       ?do_put@?$num_put@DV?$ostreambuf_iterator@DU?$char_traits@D@std@@@std@@@std@@MEBA?AV?$ostreambuf_iterator@DU?$char_traits@D@std@@@2@V32@AEAVios_base@2@DK@Z 0000000180004d10 f i tfe_utils.obj
 0001:00003e10       ?do_put@?$num_put@DV?$ostreambuf_iterator@DU?$char_traits@D@std@@@std@@@std@@MEBA?AV?$ostreambuf_iterator@DU?$char_traits@D@std@@@2@V32@AEAVios_base@2@DJ@Z 0000000180004e10 f i tfe_utils.obj
 0001:00003f10       ?do_put@?$num_put@DV?$ostreambuf_iterator@DU?$char_traits@D@std@@@std@@@std@@MEBA?AV?$ostreambuf_iterator@DU?$char_traits@D@std@@@2@V32@AEAVios_base@2@D_N@Z 0000000180004f10 f i tfe_utils.obj
 0001:00004420       ?assign@?$basic_string@DU?$char_traits@D@std@@V?$allocator@D@2@@std@@QEAAAEAV12@_KD@Z 0000000180005420 f i tfe_utils.obj
 0001:00004520       ?assign@?$basic_string@DU?$char_traits@D@std@@V?$allocator@D@2@@std@@QEAAAEAV12@AEBV12@_K1@Z 0000000180005520 f i tfe_utils.obj
 0001:00004650       ?append@?$basic_string@DU?$char_traits@D@std@@V?$allocator@D@2@@std@@QEAAAEAV12@PEBD_K@Z 0000000180005650 f i tfe_utils.obj
 0001:000047a0       ?append@?$basic_string@DU?$char_traits@D@std@@V?$allocator@D@2@@std@@QEAAAEAV12@AEBV12@_K1@Z 00000001800057a0 f i tfe_utils.obj
 0001:000048d0       ?_Assign_rv@?$basic_string@DU?$char_traits@D@std@@V?$allocator@D@2@@std@@QEAAX$$QEAV12@@Z 00000001800058d0 f i tfe_utils.obj
 0001:00004950       ?_Tidy@?$basic_stringbuf@DU?$char_traits@D@std@@V?$allocator@D@2@@std@@IEAAXXZ 0000000180005950 f i tfe_utils.obj
 0001:00004a10       ?str@?$basic_stringbuf@DU?$char_traits@D@std@@V?$allocator@D@2@@std@@QEBA?AV?$basic_string@DU?$char_traits@D@std@@V?$allocator@D@2@@2@XZ 0000000180005a10 f i tfe_utils.obj
 0001:00004ba0       ?allocate@?$allocator@D@std@@QEAAPEAD_K@Z 0000000180005ba0 f i tfe_utils.obj
 0001:00004c00       ?deallocate@?$allocator@D@std@@QEAAXPEAD_K@Z 0000000180005c00 f i tfe_utils.obj
 0001:00004c60       ?_Pnavail@?$basic_streambuf@DU?$char_traits@D@std@@@std@@IEBA_JXZ 0000000180005c60 f i tfe_utils.obj
 0001:00004c80       ?_Gnavail@?$basic_streambuf@DU?$char_traits@D@std@@@std@@IEBA_JXZ 0000000180005c80 f i tfe_utils.obj
 0001:00004ca0       ??_G?$num_put@DV?$ostreambuf_iterator@DU?$char_traits@D@std@@@std@@@std@@MEAAPEAXI@Z 0000000180005ca0 f i tfe_utils.obj
 0001:00004ca0       ??_E?$num_put@DV?$ostreambuf_iterator@DU?$char_traits@D@std@@@std@@@std@@MEAAPEAXI@Z 0000000180005ca0 f i * CIL library *:* CIL module *
 0001:00004cd0       ?do_truename@?$numpunct@D@std@@MEBA?AV?$basic_string@DU?$char_traits@D@std@@V?$allocator@D@2@@2@XZ 0000000180005cd0 f i tfe_utils.obj
 0001:00004d20       ?do_falsename@?$numpunct@D@std@@MEBA?AV?$basic_string@DU?$char_traits@D@std@@V?$allocator@D@2@@2@XZ 0000000180005d20 f i tfe_utils.obj
 0001:00004d70       ?do_grouping@?$numpunct@D@std@@MEBA?AV?$basic_string@DU?$char_traits@D@std@@V?$allocator@D@2@@2@XZ 0000000180005d70 f i tfe_utils.obj
 0001:00004dc0       ?do_thousands_sep@?$numpunct@D@std@@MEBADXZ 0000000180005dc0 f i tfe_utils.obj
 0001:00004dd0       ?do_decimal_point@?$numpunct@D@std@@MEBADXZ 0000000180005dd0 f i tfe_utils.obj
 0001:00004de0       ?erase@?$_Tree@V?$_Tset_traits@V?$basic_string@DU?$char_traits@D@std@@V?$allocator@D@2@@std@@U?$less@V?$basic_string@DU?$char_traits@D@std@@V?$allocator@D@2@@std@@@2@V?$allocator@V?$basic_string@DU?$char_traits@D@std@@V?$allocator@D@2@@std@@@2@$0A@@std@@@std@@QEAA?AV?$_Tree_const_iterator@V?$_Tree_val@U?$_Tree_simple_types@V?$basic_string@DU?$char_traits@D@std@@V?$allocator@D@2@@std@@@std@@@std@@@2@V32@0@Z 0000000180005de0 f i tfe_utils.obj
 0001:00004ec0       ?_Reallocate@?$vector@_JV?$allocator@_J@std@@@std@@IEAAX_K@Z 0000000180005ec0 f i tfe_utils.obj
 0001:00005000       ?_Iput@?$num_put@DV?$ostreambuf_iterator@DU?$char_traits@D@std@@@std@@@std@@AEBA?AV?$ostreambuf_iterator@DU?$char_traits@D@std@@@2@V32@AEAVios_base@2@DPEAD_K@Z 0000000180006000 f i tfe_utils.obj
 0001:00005750       ?_Fput@?$num_put@DV?$ostreambuf_iterator@DU?$char_traits@D@std@@@std@@@std@@AEBA?AV?$ostreambuf_iterator@DU?$char_traits@D@std@@@2@V32@AEAVios_base@2@DPEBD_K@Z 0000000180006750 f i tfe_utils.obj
 0001:00005f00       ?_Copy@?$basic_string@DU?$char_traits@D@std@@V?$allocator@D@2@@std@@QEAAX_K0@Z 0000000180006f00 f i tfe_utils.obj
 0001:00006080       ?erase@?$basic_string@DU?$char_traits@D@std@@V?$allocator@D@2@@std@@QEAAAEAV12@_K0@Z 0000000180007080 f i tfe_utils.obj
 0001:00006150       ?append@?$basic_string@DU?$char_traits@D@std@@V?$allocator@D@2@@std@@QEAAAEAV12@_KD@Z 0000000180007150 f i tfe_utils.obj
 0001:00006260       ?flush@?$basic_ostream@DU?$char_traits@D@std@@@std@@QEAAAEAV12@XZ 0000000180007260 f i tfe_utils.obj
 0001:00006350       ??0?$basic_streambuf@DU?$char_traits@D@std@@@std@@IEAA@XZ 0000000180007350 f i tfe_utils.obj
 0001:000063f0       ?init@?$basic_ios@DU?$char_traits@D@std@@@std@@IEAAXPEAV?$basic_streambuf@DU?$char_traits@D@std@@@2@_N@Z 00000001800073f0 f i tfe_utils.obj
 0001:000064d0       ??_G?$numpunct@D@std@@MEAAPEAXI@Z 00000001800074d0 f i tfe_utils.obj
 0001:000064d0       ??_E?$numpunct@D@std@@MEAAPEAXI@Z 00000001800074d0 f i * CIL library *:* CIL module *
 0001:00006530       ?clear@?$_Tree@V?$_Tset_traits@V?$basic_string@DU?$char_traits@D@std@@V?$allocator@D@2@@std@@U?$less@V?$basic_string@DU?$char_traits@D@std@@V?$allocator@D@2@@std@@@2@V?$allocator@V?$basic_string@DU?$char_traits@D@std@@V?$allocator@D@2@@std@@@2@$0A@@std@@@std@@QEAAXXZ 0000000180007530 f i tfe_utils.obj
 0001:000065c0       ?erase@?$_Tree@V?$_Tset_traits@V?$basic_string@DU?$char_traits@D@std@@V?$allocator@D@2@@std@@U?$less@V?$basic_string@DU?$char_traits@D@std@@V?$allocator@D@2@@std@@@2@V?$allocator@V?$basic_string@DU?$char_traits@D@std@@V?$allocator@D@2@@std@@@2@$0A@@std@@@std@@QEAA?AV?$_Tree_const_iterator@V?$_Tree_val@U?$_Tree_simple_types@V?$basic_string@DU?$char_traits@D@std@@V?$allocator@D@2@@std@@@std@@@std@@@2@V32@@Z 00000001800075c0 f i tfe_utils.obj
 0001:00006ad0       ?_Erase@?$_Tree@V?$_Tset_traits@V?$basic_string@DU?$char_traits@D@std@@V?$allocator@D@2@@std@@U?$less@V?$basic_string@DU?$char_traits@D@std@@V?$allocator@D@2@@std@@@2@V?$allocator@V?$basic_string@DU?$char_traits@D@std@@V?$allocator@D@2@@std@@@2@$0A@@std@@@std@@IEAAXPEAU?$_Tree_node@V?$basic_string@DU?$char_traits@D@std@@V?$allocator@D@2@@std@@PEAX@2@@Z 0000000180007ad0 f i tfe_utils.obj
 0001:00006b30       ??$use_facet@V?$ctype@D@std@@@std@@YAAEBV?$ctype@D@0@AEBVlocale@0@@Z 0000000180007b30 f i tfe_utils.obj
 0001:00006c40       ??$_Immortalize@V_Iostream_error_category@std@@@std@@YAAEAV_Iostream_error_category@0@XZ 0000000180007c40 f i tfe_utils.obj
 0001:00006cc0       ??$?6U?$char_traits@D@std@@@std@@YAAEAV?$basic_ostream@DU?$char_traits@D@std@@@0@AEAV10@PEBD@Z 0000000180007cc0 f i tfe_utils.obj
 0001:00006f10       ??$endl@DU?$char_traits@D@std@@@std@@YAAEAV?$basic_ostream@DU?$char_traits@D@std@@@0@AEAV10@@Z 0000000180007f10 f i tfe_utils.obj
 0001:00006fa0       ??$use_facet@V?$num_put@DV?$ostreambuf_iterator@DU?$char_traits@D@std@@@std@@@std@@@std@@YAAEBV?$num_put@DV?$ostreambuf_iterator@DU?$char_traits@D@std@@@std@@@0@AEBVlocale@0@@Z 0000000180007fa0 f i tfe_utils.obj
 0001:00007100       ??$use_facet@V?$numpunct@D@std@@@std@@YAAEBV?$numpunct@D@0@AEBVlocale@0@@Z 0000000180008100 f i tfe_utils.obj
 0001:00007210       ?_Getcat@?$numpunct@D@std@@SA_KPEAPEBVfacet@locale@2@PEBV42@@Z 0000000180008210 f i tfe_utils.obj
 0001:000072d0       ?put@?$basic_ostream@DU?$char_traits@D@std@@@std@@QEAAAEAV12@D@Z 00000001800082d0 f i tfe_utils.obj
 0001:00007420       ?_Init@?$numpunct@D@std@@IEAAXAEBV_Locinfo@2@_N@Z 0000000180008420 f i tfe_utils.obj
 0001:000075a0       ??$_Insert_nohint@V?$basic_string@DU?$char_traits@D@std@@V?$allocator@D@2@@std@@U_Nil@2@@?$_Tree@V?$_Tset_traits@V?$basic_string@DU?$char_traits@D@std@@V?$allocator@D@2@@std@@U?$less@V?$basic_string@DU?$char_traits@D@std@@V?$allocator@D@2@@std@@@2@V?$allocator@V?$basic_string@DU?$char_traits@D@std@@V?$allocator@D@2@@std@@@2@$0A@@std@@@std@@IEAA?AU?$pair@V?$_Tree_const_iterator@V?$_Tree_val@U?$_Tree_simple_types@V?$basic_string@DU?$char_traits@D@std@@V?$allocator@D@2@@std@@@std@@@std@@@std@@_N@1@_N$$QEAV?$basic_string@DU?$char_traits@D@std@@V?$allocator@D@2@@1@U_Nil@1@@Z 00000001800085a0 f i tfe_utils.obj
 0001:00007780       ??0?$_Wrap_alloc@V?$allocator@U?$_Tree_node@V?$basic_string@DU?$char_traits@D@std@@V?$allocator@D@2@@std@@PEAX@std@@@std@@@std@@QEAA@XZ 0000000180008780 f i tfe_utils.obj
 0001:00007790       ??$_Insert_at@V?$basic_string@DU?$char_traits@D@std@@V?$allocator@D@2@@std@@U_Nil@2@@?$_Tree@V?$_Tset_traits@V?$basic_string@DU?$char_traits@D@std@@V?$allocator@D@2@@std@@U?$less@V?$basic_string@DU?$char_traits@D@std@@V?$allocator@D@2@@std@@@2@V?$allocator@V?$basic_string@DU?$char_traits@D@std@@V?$allocator@D@2@@std@@@2@$0A@@std@@@std@@IEAA?AV?$_Tree_const_iterator@V?$_Tree_val@U?$_Tree_simple_types@V?$basic_string@DU?$char_traits@D@std@@V?$allocator@D@2@@std@@@std@@@std@@@1@_NPEAU?$_Tree_node@V?$basic_string@DU?$char_traits@D@std@@V?$allocator@D@2@@std@@PEAX@1@$$QEAV?$basic_string@DU?$char_traits@D@std@@V?$allocator@D@2@@1@U_Nil@1@@Z 0000000180008790 f i tfe_utils.obj
 0001:00007ad0       ??$construct@V?$basic_string@DU?$char_traits@D@std@@V?$allocator@D@2@@std@@V12@@?$_Wrap_alloc@V?$allocator@U?$_Tree_node@V?$basic_string@DU?$char_traits@D@std@@V?$allocator@D@2@@std@@PEAX@std@@@std@@@std@@QEAAXPEAV?$basic_string@DU?$char_traits@D@std@@V?$allocator@D@2@@1@$$QEAV21@@Z 0000000180008ad0 f i tfe_utils.obj
 0001:00007b60       ??_E?$basic_ostream@DU?$char_traits@D@std@@@std@@$4PPPPPPPM@A@EAAPEAXI@Z 0000000180008b60 f i tfe_utils.obj
 0001:00007b6c       ??_E?$basic_ostringstream@DU?$char_traits@D@std@@V?$allocator@D@2@@std@@$4PPPPPPPM@A@EAAPEAXI@Z 0000000180008b6c f i tfe_utils.obj
 0001:00007b80       ??0TFJSBackend@tfnodejs@@AEAA@PEAUnapi_env__@@@Z 0000000180008b80 f   tfjs_backend.obj
 0001:00007e20       ?InsertHandle@TFJSBackend@tfnodejs@@AEAAHPEAUTFE_TensorHandle@@@Z 0000000180008e20 f   tfjs_backend.obj
 0001:00007ec0       ?CreateTensor@TFJSBackend@tfnodejs@@QEAAPEAUnapi_value__@@PEAUnapi_env__@@PEAU3@11@Z 0000000180008ec0 f   tfjs_backend.obj
 0001:00008120       ?DeleteTensor@TFJSBackend@tfnodejs@@QEAAXPEAUnapi_env__@@PEAUnapi_value__@@@Z 0000000180009120 f   tfjs_backend.obj
 0001:00008200       ?GetTensorData@TFJSBackend@tfnodejs@@QEAAPEAUnapi_value__@@PEAUnapi_env__@@PEAU3@@Z 0000000180009200 f   tfjs_backend.obj
 0001:000082c0       ?ExecuteOp@TFJSBackend@tfnodejs@@QEAAPEAUnapi_value__@@PEAUnapi_env__@@PEAU3@111@Z 00000001800092c0 f   tfjs_backend.obj
 0001:00008840       ?erase@?$_Tree@V?$_Tmap_traits@HPEAUTFE_TensorHandle@@U?$less@H@std@@V?$allocator@U?$pair@$$CBHPEAUTFE_TensorHandle@@@std@@@3@$0A@@std@@@std@@QEAA?AV?$_Tree_iterator@V?$_Tree_val@U?$_Tree_simple_types@U?$pair@$$CBHPEAUTFE_TensorHandle@@@std@@@std@@@std@@@2@V?$_Tree_const_iterator@V?$_Tree_val@U?$_Tree_simple_types@U?$pair@$$CBHPEAUTFE_TensorHandle@@@std@@@std@@@std@@@2@@Z 0000000180009840 f i tfjs_backend.obj
 0001:00008cb0       ?_Construct_n@?$vector@PEAUTFE_TensorHandle@@V?$allocator@PEAUTFE_TensorHandle@@@std@@@std@@QEAAX_KPEBQEAUTFE_TensorHandle@@@Z 0000000180009cb0 f i tfjs_backend.obj
 0001:00008d90       ?_Rrotate@?$_Tree@V?$_Tmap_traits@HPEAUTFE_TensorHandle@@U?$less@H@std@@V?$allocator@U?$pair@$$CBHPEAUTFE_TensorHandle@@@std@@@3@$0A@@std@@@std@@IEAAXPEAU?$_Tree_node@U?$pair@$$CBHPEAUTFE_TensorHandle@@@std@@PEAX@2@@Z 0000000180009d90 f i tfjs_backend.obj
 0001:00008df0       ?_Lrotate@?$_Tree@V?$_Tmap_traits@HPEAUTFE_TensorHandle@@U?$less@H@std@@V?$allocator@U?$pair@$$CBHPEAUTFE_TensorHandle@@@std@@@3@$0A@@std@@@std@@IEAAXPEAU?$_Tree_node@U?$pair@$$CBHPEAUTFE_TensorHandle@@@std@@PEAX@2@@Z 0000000180009df0 f i tfjs_backend.obj
 0001:00008e50       ??$_Insert_nohint@AEAU?$pair@$$CBHPEAUTFE_TensorHandle@@@std@@PEAU?$_Tree_node@U?$pair@$$CBHPEAUTFE_TensorHandle@@@std@@PEAX@2@@?$_Tree@V?$_Tmap_traits@HPEAUTFE_TensorHandle@@U?$less@H@std@@V?$allocator@U?$pair@$$CBHPEAUTFE_TensorHandle@@@std@@@3@$0A@@std@@@std@@IEAA?AU?$pair@V?$_Tree_iterator@V?$_Tree_val@U?$_Tree_simple_types@U?$pair@$$CBHPEAUTFE_TensorHandle@@@std@@@std@@@std@@@std@@_N@1@_NAEAU?$pair@$$CBHPEAUTFE_TensorHandle@@@1@PEAU?$_Tree_node@U?$pair@$$CBHPEAUTFE_TensorHandle@@@std@@PEAX@1@@Z 0000000180009e50 f i tfjs_backend.obj
 0001:00008f70       ??$_Insert_at@AEAU?$pair@$$CBHPEAUTFE_TensorHandle@@@std@@PEAU?$_Tree_node@U?$pair@$$CBHPEAUTFE_TensorHandle@@@std@@PEAX@2@@?$_Tree@V?$_Tmap_traits@HPEAUTFE_TensorHandle@@U?$less@H@std@@V?$allocator@U?$pair@$$CBHPEAUTFE_TensorHandle@@@std@@@3@$0A@@std@@@std@@IEAA?AV?$_Tree_iterator@V?$_Tree_val@U?$_Tree_simple_types@U?$pair@$$CBHPEAUTFE_TensorHandle@@@std@@@std@@@std@@@1@_NPEAU?$_Tree_node@U?$pair@$$CBHPEAUTFE_TensorHandle@@@std@@PEAX@1@AEAU?$pair@$$CBHPEAUTFE_TensorHandle@@@1@1@Z 0000000180009f70 f i tfjs_backend.obj
 0001:00009210       ?EnsureValueIsNumber@tfnodejs@@YA_NPEAUnapi_env__@@PEAUnapi_value__@@PEBD_K@Z 000000018000a210 f i tfjs_binding.obj
 0001:00009270       ?EnsureValueIsArray@tfnodejs@@YA_NPEAUnapi_env__@@PEAUnapi_value__@@PEBD_K@Z 000000018000a270 f i tfjs_binding.obj
 0001:00009acc       __imp_load_napi_create_array_with_length 000000018000aacc f   node:node.exe
 0001:00009ad8       __tailMerge_node_exe       000000018000aad8 f i node:node.exe
 0001:00009b51       __imp_load_napi_get_element 000000018000ab51 f   node:node.exe
 0001:00009b5d       __imp_load_napi_get_last_error_info 000000018000ab5d f   node:node.exe
 0001:00009b69       __imp_load_napi_create_typedarray 000000018000ab69 f   node:node.exe
 0001:00009b75       __imp_load_napi_set_element 000000018000ab75 f   node:node.exe
 0001:00009b81       __imp_load_napi_get_value_string_utf8 000000018000ab81 f   node:node.exe
 0001:00009b8d       __imp_load_napi_throw_error 000000018000ab8d f   node:node.exe
 0001:00009b99       __imp_load_napi_is_array   000000018000ab99 f   node:node.exe
 0001:00009ba5       __imp_load_napi_create_int32 000000018000aba5 f   node:node.exe
 0001:00009bb1       __imp_load_napi_get_value_bool 000000018000abb1 f   node:node.exe
 0001:00009bbd       __imp_load_napi_create_int64 000000018000abbd f   node:node.exe
 0001:00009bc9       __imp_load_napi_get_named_property 000000018000abc9 f   node:node.exe
 0001:00009bd5       __imp_load_napi_get_value_int64 000000018000abd5 f   node:node.exe
 0001:00009be1       __imp_load_napi_typeof     000000018000abe1 f   node:node.exe
 0001:00009bed       __imp_load_napi_create_arraybuffer 000000018000abed f   node:node.exe
 0001:00009bf9       __imp_load_napi_get_value_int32 000000018000abf9 f   node:node.exe
 0001:00009c05       __imp_load_napi_get_typedarray_info 000000018000ac05 f   node:node.exe
 0001:00009c11       __imp_load_napi_get_value_double 000000018000ac11 f   node:node.exe
 0001:00009c1d       __imp_load_napi_get_array_length 000000018000ac1d f   node:node.exe
 0001:00009c29       __imp_load_napi_is_exception_pending 000000018000ac29 f   node:node.exe
 0001:00009c35       __imp_load_napi_set_named_property 000000018000ac35 f   node:node.exe
 0001:00009c41       __imp_load_napi_create_object 000000018000ac41 f   node:node.exe
 0001:00009c4d       __imp_load_napi_create_string_latin1 000000018000ac4d f   node:node.exe
 0001:00009c59       __imp_load_napi_module_register 000000018000ac59 f   node:node.exe
 0001:00009c65       __imp_load_napi_define_properties 000000018000ac65 f   node:node.exe
 0001:00009c71       __imp_load_napi_is_typedarray 000000018000ac71 f   node:node.exe
 0001:00009c7d       __imp_load_napi_get_cb_info 000000018000ac7d f   node:node.exe
 0001:00009c8c       ??0_Init_locks@std@@QEAA@XZ 000000018000ac8c f   libcpmt:xlock.obj
 0001:00009cd8       ??0_Lockit@std@@QEAA@H@Z   000000018000acd8 f   libcpmt:xlock.obj
 0001:00009d14       ??1_Init_locks@std@@QEAA@XZ 000000018000ad14 f   libcpmt:xlock.obj
 0001:00009d58       ??1_Lockit@std@@QEAA@XZ    000000018000ad58 f   libcpmt:xlock.obj
 0001:00009d8c       ??4?$_Yarn@D@std@@QEAAAEAV01@PEBD@Z 000000018000ad8c f i libcpmt:locale0.obj
 0001:00009e04       ??_G_Fac_node@std@@QEAAPEAXI@Z 000000018000ae04 f i libcpmt:locale0.obj
 0001:00009e90       ??_G_Locimp@locale@std@@MEAAPEAXI@Z 000000018000ae90 f i libcpmt:locale0.obj
 0001:00009e90       ??_E_Locimp@locale@std@@MEAAPEAXI@Z 000000018000ae90 f i libcpmt:locale0.obj
 0001:00009efc       ?_Facet_Register@std@@YAXPEAV_Facet_base@1@@Z 000000018000aefc f   libcpmt:locale0.obj
 0001:00009f34       ?_Getgloballocale@locale@std@@CAPEAV_Locimp@12@XZ 000000018000af34 f   libcpmt:locale0.obj
 0001:00009f3c       ?_Init@locale@std@@CAPEAV_Locimp@12@_N@Z 000000018000af3c f   libcpmt:locale0.obj
 0001:00009ff8       ?_Locimp_dtor@_Locimp@locale@std@@CAXPEAV123@@Z 000000018000aff8 f   libcpmt:locale0.obj
 0001:0000a0a0       ?_Locinfo_ctor@_Locinfo@std@@SAXPEAV12@PEBD@Z 000000018000b0a0 f   libcpmt:locale0.obj
 0001:0000a10c       ?_Locinfo_dtor@_Locinfo@std@@SAXPEAV12@@Z 000000018000b10c f   libcpmt:locale0.obj
 0001:0000a130       ?_New_Locimp@_Locimp@locale@std@@CAPEAV123@_N@Z 000000018000b130 f   libcpmt:locale0.obj
 0001:0000a1a0       ?_Setgloballocale@locale@std@@CAXPEAX@Z 000000018000b1a0 f   libcpmt:locale0.obj
 0001:0000a1d4       _Deletegloballocale        000000018000b1d4 f   libcpmt:locale0.obj
 0001:0000a25c       ??0bad_alloc@std@@QEAA@AEBV01@@Z 000000018000b25c f i libcpmt:xthrow.obj
 0001:0000a29c       ??0bad_alloc@std@@QEAA@XZ  000000018000b29c f i libcpmt:xthrow.obj
 0001:0000a2bc       ??0exception@std@@QEAA@AEBV01@@Z 000000018000b2bc f i libcpmt:xthrow.obj
 0001:0000a2f4       ??0length_error@std@@QEAA@AEBV01@@Z 000000018000b2f4 f i libcpmt:xthrow.obj
 0001:0000a334       ??0length_error@std@@QEAA@PEBD@Z 000000018000b334 f i libcpmt:xthrow.obj
 0001:0000a380       ??0logic_error@std@@QEAA@AEBV01@@Z 000000018000b380 f i libcpmt:xthrow.obj
 0001:0000a3c0       ??0out_of_range@std@@QEAA@AEBV01@@Z 000000018000b3c0 f i libcpmt:xthrow.obj
 0001:0000a400       ??0out_of_range@std@@QEAA@PEBD@Z 000000018000b400 f i libcpmt:xthrow.obj
 0001:0000a44c       ??1bad_array_new_length@std@@UEAA@XZ 000000018000b44c f i LIBCMT:throw_bad_alloc.obj
 0001:0000a44c       ??1out_of_range@std@@UEAA@XZ 000000018000b44c f i libcpmt:xthrow.obj
 0001:0000a44c       ??1bad_exception@std@@UEAA@XZ 000000018000b44c f i libvcruntime:frame.obj
 0001:0000a44c       ??1length_error@std@@UEAA@XZ 000000018000b44c f i libcpmt:xthrow.obj
 0001:0000a44c       ??1bad_alloc@std@@UEAA@XZ  000000018000b44c f i libcpmt:xthrow.obj
 0001:0000a460       ?_Xlength_error@std@@YAXPEBD@Z 000000018000b460 f   libcpmt:xthrow.obj
 0001:0000a484       ?_Xout_of_range@std@@YAXPEBD@Z 000000018000b484 f   libcpmt:xthrow.obj
 0001:0000a4a8       ?what@exception@std@@UEBAPEBDXZ 000000018000b4a8 f i libcpmt:xthrow.obj
 0001:0000a4bc       ?_Ios_base_dtor@ios_base@std@@CAXPEAV12@@Z 000000018000b4bc f   libcpmt:ios.obj
 0001:0000a500       ?_Tidy@ios_base@std@@AEAAXXZ 000000018000b500 f i libcpmt:ios.obj
 0001:0000a590       ?_Syserror_map@std@@YAPEBDH@Z 000000018000b590 f   libcpmt:syserror.obj
 0001:0000a5b8       _Getctype                  000000018000b5b8 f   libcpmt:_tolower.obj
 0001:0000a678       _Tolower                   000000018000b678 f   libcpmt:_tolower.obj
 0001:0000a7a0       _Getcvt                    000000018000b7a0 f   libcpmt:xwctomb.obj
 0001:0000a830       _Toupper                   000000018000b830 f   libcpmt:_toupper.obj
 0001:0000a968       _Mtxdst                    000000018000b968 f   libcpmt:xmtx.obj
 0001:0000a970       _Mtxinit                   000000018000b970 f   libcpmt:xmtx.obj
 0001:0000a980       _Mtxlock                   000000018000b980 f   libcpmt:xmtx.obj
 0001:0000a988       _Mtxunlock                 000000018000b988 f   libcpmt:xmtx.obj
 0001:0000a990       ?_Atexit@@YAXP6AXXZ@Z      000000018000b990 f   libcpmt:iosptrs.obj
 0001:0000a9d0       __crtLCMapStringA          000000018000b9d0 f   libcpmt:StlLCMapStringA.obj
 0001:0000b18c       __crtInitializeCriticalSectionEx 000000018000c18c f   libcpmt:winapisupp.obj
 0001:0000b1ec       GetTableIndexFromLocaleName 000000018000c1ec f   libcpmt:winapinls.obj
 0001:0000b278       __crtDownlevelLocaleNameToLCID 000000018000c278 f   libcpmt:winapinls.obj
 0001:0000b2ac       __crtLCMapStringEx         000000018000c2ac f   libcpmt:winapinls.obj
 0001:0000b368       __wcsnicmp_ascii           000000018000c368 f   libcpmt:winapinls.obj
 0001:0000b3d0       __security_check_cookie    000000018000c3d0 f   LIBCMT:_amdsecgs_.obj
 0001:0000b53c       _Init_thread_footer        000000018000c53c f   LIBCMT:thread_safe_statics.obj
 0001:0000b59c       _Init_thread_header        000000018000c59c f   LIBCMT:thread_safe_statics.obj
 0001:0000b604       _Init_thread_notify        000000018000c604 f   LIBCMT:thread_safe_statics.obj
 0001:0000b660       _Init_thread_wait          000000018000c660 f   LIBCMT:thread_safe_statics.obj
 0001:0000b6f8       ??2@YAPEAX_K@Z             000000018000c6f8 f   LIBCMT:new_scalar.obj
 0001:0000b734       __scrt_acquire_startup_lock 000000018000c734 f   LIBCMT:utility.obj
 0001:0000b770       __scrt_dllmain_after_initialize_c 000000018000c770 f   LIBCMT:utility.obj
 0001:0000b7a4       __scrt_dllmain_before_initialize_c 000000018000c7a4 f   LIBCMT:utility.obj
 0001:0000b7bc       __scrt_dllmain_crt_thread_attach 000000018000c7bc f   LIBCMT:utility.obj
 0001:0000b7e4       __scrt_dllmain_crt_thread_detach 000000018000c7e4 f   LIBCMT:utility.obj
 0001:0000b7fc       __scrt_dllmain_exception_filter 000000018000c7fc f   LIBCMT:utility.obj
 0001:0000b860       __scrt_dllmain_uninitialize_c 000000018000c860 f   LIBCMT:utility.obj
 0001:0000b890       __scrt_dllmain_uninitialize_critical 000000018000c890 f   LIBCMT:utility.obj
 0001:0000b8a4       __scrt_initialize_crt      000000018000c8a4 f   LIBCMT:utility.obj
 0001:0000b8f0       __scrt_initialize_onexit_tables 000000018000c8f0 f   LIBCMT:utility.obj
 0001:0000b9bc       __scrt_is_nonwritable_in_current_image 000000018000c9bc f   LIBCMT:utility.obj
 0001:0000ba58       __scrt_release_startup_lock 000000018000ca58 f   LIBCMT:utility.obj
 0001:0000ba7c       __scrt_uninitialize_crt    000000018000ca7c f   LIBCMT:utility.obj
 0001:0000baa8       _onexit                    000000018000caa8 f   LIBCMT:utility.obj
 0001:0000baf8       atexit                     000000018000caf8 f   LIBCMT:utility.obj
 0001:0000bb10       ??3@YAXPEAX@Z              000000018000cb10 f   LIBCMT:delete_scalar.obj
 0001:0000bb18       ??3@YAXPEAX_K@Z            000000018000cb18 f   LIBCMT:delete_scalar_size.obj
 0001:0000bb18       ??_V@YAXPEAX@Z             000000018000cb18 f   LIBCMT:delete_array.obj
 0001:0000bb20       ??_U@YAPEAX_K@Z            000000018000cb20 f   LIBCMT:new_array.obj
 0001:0000be74       _DllMainCRTStartup         000000018000ce74 f   LIBCMT:dll_dllmain.obj
 0001:0000beb4       _guard_check_icall         000000018000ceb4 f i LIBCMT:checkcfg.obj
 0001:0000bebc       ??_Gtype_info@@UEAAPEAXI@Z 000000018000cebc f i LIBCMT:std_type_info_static.obj
 0001:0000bebc       ??_Etype_info@@UEAAPEAXI@Z 000000018000cebc f i LIBCMT:std_type_info_static.obj
 0001:0000bee8       __GSHandlerCheck           000000018000cee8 f   LIBCMT:_gshandler_.obj
 0001:0000bf08       __GSHandlerCheckCommon     000000018000cf08 f   LIBCMT:_gshandler_.obj
 0001:0000bf80       _alloca_probe              000000018000cf80 f   LIBCMT:_chkstk_.obj
 0001:0000bf80       __chkstk                   000000018000cf80 f   LIBCMT:_chkstk_.obj
 0001:0000bfd4       __raise_securityfailure    000000018000cfd4 f   LIBCMT:gs_report.obj
 0001:0000c008       __report_gsfailure         000000018000d008 f   LIBCMT:gs_report.obj
 0001:0000c0dc       __report_rangecheckfailure 000000018000d0dc f   LIBCMT:gs_report.obj
 0001:0000c0f0       __report_securityfailure   000000018000d0f0 f   LIBCMT:gs_report.obj
 0001:0000c270       __crt_debugger_hook        000000018000d270 f   LIBCMT:utility_desktop.obj
 0001:0000c278       __scrt_fastfail            000000018000d278 f   LIBCMT:utility_desktop.obj
 0001:0000c3c0       ??0bad_array_new_length@std@@QEAA@AEBV01@@Z 000000018000d3c0 f i LIBCMT:throw_bad_alloc.obj
 0001:0000c400       ??0bad_array_new_length@std@@QEAA@XZ 000000018000d400 f i LIBCMT:throw_bad_alloc.obj
 0001:0000c420       ?__scrt_throw_std_bad_alloc@@YAXXZ 000000018000d420 f   LIBCMT:throw_bad_alloc.obj
 0001:0000c420       ?_Xbad_alloc@std@@YAXXZ    000000018000d420 f   libcpmt:xthrow.obj
 0001:0000c440       ?__scrt_throw_std_bad_array_new_length@@YAXXZ 000000018000d440 f   LIBCMT:throw_bad_alloc.obj
 0001:0000c460       __isa_available_init       000000018000d460 f   LIBCMT:_cpu_disp_.obj
 0001:0000c628       _get_startup_argv_mode     000000018000d628 f   LIBCMT:argv_mode.obj
 0001:0000c628       DllMain                    000000018000d628 f   LIBCMT:dll_dllmain_stub.obj
 0001:0000c630       __scrt_is_ucrt_dll_in_use  000000018000d630 f   LIBCMT:ucrt_detection.obj
 0001:0000c63c       __security_init_cookie     000000018000d63c f   LIBCMT:gs_support.obj
 0001:0000c6e8       ?__scrt_initialize_type_info@@YAXXZ 000000018000d6e8 f   LIBCMT:tncleanup.obj
 0001:0000c6f8       ?__scrt_uninitialize_type_info@@YAXXZ 000000018000d6f8 f   LIBCMT:tncleanup.obj
 0001:0000c704       __local_stdio_scanf_options 000000018000d704 f i LIBCMT:default_local_stdio_options.obj
 0001:0000c70c       __scrt_initialize_default_local_stdio_options 000000018000d70c f   LIBCMT:default_local_stdio_options.obj
 0001:0000c728       __scrt_get_dyn_tls_init_callback 000000018000d728 f   LIBCMT:dyn_tls_init.obj
 0001:0000c730       _RTC_Initialize            000000018000d730 f   LIBCMT:_initsect_.obj
 0001:0000c77c       _RTC_Terminate             000000018000d77c f   LIBCMT:_initsect_.obj
 0001:0000c7e0       memcpy                     000000018000d7e0 f   libvcruntime:memcpy.obj
 0001:0000c7e0       memmove                    000000018000d7e0 f   libvcruntime:memcpy.obj
 0001:0000cc18       _purecall                  000000018000dc18 f   libvcruntime:purevirt.obj
 0001:0000cc54       __DestructExceptionObject  000000018000dc54 f   libvcruntime:frame.obj
 0001:0000ccdc       ??0bad_exception@std@@QEAA@AEBV01@@Z 000000018000dcdc f i libvcruntime:frame.obj
 0001:0000cd1c       ??0bad_exception@std@@QEAA@XZ 000000018000dd1c f i libvcruntime:frame.obj
 0001:0000cd3c       ??_Gbad_alloc@std@@UEAAPEAXI@Z 000000018000dd3c f i libcpmt:xthrow.obj
 0001:0000cd3c       ??_Elength_error@std@@UEAAPEAXI@Z 000000018000dd3c f i libcpmt:xthrow.obj
 0001:0000cd3c       ??_Ebad_alloc@std@@UEAAPEAXI@Z 000000018000dd3c f i libcpmt:xthrow.obj
 0001:0000cd3c       ??_Gout_of_range@std@@UEAAPEAXI@Z 000000018000dd3c f i libcpmt:xthrow.obj
 0001:0000cd3c       ??_Eout_of_range@std@@UEAAPEAXI@Z 000000018000dd3c f i libcpmt:xthrow.obj
 0001:0000cd3c       ??_Gbad_array_new_length@std@@UEAAPEAXI@Z 000000018000dd3c f i LIBCMT:throw_bad_alloc.obj
 0001:0000cd3c       ??_Ebad_array_new_length@std@@UEAAPEAXI@Z 000000018000dd3c f i LIBCMT:throw_bad_alloc.obj
 0001:0000cd3c       ??_Elogic_error@std@@UEAAPEAXI@Z 000000018000dd3c f i libcpmt:xthrow.obj
 0001:0000cd3c       ??_Ebad_exception@std@@UEAAPEAXI@Z 000000018000dd3c f i libvcruntime:frame.obj
 0001:0000cd3c       ??_Glogic_error@std@@UEAAPEAXI@Z 000000018000dd3c f i libcpmt:xthrow.obj
 0001:0000cd3c       ??_Eexception@std@@UEAAPEAXI@Z 000000018000dd3c f i libcpmt:xthrow.obj
 0001:0000cd3c       ??_Glength_error@std@@UEAAPEAXI@Z 000000018000dd3c f i libcpmt:xthrow.obj
 0001:0000cd3c       ??_Gexception@std@@UEAAPEAXI@Z 000000018000dd3c f i libcpmt:xthrow.obj
 0001:0000cd3c       ??_Gbad_exception@std@@UEAAPEAXI@Z 000000018000dd3c f i libvcruntime:frame.obj
 0001:0000d6dc       ?_CallMemberFunction0@@YAXPEAXP6AX0@Z@Z 000000018000e6dc f i libvcruntime:frame.obj
 0001:0000d6e0       ?_CallMemberFunction1@@YAXPEAXP6AX0@Z0@Z 000000018000e6e0 f i libvcruntime:frame.obj
 0001:0000d6ec       ?_CallMemberFunction2@@YAXPEAXP6AX0@Z0H@Z 000000018000e6ec f i libvcruntime:frame.obj
 0001:0000d6fc       __AdjustPointer            000000018000e6fc f   libvcruntime:frame.obj
 0001:0000d720       __BuildCatchObject         000000018000e720 f   libvcruntime:frame.obj
 0001:0000d7e4       __BuildCatchObjectHelper   000000018000e7e4 f   libvcruntime:frame.obj
 0001:0000d9c4       __CxxCallCatchBlock        000000018000e9c4 f   libvcruntime:frame.obj
 0001:0000dbb0       __FrameUnwindFilter        000000018000ebb0 f   libvcruntime:frame.obj
 0001:0000dbfc       __FrameUnwindToState       000000018000ebfc f   libvcruntime:frame.obj
 0001:0000dd90       __InternalCxxFrameHandler  000000018000ed90 f   libvcruntime:frame.obj
 0001:0000dfe8       __TypeMatch                000000018000efe8 f   libvcruntime:frame.obj
 0001:0000e128       __std_terminate            000000018000f128 f   libvcruntime:frame.obj
 0001:0000e134       ?_ExecutionInCatch@@YAHPEAU_xDISPATCHER_CONTEXT@@PEBU_s_FuncInfo@@@Z 000000018000f134 f   libvcruntime:trnsctrl.obj
 0001:0000e1a8       ?_GetEstablisherFrame@@YAPEA_KPEA_KPEAU_xDISPATCHER_CONTEXT@@PEBU_s_FuncInfo@@0@Z 000000018000f1a8 f   libvcruntime:trnsctrl.obj
 0001:0000e274       ?_GetRangeOfTrysToCheck@@YAPEBU_s_TryBlockMapEntry@@PEA_KPEBU_s_FuncInfo@@HHPEAI2PEAU_xDISPATCHER_CONTEXT@@@Z 000000018000f274 f   libvcruntime:trnsctrl.obj
 0001:0000e3a0       ?__FrameUnwindToEmptyState@@YAXPEA_KPEAU_xDISPATCHER_CONTEXT@@PEBU_s_FuncInfo@@@Z 000000018000f3a0 f   libvcruntime:trnsctrl.obj
 0001:0000e434       ?__SehTransFilter@@YAHPEAU_EXCEPTION_POINTERS@@PEAUEHExceptionRecord@@PEA_KPEAU_CONTEXT@@PEAU_xDISPATCHER_CONTEXT@@PEBU_s_FuncInfo@@PEAH@Z 000000018000f434 f   libvcruntime:trnsctrl.obj
 0001:0000e4cc       _CallSETranslator          000000018000f4cc f   libvcruntime:trnsctrl.obj
 0001:0000e524       _CreateFrameInfo           000000018000f524 f   libvcruntime:trnsctrl.obj
 0001:0000e560       _FindAndUnlinkFrame        000000018000f560 f   libvcruntime:trnsctrl.obj
 0001:0000e5b8       _GetImageBase              000000018000f5b8 f   libvcruntime:trnsctrl.obj
 0001:0000e5cc       _GetThrowImageBase         000000018000f5cc f   libvcruntime:trnsctrl.obj
 0001:0000e5e0       _IsExceptionObjectToBeDestroyed 000000018000f5e0 f   libvcruntime:trnsctrl.obj
 0001:0000e610       _SetImageBase              000000018000f610 f   libvcruntime:trnsctrl.obj
 0001:0000e628       _SetThrowImageBase         000000018000f628 f   libvcruntime:trnsctrl.obj
 0001:0000e640       _UnwindNestedFrames        000000018000f640 f   libvcruntime:trnsctrl.obj
 0001:0000e764       __CxxFrameHandler3         000000018000f764 f   libvcruntime:trnsctrl.obj
 0001:0000e7e4       __std_exception_copy       000000018000f7e4 f   libvcruntime:std_exception.obj
 0001:0000e874       __std_exception_destroy    000000018000f874 f   libvcruntime:std_exception.obj
 0001:0000e89c       _CxxThrowException         000000018000f89c f   libvcruntime:throw.obj
 0001:0000e990       memset                     000000018000f990 f   libvcruntime:memset.obj
 0001:0000eb40       memcmp                     000000018000fb40 f   libvcruntime:memcmp.obj
 0001:0000edd0       __vcrt_FlsAlloc            000000018000fdd0 f   libvcruntime:winapi_downlevel.obj
 0001:0000ee24       __vcrt_FlsFree             000000018000fe24 f   libvcruntime:winapi_downlevel.obj
 0001:0000ee78       __vcrt_FlsGetValue         000000018000fe78 f   libvcruntime:winapi_downlevel.obj
 0001:0000eecc       __vcrt_FlsSetValue         000000018000fecc f   libvcruntime:winapi_downlevel.obj
 0001:0000ef34       __vcrt_InitializeCriticalSectionEx 000000018000ff34 f   libvcruntime:winapi_downlevel.obj
 0001:0000efac       __vcrt_initialize_winapi_thunks 000000018000ffac f   libvcruntime:winapi_downlevel.obj
 0001:0000eff8       __vcrt_uninitialize_winapi_thunks 000000018000fff8 f   libvcruntime:winapi_downlevel.obj
 0001:0000f038       __vcrt_initialize          0000000180010038 f   libvcruntime:initialization.obj
 0001:0000f06c       __vcrt_thread_attach       000000018001006c f   libvcruntime:initialization.obj
 0001:0000f080       __vcrt_thread_detach       0000000180010080 f   libvcruntime:initialization.obj
 0001:0000f094       __vcrt_uninitialize        0000000180010094 f   libvcruntime:initialization.obj
 0001:0000f0b4       __vcrt_uninitialize_critical 00000001800100b4 f   libvcruntime:initialization.obj
 0001:0000f0c4       __C_specific_handler       00000001800100c4 f   libvcruntime:_chandler_.obj
 0001:0000f2c0       __std_type_info_compare    00000001800102c0 f   libvcruntime:std_type_info.obj
 0001:0000f2e8       __std_type_info_destroy_list 00000001800102e8 f   libvcruntime:std_type_info.obj
 0001:0000f314       __vcrt_initialize_pure_virtual_call_handler 0000000180010314 f   libvcruntime:purevirt_data.obj
 0001:0000f338       __vcrt_freefls             0000000180010338 f   libvcruntime:per_thread_data.obj
 0001:0000f358       __vcrt_freeptd             0000000180010358 f   libvcruntime:per_thread_data.obj
 0001:0000f3a8       __vcrt_getptd              00000001800103a8 f   libvcruntime:per_thread_data.obj
 0001:0000f3c4       __vcrt_getptd_noexit       00000001800103c4 f   libvcruntime:per_thread_data.obj
 0001:0000f47c       __vcrt_initialize_ptd      000000018001047c f   libvcruntime:per_thread_data.obj
 0001:0000f4bc       __vcrt_uninitialize_ptd    00000001800104bc f   libvcruntime:per_thread_data.obj
 0001:0000f4e0       ?__GetCurrentState@@YAHPEA_KPEAU_xDISPATCHER_CONTEXT@@PEBU_s_FuncInfo@@@Z 00000001800104e0 f   libvcruntime:ehstate.obj
 0001:0000f508       ?__GetUnwindTryBlock@@YAHPEA_KPEAU_xDISPATCHER_CONTEXT@@PEBU_s_FuncInfo@@@Z 0000000180010508 f   libvcruntime:ehstate.obj
 0001:0000f534       ?__SetState@@YAXPEA_KPEAU_xDISPATCHER_CONTEXT@@PEBU_s_FuncInfo@@H@Z 0000000180010534 f   libvcruntime:ehstate.obj
 0001:0000f540       ?__SetUnwindTryBlock@@YAXPEA_KPEAU_xDISPATCHER_CONTEXT@@PEBU_s_FuncInfo@@H@Z 0000000180010540 f   libvcruntime:ehstate.obj
 0001:0000f57c       ?__StateFromControlPc@@YAHPEBU_s_FuncInfo@@PEAU_xDISPATCHER_CONTEXT@@@Z 000000018001057c f   libvcruntime:ehstate.obj
 0001:0000f584       ?__StateFromIp@@YAHPEBU_s_FuncInfo@@PEAU_xDISPATCHER_CONTEXT@@_J@Z 0000000180010584 f   libvcruntime:ehstate.obj
 0001:0000f600       _CallSettingFrame          0000000180010600 f   libvcruntime:handlers.obj
 0001:0000f650       _local_unwind              0000000180010650 f   libvcruntime:_jmpuwind_.obj
 0001:0000f680       _NLG_Notify                0000000180010680 f   libvcruntime:_jmpuwind_.obj
 0001:0000f6a0       __NLG_Dispatch2            00000001800106a0 f   libvcruntime:_jmpuwind_.obj
 0001:0000f6b0       __NLG_Return2              00000001800106b0 f   libvcruntime:_jmpuwind_.obj
 0001:0000f6b4       __vcrt_initialize_locks    00000001800106b4 f   libvcruntime:locks.obj
 0001:0000f6fc       __vcrt_uninitialize_locks  00000001800106fc f   libvcruntime:locks.obj
 0001:0000f734       abort                      0000000180010734 f   libucrt:abort.obj
 0001:0000f78c       calloc                     000000018001078c f   libucrt:calloc.obj
 0001:0000f794       __acrt_initialize_stdio    0000000180010794 f   libucrt:_file.obj
 0001:0000f8b4       __acrt_uninitialize_stdio  00000001800108b4 f   libucrt:_file.obj
 0001:0000f910       _lock_file                 0000000180010910 f   libucrt:_file.obj
 0001:0000f91c       _unlock_file               000000018001091c f   libucrt:_file.obj
 0001:0000f928       __acrt_call_reportfault    0000000180010928 f   libucrt:invalid_parameter.obj
 0001:0000fa84       __acrt_initialize_invalid_parameter_handler 0000000180010a84 f   libucrt:invalid_parameter.obj
 0001:0000fa8c       _invalid_parameter         0000000180010a8c f   libucrt:invalid_parameter.obj
 0001:0000fb34       _invalid_parameter_noinfo  0000000180010b34 f   libucrt:invalid_parameter.obj
 0001:0000fb54       _invalid_parameter_noinfo_noreturn 0000000180010b54 f   libucrt:invalid_parameter.obj
 0001:0000fb84       _invoke_watson             0000000180010b84 f   libucrt:invalid_parameter.obj
 0001:0000fbcc       strcspn                    0000000180010bcc f   libucrt:strcspn.obj
 0001:0000fe14       ??$ensure_buffer_is_big_enough@D@formatting_buffer@__crt_stdio_output@@QEAA_N_K@Z 0000000180010e14 f i libucrt:output.obj
 0001:0000fec0       ??$is_wide_character_specifier@D@__crt_stdio_output@@YA_N_KDW4length_modifier@0@@Z 0000000180010ec0 f i libucrt:output.obj
 0001:0000fef0       ??$type_case_integer_parse_into_buffer@I@?$output_processor@DV?$string_output_adapter@D@__crt_stdio_output@@V?$format_validation_base@DV?$string_output_adapter@D@__crt_stdio_output@@@2@@__crt_stdio_output@@AEAAXII_N@Z 0000000180010ef0 f i libucrt:output.obj
 0001:0000ff8c       ??$type_case_integer_parse_into_buffer@_K@?$output_processor@DV?$string_output_adapter@D@__crt_stdio_output@@V?$format_validation_base@DV?$string_output_adapter@D@__crt_stdio_output@@@2@@__crt_stdio_output@@AEAAX_KI_N@Z 0000000180010f8c f i libucrt:output.obj
 0001:00010028       ??$write_multiple_characters@V?$string_output_adapter@D@__crt_stdio_output@@D@__crt_stdio_output@@YAXAEBV?$string_output_adapter@D@0@DHQEAH@Z 0000000180011028 f i libucrt:output.obj
 0001:00010084       ??0?$output_processor@DV?$string_output_adapter@D@__crt_stdio_output@@V?$format_validation_base@DV?$string_output_adapter@D@__crt_stdio_output@@@2@@__crt_stdio_output@@QEAA@AEBV?$string_output_adapter@D@1@_KQEBDQEAU__crt_locale_pointers@@QEAD@Z 0000000180011084 f i libucrt:output.obj
 0001:00010100       ??0_LocaleUpdate@@QEAA@QEAU__crt_locale_pointers@@@Z 0000000180011100 f i libucrt:output.obj
 0001:00010190       ?force_decimal_point@__crt_stdio_output@@YAXPEADQEAU__crt_locale_pointers@@@Z 0000000180011190 f i libucrt:output.obj
 0001:00010200       ?parse_int_from_format_string@?$output_processor@DV?$string_output_adapter@D@__crt_stdio_output@@V?$format_validation_base@DV?$string_output_adapter@D@__crt_stdio_output@@@2@@__crt_stdio_output@@AEAA_NQEAH@Z 0000000180011200 f i libucrt:output.obj
 0001:00010284       ?process@?$output_processor@DV?$string_output_adapter@D@__crt_stdio_output@@V?$format_validation_base@DV?$string_output_adapter@D@__crt_stdio_output@@@2@@__crt_stdio_output@@QEAAHXZ 0000000180011284 f i libucrt:output.obj
 0001:00010498       ?state_case_normal@?$output_processor@DV?$string_output_adapter@D@__crt_stdio_output@@V?$format_validation_base@DV?$string_output_adapter@D@__crt_stdio_output@@@2@@__crt_stdio_output@@AEAA_NXZ 0000000180011498 f i libucrt:output.obj
 0001:0001050c       ?state_case_normal_tchar@?$output_processor@DV?$string_output_adapter@D@__crt_stdio_output@@V?$format_validation_base@DV?$string_output_adapter@D@__crt_stdio_output@@@2@@__crt_stdio_output@@AEAA_ND@Z 000000018001150c f i libucrt:output.obj
 0001:000105a4       ?state_case_size@?$output_processor@DV?$string_output_adapter@D@__crt_stdio_output@@V?$format_validation_base@DV?$string_output_adapter@D@__crt_stdio_output@@@2@@__crt_stdio_output@@AEAA_NXZ 00000001800115a4 f i libucrt:output.obj
 0001:00010720       ?state_case_type@?$output_processor@DV?$string_output_adapter@D@__crt_stdio_output@@V?$format_validation_base@DV?$string_output_adapter@D@__crt_stdio_output@@@2@@__crt_stdio_output@@AEAA_NXZ 0000000180011720 f i libucrt:output.obj
 0001:0001099c       ?type_case_Z@?$output_processor@DV?$string_output_adapter@D@__crt_stdio_output@@V?$format_validation_base@DV?$string_output_adapter@D@__crt_stdio_output@@@2@@__crt_stdio_output@@AEAA_NXZ 000000018001199c f i libucrt:output.obj
 0001:00010a1c       ?type_case_a@?$output_processor@DV?$string_output_adapter@D@__crt_stdio_output@@V?$format_validation_base@DV?$string_output_adapter@D@__crt_stdio_output@@@2@@__crt_stdio_output@@AEAA_NXZ 0000000180011a1c f i libucrt:output.obj
 0001:00010c38       ?type_case_c_tchar@?$output_processor@DV?$string_output_adapter@D@__crt_stdio_output@@V?$format_validation_base@DV?$string_output_adapter@D@__crt_stdio_output@@@2@@__crt_stdio_output@@AEAA_ND@Z 0000000180011c38 f i libucrt:output.obj
 0001:00010cec       ?type_case_integer@?$output_processor@DV?$string_output_adapter@D@__crt_stdio_output@@V?$format_validation_base@DV?$string_output_adapter@D@__crt_stdio_output@@@2@@__crt_stdio_output@@AEAA_NI_N@Z 0000000180011cec f i libucrt:output.obj
 0001:00010e8c       ?type_case_n@?$output_processor@DV?$string_output_adapter@D@__crt_stdio_output@@V?$format_validation_base@DV?$string_output_adapter@D@__crt_stdio_output@@@2@@__crt_stdio_output@@AEAA_NXZ 0000000180011e8c f i libucrt:output.obj
 0001:00010f68       ?type_case_s@?$output_processor@DV?$string_output_adapter@D@__crt_stdio_output@@V?$format_validation_base@DV?$string_output_adapter@D@__crt_stdio_output@@@2@@__crt_stdio_output@@AEAA_NXZ 0000000180011f68 f i libucrt:output.obj
 0001:00010ff8       ?write_stored_string_tchar@?$output_processor@DV?$string_output_adapter@D@__crt_stdio_output@@V?$format_validation_base@DV?$string_output_adapter@D@__crt_stdio_output@@@2@@__crt_stdio_output@@AEAA_ND@Z 0000000180011ff8 f i libucrt:output.obj
 0001:000110d0       ?write_string@?$string_output_adapter@D@__crt_stdio_output@@QEBAXQEBDHQEAH1@Z 00000001800120d0 f i libucrt:output.obj
 0001:0001118c       __stdio_common_vsprintf_s  000000018001218c f   libucrt:output.obj
 0001:000111f0       localeconv                 00000001800121f0 f   libucrt:localeconv.obj
 0001:00011224       free                       0000000180012224 f   libucrt:free.obj
 0001:0001122c       frexp                      000000018001222c f   libucrt:frexp.obj
 0001:00011324       malloc                     0000000180012324 f   libucrt:malloc.obj
 0001:0001132c       __ascii_stricmp            000000018001232c f   libucrt:stricmp.obj
 0001:00011368       _stricmp                   0000000180012368 f   libucrt:stricmp.obj
 0001:000113b0       _stricmp_l                 00000001800123b0 f   libucrt:stricmp.obj
 0001:00011464       __acrt_initialize_locks    0000000180012464 f   libucrt:locks.obj
 0001:000114ac       __acrt_lock                00000001800124ac f   libucrt:locks.obj
 0001:000114c8       __acrt_uninitialize_locks  00000001800124c8 f   libucrt:locks.obj
 0001:00011500       __acrt_unlock              0000000180012500 f   libucrt:locks.obj
 0001:0001151c       _lock_locales              000000018001251c f   libucrt:locks.obj
 0001:0001152c       _unlock_locales            000000018001252c f   libucrt:locks.obj
 0001:00011624       setlocale                  0000000180012624 f   libucrt:setlocale.obj
 0001:000117f0       _calloc_base               00000001800127f0 f   libucrt:calloc_base.obj
 0001:00011868       __pctype_func              0000000180012868 f   libucrt:ctype.obj
 0001:00011898       isdigit                    0000000180012898 f i libucrt:_ctype.obj
 0001:0001190c       islower                    000000018001290c f i libucrt:_ctype.obj
 0001:00011980       isupper                    0000000180012980 f i libucrt:_ctype.obj
 0001:000119f4       _wcsdup                    00000001800129f4 f   libucrt:wcsdup.obj
 0001:00011a78       ___lc_codepage_func        0000000180012a78 f   libucrt:initctype.obj
 0001:00011aa8       ___lc_locale_name_func     0000000180012aa8 f   libucrt:initctype.obj
 0001:00011adc       ___mb_cur_max_func         0000000180012adc f   libucrt:initctype.obj
 0001:00011b0c       __acrt_locale_initialize_ctype 0000000180012b0c f   libucrt:initctype.obj
 0001:000120e0       __acrt_errno_from_os_error 00000001800130e0 f   libucrt:errno.obj
 0001:00012128       __acrt_errno_map_os_error  0000000180013128 f   libucrt:errno.obj
 0001:00012178       __doserrno                 0000000180013178 f   libucrt:errno.obj
 0001:00012198       _errno                     0000000180013198 f   libucrt:errno.obj
 0001:00012230       _ismbblead                 0000000180013230 f   libucrt:ismbbyte.obj
 0001:00012244       _malloc_base               0000000180013244 f   libucrt:malloc_base.obj
 0001:000122a4       _realloc_base              00000001800132a4 f   libucrt:realloc_base.obj
 0001:00012330       ?divide@__crt_strtox@@YA_KAEAUbig_integer@1@AEBU21@@Z 0000000180013330 f i libucrt:strtod.obj
 0001:00012800       pow                        0000000180013800 f   libucrt:pow.obj
 0001:00013ea0       powf                       0000000180014ea0 f   libucrt:powf.obj
 0001:00014d68       __strncnt                  0000000180015d68 f   libucrt:strncnt.obj
 0001:00014d80       _free_base                 0000000180015d80 f   libucrt:free_base.obj
 0001:00014e10       _tolower_l                 0000000180015e10 f   libucrt:tolower_toupper.obj
 0001:00014f50       tolower                    0000000180015f50 f   libucrt:tolower_toupper.obj
 0001:00014f7c       wcscpy_s                   0000000180015f7c f   libucrt:wcscpy_s.obj
 0001:00014fe4       strnlen                    0000000180015fe4 f   libucrt:strnlen.obj
 0001:00015140       wcsnlen                    0000000180016140 f   libucrt:strnlen.obj
 0001:00015330       __acrt_initialize_new_handler 0000000180016330 f   libucrt:new_handler.obj
 0001:00015338       _callnewh                  0000000180016338 f   libucrt:new_handler.obj
 0001:00015378       _query_new_handler         0000000180016378 f   libucrt:new_handler.obj
 0001:000153ac       _seh_filter_dll            00000001800163ac f   libucrt:exception_filter.obj
 0001:000153c0       _seh_filter_exe            00000001800163c0 f   libucrt:exception_filter.obj
 0001:00015780       __acrt_initialize_thread_local_exit_callback 0000000180016780 f   libucrt:exit.obj
 0001:00015788       _cexit                     0000000180016788 f   libucrt:exit.obj
 0001:00015798       _exit                      0000000180016798 f   libucrt:exit.obj
 0001:000157a4       _is_c_termination_complete 00000001800167a4 f   libucrt:exit.obj
 0001:00015968       __acrt_allocate_buffer_for_argv 0000000180016968 f   libucrt:argv_parsing.obj
 0001:000159cc       _configure_narrow_argv     00000001800169cc f   libucrt:argv_parsing.obj
 0001:00015d28       __dcrt_uninitialize_environments_nolock 0000000180016d28 f   libucrt:environment_initialization.obj
 0001:00015d60       _initialize_narrow_environment 0000000180016d60 f   libucrt:environment_initialization.obj
 0001:00015d68       ??$?RV<lambda_b8c45f8f788dd370798f47cfe8ac3a86>@@AEAV<lambda_4e60a939b0d047cfe11ddc22648dfba9>@@V<lambda_332c3edc96d0294ec56c57d38c1cdfd5>@@@?$__crt_seh_guarded_call@H@@QEAAH$$QEAV<lambda_b8c45f8f788dd370798f47cfe8ac3a86>@@AEAV<lambda_4e60a939b0d047cfe11ddc22648dfba9>@@$$QEAV<lambda_332c3edc96d0294ec56c57d38c1cdfd5>@@@Z 0000000180016d68 f i libucrt:onexit.obj
 0001:00015da4       ??$?RV<lambda_e24bbb7b643b32fcea6fa61b31d4c984>@@AEAV<lambda_275893d493268fdec8709772e3fcec0e>@@V<lambda_9d71df4d7cf3f480f8d633942495c3b0>@@@?$__crt_seh_guarded_call@H@@QEAAH$$QEAV<lambda_e24bbb7b643b32fcea6fa61b31d4c984>@@AEAV<lambda_275893d493268fdec8709772e3fcec0e>@@$$QEAV<lambda_9d71df4d7cf3f480f8d633942495c3b0>@@@Z 0000000180016da4 f i libucrt:onexit.obj
 0001:00016120       _crt_atexit                0000000180017120 f   libucrt:onexit.obj
 0001:00016130       _execute_onexit_table      0000000180017130 f   libucrt:onexit.obj
 0001:0001616c       _initialize_onexit_table   000000018001716c f   libucrt:onexit.obj
 0001:000161ac       _register_onexit_function  00000001800171ac f   libucrt:onexit.obj
 0001:00016328       __acrt_uninitialize_command_line 0000000180017328 f   libucrt:argv_data.obj
 0001:0001632c       __acrt_initialize          000000018001732c f   libucrt:initialization.obj
 0001:00016340       __acrt_thread_attach       0000000180017340 f   libucrt:initialization.obj
 0001:00016354       __acrt_thread_detach       0000000180017354 f   libucrt:initialization.obj
 0001:00016364       __acrt_uninitialize        0000000180017364 f   libucrt:initialization.obj
 0001:00016378       __acrt_uninitialize_critical 0000000180017378 f   libucrt:initialization.obj
 0001:00016388       _initterm                  0000000180017388 f   libucrt:initterm.obj
 0001:00016400       _initterm_e                0000000180017400 f   libucrt:initterm.obj
 0001:0001644c       terminate                  000000018001744c f   libucrt:terminate.obj
 0001:00016474       strcpy_s                   0000000180017474 f   libucrt:strcpy_s.obj
 0001:000164d4       ??$is_overflow_condition@K@__crt_strtox@@YA_NIK@Z 00000001800174d4 f i libucrt:atox.obj
 0001:00016500       ??$make_c_string_character_source@_W$$T@__crt_strtox@@YA?AV?$c_string_character_source@_W@0@QEB_W$$T@Z 0000000180017500 f i libucrt:atox.obj
 0001:00016500       ??$make_c_string_character_source@DPEAPEAD@__crt_strtox@@YA?AV?$c_string_character_source@D@0@QEBDQEAPEAD@Z 0000000180017500 f i libucrt:strtod.obj
 0001:00016514       ??$parse_integer@KV?$c_string_character_source@D@__crt_strtox@@@__crt_strtox@@YAKQEAU__crt_locale_pointers@@V?$c_string_character_source@D@0@H_N@Z 0000000180017514 f i libucrt:atox.obj
 0001:00016828       ??$parse_integer@KV?$c_string_character_source@_W@__crt_strtox@@@__crt_strtox@@YAKQEAU__crt_locale_pointers@@V?$c_string_character_source@_W@0@H_N@Z 0000000180017828 f i libucrt:atox.obj
 0001:00016efc       _wtol                      0000000180017efc f   libucrt:atox.obj
 0001:00016f28       ??$?RV<lambda_c36588078e9f5dfd39652860aa6b3aaf>@@AEAV<lambda_ec61778202f4f5fc7e7711acc23c3bca>@@V<lambda_dc9d2797ccde5d239b4a0efae8ebd7db>@@@?$__crt_seh_guarded_call@P6AXH@Z@@QEAAP6AXH@Z$$QEAV<lambda_c36588078e9f5dfd39652860aa6b3aaf>@@AEAV<lambda_ec61778202f4f5fc7e7711acc23c3bca>@@$$QEAV<lambda_dc9d2797ccde5d239b4a0efae8ebd7db>@@@Z 0000000180017f28 f i libucrt:signal.obj
 0001:00016f70       __acrt_get_sigabrt_handler 0000000180017f70 f   libucrt:signal.obj
 0001:00016fa0       __acrt_initialize_signal_handlers 0000000180017fa0 f   libucrt:signal.obj
 0001:00016fc0       raise                      0000000180017fc0 f   libucrt:signal.obj
 0001:000172a0       ??$?RV<lambda_630b2aca97f6d20d5b5ea6529ea6b6af>@@AEAV<lambda_af91936f1d075d609f72d9d8cba980af>@@V<lambda_e82fa975f615b5c7c7b0e4d178fdae67>@@@?$__crt_seh_guarded_call@H@@QEAAH$$QEAV<lambda_630b2aca97f6d20d5b5ea6529ea6b6af>@@AEAV<lambda_af91936f1d075d609f72d9d8cba980af>@@$$QEAV<lambda_e82fa975f615b5c7c7b0e4d178fdae67>@@@Z 00000001800182a0 f i libucrt:winapi_thunks.obj
 0001:000174d8       __acrt_EnumSystemLocalesEx 00000001800184d8 f   libucrt:winapi_thunks.obj
 0001:00017580       __acrt_FlsAlloc            0000000180018580 f   libucrt:winapi_thunks.obj
 0001:000175d8       __acrt_FlsFree             00000001800185d8 f   libucrt:winapi_thunks.obj
 0001:00017630       __acrt_FlsGetValue         0000000180018630 f   libucrt:winapi_thunks.obj
 0001:00017688       __acrt_FlsSetValue         0000000180018688 f   libucrt:winapi_thunks.obj
 0001:000176f0       __acrt_GetLocaleInfoEx     00000001800186f0 f   libucrt:winapi_thunks.obj
 0001:00017788       __acrt_GetUserDefaultLocaleName 0000000180018788 f   libucrt:winapi_thunks.obj
 0001:000177fc       __acrt_InitializeCriticalSectionEx 00000001800187fc f   libucrt:winapi_thunks.obj
 0001:00017874       __acrt_IsValidLocaleName   0000000180018874 f   libucrt:winapi_thunks.obj
 0001:000178dc       __acrt_LCIDToLocaleName    00000001800188dc f   libucrt:winapi_thunks.obj
 0001:00017968       __acrt_LCMapStringEx       0000000180018968 f   libucrt:winapi_thunks.obj
 0001:00017a58       __acrt_LocaleNameToLCID    0000000180018a58 f   libucrt:winapi_thunks.obj
 0001:00017ac0       __acrt_can_use_vista_locale_apis 0000000180018ac0 f   libucrt:winapi_thunks.obj
 0001:00017af0       __acrt_initialize_winapi_thunks 0000000180018af0 f   libucrt:winapi_thunks.obj
 0001:00017b28       __acrt_is_packaged_app     0000000180018b28 f   libucrt:winapi_thunks.obj
 0001:00017bb0       __acrt_uninitialize_winapi_thunks 0000000180018bb0 f   libucrt:winapi_thunks.obj
 0001:00017bf4       _fcloseall                 0000000180018bf4 f   libucrt:closeall.obj
 0001:00017ca8       __acrt_stdio_flush_nolock  0000000180018ca8 f   libucrt:fflush.obj
 0001:00017d20       _fflush_nolock             0000000180018d20 f   libucrt:fflush.obj
 0001:00017d6c       _flushall                  0000000180018d6c f   libucrt:fflush.obj
 0001:00017e5c       __acrt_stdio_free_buffer_nolock 0000000180018e5c f   libucrt:_freebuf.obj
 0001:00018084       __acrt_initialize_lowio    0000000180019084 f   libucrt:ioinit.obj
 0001:000180c0       __acrt_uninitialize_lowio  00000001800190c0 f   libucrt:ioinit.obj
 0001:00018100       ??$?RV<lambda_46352004c1216016012b18bd6f87e700>@@AEAV<lambda_3bd07e1a1191394380780325891bf33f>@@V<lambda_334532d3f185bcaa59b5be82d7d22bff>@@@?$__crt_seh_guarded_call@X@@QEAAX$$QEAV<lambda_46352004c1216016012b18bd6f87e700>@@AEAV<lambda_3bd07e1a1191394380780325891bf33f>@@$$QEAV<lambda_334532d3f185bcaa59b5be82d7d22bff>@@@Z 0000000180019100 f i libucrt:per_thread_data.obj
 0001:00018160       ??$?RV<lambda_5e887d1dcbef67a5eb4283622ba103bf>@@AEAV<lambda_4466841279450cc726390878d4a41900>@@V<lambda_341c25c0346d94847f1f3c463c57e077>@@@?$__crt_seh_guarded_call@X@@QEAAX$$QEAV<lambda_5e887d1dcbef67a5eb4283622ba103bf>@@AEAV<lambda_4466841279450cc726390878d4a41900>@@$$QEAV<lambda_341c25c0346d94847f1f3c463c57e077>@@@Z 0000000180019160 f i libucrt:per_thread_data.obj
 0001:000181a8       ??$?RV<lambda_72d1df2b273a38828b1ce30cbf4cdab5>@@AEAV<lambda_876a65b173b8412d3a47c70a915b0cf4>@@V<lambda_41932305e351933ebe8f8be3ed8bb5dc>@@@?$__crt_seh_guarded_call@X@@QEAAX$$QEAV<lambda_72d1df2b273a38828b1ce30cbf4cdab5>@@AEAV<lambda_876a65b173b8412d3a47c70a915b0cf4>@@$$QEAV<lambda_41932305e351933ebe8f8be3ed8bb5dc>@@@Z 00000001800191a8 f i libucrt:per_thread_data.obj
 0001:000181e8       ??$?RV<lambda_fb3a7dec4e47f37f22dae91bb15c9095>@@AEAV<lambda_698284760c8add0bfb0756c19673e34b>@@V<lambda_dfb8eca1e75fef3034a8fb18dd509707>@@@?$__crt_seh_guarded_call@X@@QEAAX$$QEAV<lambda_fb3a7dec4e47f37f22dae91bb15c9095>@@AEAV<lambda_698284760c8add0bfb0756c19673e34b>@@$$QEAV<lambda_dfb8eca1e75fef3034a8fb18dd509707>@@@Z 00000001800191e8 f i libucrt:per_thread_data.obj
 0001:00018478       __acrt_freeptd             0000000180019478 f   libucrt:per_thread_data.obj
 0001:000184bc       __acrt_getptd              00000001800194bc f   libucrt:per_thread_data.obj
 0001:00018550       __acrt_getptd_noexit       0000000180019550 f   libucrt:per_thread_data.obj
 0001:000185f0       __acrt_initialize_ptd      00000001800195f0 f   libucrt:per_thread_data.obj
 0001:0001862c       __acrt_uninitialize_ptd    000000018001962c f   libucrt:per_thread_data.obj
 0001:00018650       strtol                     0000000180019650 f   libucrt:strtox.obj
 0001:00018680       _mbtowc_l                  0000000180019680 f   libucrt:mbtowc.obj
 0001:000187c8       mbtowc                     00000001800197c8 f   libucrt:mbtowc.obj
 0001:000187d0       _wctomb_s_l                00000001800197d0 f   libucrt:wctomb.obj
 0001:00018954       wctomb_s                   0000000180019954 f   libucrt:wctomb.obj
 0001:00018968       __acrt_update_locale_info  0000000180019968 f   libucrt:locale_update.obj
 0001:0001899c       __acrt_update_multibyte_info 000000018001999c f   libucrt:locale_update.obj
 0001:000189d0       ?__acrt_fp_classify@@YA?AW4__acrt_fp_class@@AEBN@Z 00000001800199d0 f i libucrt:cvt.obj
 0001:00019408       __acrt_fp_format           000000018001a408 f   libucrt:cvt.obj
 0001:0001964c       _fileno                    000000018001a64c f   libucrt:fileno.obj
 0001:00019674       _get_printf_count_output   000000018001a674 f   libucrt:printf_count_output.obj
 0001:0001968c       ??$?RV<lambda_5df02c53a8f32f81fd64e5bbb78039f1>@@AEAV<lambda_2af78c5f5901b1372d98f9ab3177dfa6>@@AEAV<lambda_f51fe5fd7c79a33db34fc9310f277369>@@@?$__crt_seh_guarded_call@X@@QEAAX$$QEAV<lambda_5df02c53a8f32f81fd64e5bbb78039f1>@@AEAV<lambda_2af78c5f5901b1372d98f9ab3177dfa6>@@AEAV<lambda_f51fe5fd7c79a33db34fc9310f277369>@@@Z 000000018001a68c f i libucrt:wsetlocale.obj
 0001:000196b8       ??$?RV<lambda_d67e8342c384adda8f857579ab50b2ae>@@AEAV<lambda_30712929f77e709619002f448b6a9510>@@V<lambda_4525336fd7e478d965fb7ca7a337cad8>@@@?$__crt_seh_guarded_call@X@@QEAAX$$QEAV<lambda_d67e8342c384adda8f857579ab50b2ae>@@AEAV<lambda_30712929f77e709619002f448b6a9510>@@$$QEAV<lambda_4525336fd7e478d965fb7ca7a337cad8>@@@Z 000000018001a6b8 f i libucrt:wsetlocale.obj
 0001:00019884       __acrt_copy_locale_name    000000018001a884 f   libucrt:wsetlocale.obj
 0001:00019908       __acrt_set_locale_changed  000000018001a908 f   libucrt:wsetlocale.obj
 0001:00019914       __acrt_uninitialize_locale 000000018001a914 f   libucrt:wsetlocale.obj
 0001:0001995c       __lc_lctowcs               000000018001a95c f   libucrt:wsetlocale.obj
 0001:00019a00       __lc_wcstolc               000000018001aa00 f   libucrt:wsetlocale.obj
 0001:00019c78       _expandlocale              000000018001ac78 f   libucrt:wsetlocale.obj
 0001:0001a074       _wcscats                   000000018001b074 f   libucrt:wsetlocale.obj
 0001:0001a0dc       _wsetlocale                000000018001b0dc f   libucrt:wsetlocale.obj
 0001:0001a928       _dsign                     000000018001b928 f   libucrt:nan.obj
 0001:0001a940       _errcode                   000000018001b940 f   libucrt:fpexcept.obj
 0001:0001a984       _except1                   000000018001b984 f   libucrt:fpexcept.obj
 0001:0001aa78       _handle_exc                000000018001ba78 f   libucrt:fpexcept.obj
 0001:0001ace0       _raise_exc                 000000018001bce0 f   libucrt:fpexcept.obj
 0001:0001ad08       _raise_exc_ex              000000018001bd08 f   libucrt:fpexcept.obj
 0001:0001b010       _raise_excf                000000018001c010 f   libucrt:fpexcept.obj
 0001:0001b03c       _set_errno_from_matherr    000000018001c03c f   libucrt:fpexcept.obj
 0001:0001b06c       _umatherr                  000000018001c06c f   libucrt:fpexcept.obj
 0001:0001b140       _decomp                    000000018001c140 f   libucrt:util.obj
 0001:0001b274       _sptype                    000000018001c274 f   libucrt:util.obj
 0001:0001b2e8       _clrfp                     000000018001c2e8 f   libucrt:fpctrl.obj
 0001:0001b308       _ctrlfp                    000000018001c308 f   libucrt:fpctrl.obj
 0001:0001b384       _set_statfp                000000018001c384 f   libucrt:fpctrl.obj
 0001:0001b3a4       _statfp                    000000018001c3a4 f   libucrt:fpctrl.obj
 0001:0001b594       _mbstowcs_s_l              000000018001c594 f   libucrt:mbstowcs.obj
 0001:0001b6c4       mbstowcs_s                 000000018001c6c4 f   libucrt:mbstowcs.obj
 0001:0001ba18       _wcstombs_s_l              000000018001ca18 f   libucrt:wcstombs.obj
 0001:0001bb04       _query_new_mode            000000018001cb04 f   libucrt:new_mode.obj
 0001:0001bb0c       __acrt_initialize_heap     000000018001cb0c f   libucrt:heap_handle.obj
 0001:0001bb28       __acrt_uninitialize_heap   000000018001cb28 f   libucrt:heap_handle.obj
 0001:0001bb34       _isctype_l                 000000018001cb34 f   libucrt:isctype.obj
 0001:0001bde4       __acrt_GetLocaleInfoA      000000018001cde4 f   libucrt:getlocaleinfoa.obj
 0001:0001bfac       __acrt_GetStringTypeA      000000018001cfac f   libucrt:getstringtypea.obj
 0001:0001c4bc       __acrt_LCMapStringA        000000018001d4bc f   libucrt:lcmapstringa.obj
 0001:0001c554       iswctype                   000000018001d554 f   libucrt:iswctype.obj
 0001:0001c5d0       __acrt_initialize_fma3     000000018001d5d0 f   libucrt:fma3_available.obj
 0001:0001c640       _pow_special               000000018001d640 f   libucrt:pow_special.obj
 0001:0001c764       _powf_special              000000018001d764 f   libucrt:pow_special.obj
 0001:0001c8f0       _wcsicmp                   000000018001d8f0 f   libucrt:wcsicmp.obj
 0001:0001c978       _wcsicmp_l                 000000018001d978 f   libucrt:wcsicmp.obj
 0001:0001ca68       __acrt_initialize_timeset  000000018001da68 f   libucrt:timeset.obj
 0001:0001ca98       _isleadbyte_l              000000018001da98 f i libucrt:_wctype.obj
 0001:0001cfb4       ?expand_if_necessary@?$argument_list@D@?A0xca0879c4@@AEAAHXZ 000000018001dfb4 f i libucrt:argv_wildcards.obj
 0001:0001d07c       __acrt_expand_narrow_argv_wildcards 000000018001e07c f   libucrt:argv_wildcards.obj
 0001:0001d084       ??$?RV<lambda_99476a1ad63dd22509b5d3e65b0ffc95>@@AEAV<lambda_ad1ced32f4ac17aa236e5ef05d6b3b7c>@@V<lambda_f7424dd8d45958661754dc4f2697e9c3>@@@?$__crt_seh_guarded_call@X@@QEAAX$$QEAV<lambda_99476a1ad63dd22509b5d3e65b0ffc95>@@AEAV<lambda_ad1ced32f4ac17aa236e5ef05d6b3b7c>@@$$QEAV<lambda_f7424dd8d45958661754dc4f2697e9c3>@@@Z 000000018001e084 f i libucrt:mbctype.obj
 0001:0001d780       __acrt_initialize_multibyte 000000018001e780 f   libucrt:mbctype.obj
 0001:0001d7a8       __acrt_update_thread_multibyte_data 000000018001e7a8 f   libucrt:mbctype.obj
 0001:0001d868       _setmbcp_nolock            000000018001e868 f   libucrt:mbctype.obj
 0001:0001db10       __acrt_initialize_command_line 000000018001eb10 f   libucrt:argv_data.obj
 0001:0001db38       __dcrt_get_narrow_environment_from_os 000000018001eb38 f   libucrt:get_environment_from_os.obj
 0001:0001dc3c       _recalloc                  000000018001ec3c f   libucrt:recalloc.obj
 0001:0001dc44       _recalloc_base             000000018001ec44 f   libucrt:recalloc.obj
 0001:0001dcdc       __acrt_execute_initializers 000000018001ecdc f   libucrt:shared_initialization.obj
 0001:0001dd70       __acrt_execute_uninitializers 000000018001ed70 f   libucrt:shared_initialization.obj
 0001:0001ddc0       __acrt_has_user_matherr    000000018001edc0 f   libucrt:matherr.obj
 0001:0001dde0       __acrt_initialize_user_matherr 000000018001ede0 f   libucrt:matherr.obj
 0001:0001dde8       __acrt_invoke_user_matherr 000000018001ede8 f   libucrt:matherr.obj
 0001:0001def8       __acrt_DownlevelLCIDToLocaleName 000000018001eef8 f   libucrt:lcidtoname_downlevel.obj
 0001:0001dfdc       __acrt_DownlevelLocaleNameToLCID 000000018001efdc f   libucrt:lcidtoname_downlevel.obj
 0001:0001e010       _fclose_nolock             000000018001f010 f   libucrt:fclose.obj
 0001:0001e094       fclose                     000000018001f094 f   libucrt:fclose.obj
 0001:0001e100       ??$?RV<lambda_b521505b218e5242e90febf6bfebc422>@@AEAV<lambda_6978c1fb23f02e42e1d9e99668cc68aa>@@V<lambda_314360699dd331753a4119843814e9a7>@@@?$__crt_seh_guarded_call@H@@QEAAH$$QEAV<lambda_b521505b218e5242e90febf6bfebc422>@@AEAV<lambda_6978c1fb23f02e42e1d9e99668cc68aa>@@$$QEAV<lambda_314360699dd331753a4119843814e9a7>@@@Z 000000018001f100 f i libucrt:commit.obj
 0001:0001e18c       _commit                    000000018001f18c f   libucrt:commit.obj
 0001:0001e7c0       _write                     000000018001f7c0 f   libucrt:write.obj
 0001:0001e8ac       _write_nolock              000000018001f8ac f   libucrt:write.obj
 0001:0001eb90       __acrt_lowio_create_handle_array 000000018001fb90 f   libucrt:osfinfo.obj
 0001:0001ec28       __acrt_lowio_destroy_handle_array 000000018001fc28 f   libucrt:osfinfo.obj
 0001:0001ec78       __acrt_lowio_ensure_fh_exists 000000018001fc78 f   libucrt:osfinfo.obj
 0001:0001ed30       __acrt_lowio_lock_fh       000000018001fd30 f   libucrt:osfinfo.obj
 0001:0001ed54       __acrt_lowio_unlock_fh     000000018001fd54 f   libucrt:osfinfo.obj
 0001:0001ed78       _free_osfhnd               000000018001fd78 f   libucrt:osfinfo.obj
 0001:0001ee34       _get_osfhandle             000000018001fe34 f   libucrt:osfinfo.obj
 0001:0001eeac       __acrt_add_locale_ref      000000018001feac f   libucrt:locale_refcounting.obj
 0001:0001ef38       __acrt_free_locale         000000018001ff38 f   libucrt:locale_refcounting.obj
 0001:0001f0b0       __acrt_locale_add_lc_time_reference 00000001800200b0 f   libucrt:locale_refcounting.obj
 0001:0001f0d8       __acrt_locale_free_lc_time_if_unreferenced 00000001800200d8 f   libucrt:locale_refcounting.obj
 0001:0001f110       __acrt_locale_release_lc_time_reference 0000000180020110 f   libucrt:locale_refcounting.obj
 0001:0001f138       __acrt_release_locale_ref  0000000180020138 f   libucrt:locale_refcounting.obj
 0001:0001f1e0       __acrt_update_thread_locale_data 00000001800201e0 f   libucrt:locale_refcounting.obj
 0001:0001f250       _updatetlocinfoEx_nolock   0000000180020250 f   libucrt:locale_refcounting.obj
 0001:0001f2b8       __acrt_fp_strflt_to_string 00000001800202b8 f   libucrt:_fptostr.obj
 0001:0001f378       __acrt_fltout              0000000180020378 f   libucrt:cfout.obj
 0001:0002076c       _isatty                    000000018002176c f   libucrt:isatty.obj
 0001:000207cc       __acrt_locale_free_monetary 00000001800217cc f   libucrt:initmon.obj
 0001:000208d8       __acrt_locale_initialize_monetary 00000001800218d8 f   libucrt:initmon.obj
 0001:00020e10       __acrt_locale_free_numeric 0000000180021e10 f   libucrt:initnum.obj
 0001:00020e7c       __acrt_locale_initialize_numeric 0000000180021e7c f   libucrt:initnum.obj
 0001:00021500       __acrt_locale_free_time    0000000180022500 f   libucrt:inittime.obj
 0001:00021608       __acrt_locale_initialize_time 0000000180022608 f   libucrt:inittime.obj
 0001:0002169c       wcscat_s                   000000018002269c f   libucrt:wcscat_s.obj
 0001:0002171c       wcsncpy_s                  000000018002271c f   libucrt:wcsncpy_s.obj
 0001:00021800       wcscspn                    0000000180022800 f   libucrt:wcscspn.obj
 0001:00021840       wcsncmp                    0000000180022840 f   libucrt:wcsncmp.obj
 0001:0002186c       wcspbrk                    000000018002286c f   libucrt:wcspbrk.obj
 0001:00022110       __acrt_get_qualified_locale 0000000180023110 f   libucrt:get_qualified_locale.obj
 0001:00022afc       __acrt_get_qualified_locale_downlevel 0000000180023afc f   libucrt:getqloc_downlevel.obj
 0001:00022da0       _get_fpsr                  0000000180023da0 f   libucrt:fpsr.obj
 0001:00022db0       _set_fpsr                  0000000180023db0 f   libucrt:fpsr.obj
 0001:00022dba       _fclrf                     0000000180023dba f   libucrt:fpsr.obj
 0001:00022dce       _frnd                      0000000180023dce f   libucrt:fpsr.obj
 0001:00022df0       strncpy_s                  0000000180023df0 f   libucrt:strncpy_s.obj
 0001:00022ec4       _getfpcontrolword          0000000180023ec4 f   libucrt:_fenvutils.obj
 0001:00022edc       _getfpstatusword           0000000180023edc f   libucrt:_fenvutils.obj
 0001:00022ef0       _setfpcontrolword          0000000180023ef0 f   libucrt:_fenvutils.obj
 0001:00022efc       _setfpstatusword           0000000180023efc f   libucrt:_fenvutils.obj
 0001:00023070       _handle_error              0000000180024070 f   libucrt:libm_error.obj
 0001:00023198       _handle_errorf             0000000180024198 f   libucrt:libm_error.obj
 0001:000232cc       _handle_nan                00000001800242cc f   libucrt:libm_error.obj
 0001:000232e8       _handle_nanf               00000001800242e8 f   libucrt:libm_error.obj
 0001:000232f8       _towlower_l                00000001800242f8 f   libucrt:towlower.obj
 0001:00023490       qsort                      0000000180024490 f   libucrt:qsort.obj
 0001:000237c4       strpbrk                    00000001800247c4 f   libucrt:strpbrk.obj
 0001:00023864       _mbsdec                    0000000180024864 f   libucrt:mbsdec.obj
 0001:0002386c       _mbsdec_l                  000000018002486c f   libucrt:mbsdec.obj
 0001:0002391c       _msize                     000000018002491c f   libucrt:msize.obj
 0001:00023958       ??$?RV<lambda_bfedae4ebbf01fab1bb6dcc6a9e276e0>@@AEAV<lambda_2fe9b910cf3cbf4a0ab98a02ba45b3ec>@@V<lambda_237c231691f317818eb88cc1d5d642d6>@@@?$__crt_seh_guarded_call@H@@QEAAH$$QEAV<lambda_bfedae4ebbf01fab1bb6dcc6a9e276e0>@@AEAV<lambda_2fe9b910cf3cbf4a0ab98a02ba45b3ec>@@$$QEAV<lambda_237c231691f317818eb88cc1d5d642d6>@@@Z 0000000180024958 f i libucrt:close.obj
 0001:000239cc       _close                     00000001800249cc f   libucrt:close.obj
 0001:00023a70       _close_nolock              0000000180024a70 f   libucrt:close.obj
 0001:00023b2c       ?__acrt_stdio_free_stream@@YAXV__crt_stdio_stream@@@Z 0000000180024b2c f   libucrt:stream.obj
 0001:00023c0c       _lseeki64_nolock           0000000180024c0c f   libucrt:lseek.obj
 0001:00023c14       _putwch_nolock             0000000180024c14 f   libucrt:putwch.obj
 0001:00023c70       _query_app_type            0000000180024c70 f   libucrt:report_runtime_error.obj
 0001:00023c78       fegetenv                   0000000180024c78 f   libucrt:fegetenv.obj
 0001:00023c98       fesetenv                   0000000180024c98 f   libucrt:fesetenv.obj
 0001:00023ce4       feholdexcept               0000000180024ce4 f   libucrt:feholdexcept.obj
 0001:00023d34       ceil                       0000000180024d34 f   libucrt:ceil.obj
 0001:00023e00       log10                      0000000180024e00 f   libucrt:log10.obj
 0001:000244d4       _itow_s                    00000001800254d4 f   libucrt:xtoa.obj
 0001:000244f4       _wcsnicmp                  00000001800254f4 f   libucrt:wcsnicmp.obj
 0001:00024590       _wcsnicmp_l                0000000180025590 f   libucrt:wcsnicmp.obj
 0001:000246a8       wcscmp                     00000001800256a8 f   libucrt:wcscmp.obj
 0001:000246e0       _clearfp                   00000001800256e0 f   libucrt:ieee.obj
 0001:00024734       _controlfp                 0000000180025734 f   libucrt:ieee.obj
 0001:00024740       _statusfp                  0000000180025740 f   libucrt:ieee.obj
 0001:00024a20       __acrt_LCMapStringW        0000000180025a20 f   libucrt:lcmapstringw.obj
 0001:00024aa8       __dcrt_lowio_initialize_console_output 0000000180025aa8 f   libucrt:initcon.obj
 0001:00024ae4       __dcrt_terminate_console_output 0000000180025ae4 f   libucrt:initcon.obj
 0001:00024b10       _log10_special             0000000180025b10 f   libucrt:log_special.obj
 0001:00024bc6       IsProcessorFeaturePresent  0000000180025bc6 f   kernel32:KERNEL32.dll
 0001:00024bcc       RtlUnwindEx                0000000180025bcc f   kernel32:KERNEL32.dll
 0001:00024bd4       ?DloadAcquireSectionWriteAccess@@YAXXZ 0000000180025bd4 f i DelayImp:delayhlp.obj
 0001:00024c90       ?DloadGetSRWLockFunctionPointers@@YAEXZ 0000000180025c90 f i DelayImp:delayhlp.obj
 0001:00024d2c       ?DloadMakePermanentImageCommit@@YAXPEAX_K@Z 0000000180025d2c f i DelayImp:delayhlp.obj
 0001:00024dc4       ?DloadObtainSection@@YAPEAXPEAK0@Z 0000000180025dc4 f i DelayImp:delayhlp.obj
 0001:00024e5c       ?DloadProtectSection@@YAXKPEAK@Z 0000000180025e5c f i DelayImp:delayhlp.obj
 0001:00024eec       ?DloadReleaseSectionWriteAccess@@YAXXZ 0000000180025eec f i DelayImp:delayhlp.obj
 0001:00024f90       __delayLoadHelper2         0000000180025f90 f   DelayImp:delayhlp.obj
 0001:00025290       _FindPESection             0000000180026290 f   LIBCMT:pesect.obj
 0001:000252e0       _IsNonwritableInCurrentImage 00000001800262e0 f   LIBCMT:pesect.obj
 0001:00025330       _ValidateImageBase         0000000180026330 f   LIBCMT:pesect.obj
 0001:00025360       strrchr                    0000000180026360 f   libvcruntime:strrchr.obj
 0001:000254a0       wcschr                     00000001800264a0 f   libvcruntime:wcschr.obj
 0001:00025550       _guard_dispatch_icall_nop  0000000180026550 f   LIBCMT:_guard_dispatch_.obj
 0001:00025980       ??__F_Static@?1???$_Immortalize@V_Iostream_error_category@std@@@std@@YAAEAV_Iostream_error_category@0@XZ@YAXXZ 0000000180026980 f i tfe_utils.obj
 0002:00000000       __imp_GetModuleHandleA     0000000180027000     kernel32:KERNEL32.dll
 0002:00000008       __imp_VirtualQuery         0000000180027008     kernel32:KERNEL32.dll
 0002:00000010       __imp_VirtualProtect       0000000180027010     kernel32:KERNEL32.dll
 0002:00000018       __imp_GetSystemInfo        0000000180027018     kernel32:KERNEL32.dll
 0002:00000020       __imp_CreateFileW          0000000180027020     kernel32:KERNEL32.dll
 0002:00000028       __imp_WriteConsoleW        0000000180027028     kernel32:KERNEL32.dll
 0002:00000030       __imp_SetFilePointerEx     0000000180027030     kernel32:KERNEL32.dll
 0002:00000038       __imp_HeapSize             0000000180027038     kernel32:KERNEL32.dll
 0002:00000040       __imp_SetStdHandle         0000000180027040     kernel32:KERNEL32.dll
 0002:00000048       __imp_GetConsoleMode       0000000180027048     kernel32:KERNEL32.dll
 0002:00000050       __imp_GetConsoleCP         0000000180027050     kernel32:KERNEL32.dll
 0002:00000058       __imp_WriteFile            0000000180027058     kernel32:KERNEL32.dll
 0002:00000060       __imp_FlushFileBuffers     0000000180027060     kernel32:KERNEL32.dll
 0002:00000068       __imp_FreeEnvironmentStringsW 0000000180027068     kernel32:KERNEL32.dll
 0002:00000070       __imp_GetEnvironmentStringsW 0000000180027070     kernel32:KERNEL32.dll
 0002:00000078       __imp_GetCommandLineW      0000000180027078     kernel32:KERNEL32.dll
 0002:00000080       __imp_GetCommandLineA      0000000180027080     kernel32:KERNEL32.dll
 0002:00000088       __imp_GetOEMCP             0000000180027088     kernel32:KERNEL32.dll
 0002:00000090       __imp_IsValidCodePage      0000000180027090     kernel32:KERNEL32.dll
 0002:00000098       __imp_FindNextFileA        0000000180027098     kernel32:KERNEL32.dll
 0002:000000a0       __imp_FindFirstFileExA     00000001800270a0     kernel32:KERNEL32.dll
 0002:000000a8       __imp_FindClose            00000001800270a8     kernel32:KERNEL32.dll
 0002:000000b0       __imp_GetProcessHeap       00000001800270b0     kernel32:KERNEL32.dll
 0002:000000b8       __imp_GetACP               00000001800270b8     kernel32:KERNEL32.dll
 0002:000000c0       __imp_GetFileType          00000001800270c0     kernel32:KERNEL32.dll
 0002:000000c8       __imp_GetStdHandle         00000001800270c8     kernel32:KERNEL32.dll
 0002:000000d0       __imp_EnumSystemLocalesW   00000001800270d0     kernel32:KERNEL32.dll
 0002:000000d8       __imp_GetUserDefaultLCID   00000001800270d8     kernel32:KERNEL32.dll
 0002:000000e0       __imp_IsValidLocale        00000001800270e0     kernel32:KERNEL32.dll
 0002:000000e8       __imp_WideCharToMultiByte  00000001800270e8     kernel32:KERNEL32.dll
 0002:000000f0       __imp_EnterCriticalSection 00000001800270f0     kernel32:KERNEL32.dll
 0002:000000f8       __imp_LeaveCriticalSection 00000001800270f8     kernel32:KERNEL32.dll
 0002:00000100       __imp_DeleteCriticalSection 0000000180027100     kernel32:KERNEL32.dll
 0002:00000108       __imp_EncodePointer        0000000180027108     kernel32:KERNEL32.dll
 0002:00000110       __imp_DecodePointer        0000000180027110     kernel32:KERNEL32.dll
 0002:00000118       __imp_MultiByteToWideChar  0000000180027118     kernel32:KERNEL32.dll
 0002:00000120       __imp_SetLastError         0000000180027120     kernel32:KERNEL32.dll
 0002:00000128       __imp_InitializeCriticalSectionAndSpinCount 0000000180027128     kernel32:KERNEL32.dll
 0002:00000130       __imp_CreateEventW         0000000180027130     kernel32:KERNEL32.dll
 0002:00000138       __imp_TlsAlloc             0000000180027138     kernel32:KERNEL32.dll
 0002:00000140       __imp_TlsGetValue          0000000180027140     kernel32:KERNEL32.dll
 0002:00000148       __imp_TlsSetValue          0000000180027148     kernel32:KERNEL32.dll
 0002:00000150       __imp_TlsFree              0000000180027150     kernel32:KERNEL32.dll
 0002:00000158       __imp_GetSystemTimeAsFileTime 0000000180027158     kernel32:KERNEL32.dll
 0002:00000160       __imp_GetModuleHandleW     0000000180027160     kernel32:KERNEL32.dll
 0002:00000168       __imp_GetProcAddress       0000000180027168     kernel32:KERNEL32.dll
 0002:00000170       __imp_LCMapStringW         0000000180027170     kernel32:KERNEL32.dll
 0002:00000178       __imp_GetLocaleInfoW       0000000180027178     kernel32:KERNEL32.dll
 0002:00000180       __imp_GetStringTypeW       0000000180027180     kernel32:KERNEL32.dll
 0002:00000188       __imp_GetCPInfo            0000000180027188     kernel32:KERNEL32.dll
 0002:00000190       __imp_CloseHandle          0000000180027190     kernel32:KERNEL32.dll
 0002:00000198       __imp_SetEvent             0000000180027198     kernel32:KERNEL32.dll
 0002:000001a0       __imp_ResetEvent           00000001800271a0     kernel32:KERNEL32.dll
 0002:000001a8       __imp_WaitForSingleObjectEx 00000001800271a8     kernel32:KERNEL32.dll
 0002:000001b0       __imp_RtlCaptureContext    00000001800271b0     kernel32:KERNEL32.dll
 0002:000001b8       __imp_RtlLookupFunctionEntry 00000001800271b8     kernel32:KERNEL32.dll
 0002:000001c0       __imp_RtlVirtualUnwind     00000001800271c0     kernel32:KERNEL32.dll
 0002:000001c8       __imp_UnhandledExceptionFilter 00000001800271c8     kernel32:KERNEL32.dll
 0002:000001d0       __imp_SetUnhandledExceptionFilter 00000001800271d0     kernel32:KERNEL32.dll
 0002:000001d8       __imp_GetCurrentProcess    00000001800271d8     kernel32:KERNEL32.dll
 0002:000001e0       __imp_TerminateProcess     00000001800271e0     kernel32:KERNEL32.dll
 0002:000001e8       __imp_IsProcessorFeaturePresent 00000001800271e8     kernel32:KERNEL32.dll
 0002:000001f0       __imp_IsDebuggerPresent    00000001800271f0     kernel32:KERNEL32.dll
 0002:000001f8       __imp_GetStartupInfoW      00000001800271f8     kernel32:KERNEL32.dll
 0002:00000200       __imp_QueryPerformanceCounter 0000000180027200     kernel32:KERNEL32.dll
 0002:00000208       __imp_GetCurrentProcessId  0000000180027208     kernel32:KERNEL32.dll
 0002:00000210       __imp_GetCurrentThreadId   0000000180027210     kernel32:KERNEL32.dll
 0002:00000218       __imp_InitializeSListHead  0000000180027218     kernel32:KERNEL32.dll
 0002:00000220       __imp_RtlPcToFileHeader    0000000180027220     kernel32:KERNEL32.dll
 0002:00000228       __imp_RaiseException       0000000180027228     kernel32:KERNEL32.dll
 0002:00000230       __imp_RtlUnwindEx          0000000180027230     kernel32:KERNEL32.dll
 0002:00000238       __imp_GetLastError         0000000180027238     kernel32:KERNEL32.dll
 0002:00000240       __imp_FreeLibrary          0000000180027240     kernel32:KERNEL32.dll
 0002:00000248       __imp_LoadLibraryExW       0000000180027248     kernel32:KERNEL32.dll
 0002:00000250       __imp_InterlockedFlushSList 0000000180027250     kernel32:KERNEL32.dll
 0002:00000258       __imp_HeapAlloc            0000000180027258     kernel32:KERNEL32.dll
 0002:00000260       __imp_HeapReAlloc          0000000180027260     kernel32:KERNEL32.dll
 0002:00000268       __imp_HeapFree             0000000180027268     kernel32:KERNEL32.dll
 0002:00000270       __imp_ExitProcess          0000000180027270     kernel32:KERNEL32.dll
 0002:00000278       __imp_GetModuleHandleExW   0000000180027278     kernel32:KERNEL32.dll
 0002:00000280       __imp_GetModuleFileNameA   0000000180027280     kernel32:KERNEL32.dll
 0002:00000288       __imp_LoadLibraryExA       0000000180027288     kernel32:KERNEL32.dll
 0002:00000290       \177KERNEL32_NULL_THUNK_DATA 0000000180027290     kernel32:KERNEL32.dll
 0002:00000298       __imp_TF_Version           0000000180027298     tensorflow:tensorflow.dll
 0002:000002a0       __imp_TFE_NewOp            00000001800272a0     tensorflow:tensorflow.dll
 0002:000002a8       __imp_TF_DeviceListName    00000001800272a8     tensorflow:tensorflow.dll
 0002:000002b0       __imp_TFE_NewContext       00000001800272b0     tensorflow:tensorflow.dll
 0002:000002b8       __imp_TF_DeleteDeviceList  00000001800272b8     tensorflow:tensorflow.dll
 0002:000002c0       __imp_TFE_ContextListDevices 00000001800272c0     tensorflow:tensorflow.dll
 0002:000002c8       __imp_TF_DeviceListCount   00000001800272c8     tensorflow:tensorflow.dll
 0002:000002d0       __imp_TFE_DeleteOp         00000001800272d0     tensorflow:tensorflow.dll
 0002:000002d8       __imp_TFE_DeleteTensorHandle 00000001800272d8     tensorflow:tensorflow.dll
 0002:000002e0       __imp_TFE_DeleteContextOptions 00000001800272e0     tensorflow:tensorflow.dll
 0002:000002e8       __imp_TFE_Execute          00000001800272e8     tensorflow:tensorflow.dll
 0002:000002f0       __imp_TFE_NewContextOptions 00000001800272f0     tensorflow:tensorflow.dll
 0002:000002f8       __imp_TFE_OpAddInput       00000001800272f8     tensorflow:tensorflow.dll
 0002:00000300       __imp_TFE_TensorHandleDataType 0000000180027300     tensorflow:tensorflow.dll
 0002:00000308       __imp_TFE_OpSetAttrIntList 0000000180027308     tensorflow:tensorflow.dll
 0002:00000310       __imp_TFE_TensorHandleCopyToDevice 0000000180027310     tensorflow:tensorflow.dll
 0002:00000318       __imp_TFE_OpSetAttrString  0000000180027318     tensorflow:tensorflow.dll
 0002:00000320       __imp_TFE_TensorHandleNumDims 0000000180027320     tensorflow:tensorflow.dll
 0002:00000328       __imp_TFE_OpSetAttrInt     0000000180027328     tensorflow:tensorflow.dll
 0002:00000330       __imp_TFE_TensorHandleResolve 0000000180027330     tensorflow:tensorflow.dll
 0002:00000338       __imp_TF_DeleteStatus      0000000180027338     tensorflow:tensorflow.dll
 0002:00000340       __imp_TF_AllocateTensor    0000000180027340     tensorflow:tensorflow.dll
 0002:00000348       __imp_TFE_TensorHandleDim  0000000180027348     tensorflow:tensorflow.dll
 0002:00000350       __imp_TF_DataTypeSize      0000000180027350     tensorflow:tensorflow.dll
 0002:00000358       __imp_TF_TensorByteSize    0000000180027358     tensorflow:tensorflow.dll
 0002:00000360       __imp_TF_GetCode           0000000180027360     tensorflow:tensorflow.dll
 0002:00000368       __imp_TF_NumDims           0000000180027368     tensorflow:tensorflow.dll
 0002:00000370       __imp_TF_Message           0000000180027370     tensorflow:tensorflow.dll
 0002:00000378       __imp_TFE_NewTensorHandle  0000000180027378     tensorflow:tensorflow.dll
 0002:00000380       __imp_TFE_OpSetAttrType    0000000180027380     tensorflow:tensorflow.dll
 0002:00000388       __imp_TFE_OpSetAttrBoolList 0000000180027388     tensorflow:tensorflow.dll
 0002:00000390       __imp_TF_NewStatus         0000000180027390     tensorflow:tensorflow.dll
 0002:00000398       __imp_TF_DeleteTensor      0000000180027398     tensorflow:tensorflow.dll
 0002:000003a0       __imp_TFE_OpSetAttrFloatList 00000001800273a0     tensorflow:tensorflow.dll
 0002:000003a8       __imp_TFE_OpSetAttrFloat   00000001800273a8     tensorflow:tensorflow.dll
 0002:000003b0       __imp_TF_Dim               00000001800273b0     tensorflow:tensorflow.dll
 0002:000003b8       __imp_TF_TensorData        00000001800273b8     tensorflow:tensorflow.dll
 0002:000003c0       __imp_TFE_OpSetAttrShape   00000001800273c0     tensorflow:tensorflow.dll
 0002:000003c8       __imp_TFE_OpSetAttrBool    00000001800273c8     tensorflow:tensorflow.dll
 0002:000003d0       \177tensorflow_NULL_THUNK_DATA 00000001800273d0     tensorflow:tensorflow.dll
 0002:000003d8       __guard_check_icall_fptr   00000001800273d8     LIBCMT:guard_support.obj
 0002:000003e0       __guard_dispatch_icall_fptr 00000001800273e0     LIBCMT:guard_support.obj
 0002:000003e8       __xc_a                     00000001800273e8     LIBCMT:initializers.obj
 0002:00000420       _register_tfe_binding_     0000000180027420     tfjs_binding.obj
 0002:00000428       __xc_z                     0000000180027428     LIBCMT:initializers.obj
 0002:00000430       __xi_a                     0000000180027430     LIBCMT:initializers.obj
 0002:00000448       __acrt_stdio_initializer   0000000180027448     libucrt:stdio_initializer.obj
 0002:00000450       __acrt_tran_fma3_initializer 0000000180027450     libucrt:fma3_initializer.obj
 0002:00000458       __acrt_timeset_initializer 0000000180027458     libucrt:timeset_initializer.obj
 0002:00000460       __acrt_multibyte_initializer 0000000180027460     libucrt:multibyte_initializer.obj
 0002:00000468       __xi_z                     0000000180027468     LIBCMT:initializers.obj
 0002:00000470       __xl_a                     0000000180027470     LIBCMT:tlssup.obj
 0002:00000478       __xl_z                     0000000180027478     LIBCMT:tlssup.obj
 0002:00000480       __xp_a                     0000000180027480     LIBCMT:initializers.obj
 0002:00000488       __acrt_locale_terminator   0000000180027488     libucrt:locale_initializer.obj
 0002:00000490       __dcrt_console_output_terminator 0000000180027490     libucrt:console_output_initializer.obj
 0002:00000498       __acrt_stdio_terminator    0000000180027498     libucrt:stdio_initializer.obj
 0002:000004a0       __xp_z                     00000001800274a0     LIBCMT:initializers.obj
 0002:000004a8       __xt_a                     00000001800274a8     LIBCMT:initializers.obj
 0002:000004b0       __xt_z                     00000001800274b0     LIBCMT:initializers.obj
 0002:000004c0       __sz_node_exe              00000001800274c0     node:node.exe
 0002:000005a0       ??_7_Facet_base@std@@6B@   00000001800275a0     libcpmt:locale0.obj
 0002:000005c0       ??_7_Locimp@locale@std@@6B@ 00000001800275c0     libcpmt:locale0.obj
 0002:000005d8       ??_C@_01NBENCBCI@?$CK?$AA@ 00000001800275d8     libcpmt:locale0.obj
 0002:000005dc       ??_C@_01GFHCPBMG@C?$AA@    00000001800275dc     libcpmt:locale0.obj
 0002:000005e8       ??_7exception@std@@6B@     00000001800275e8     libcpmt:xthrow.obj
 0002:000005f8       ??_C@_0BC@EOODALEL@Unknown?5exception?$AA@ 00000001800275f8     libcpmt:xthrow.obj
 0002:00000618       ??_7bad_alloc@std@@6B@     0000000180027618     libcpmt:xthrow.obj
 0002:00000628       ??_C@_0P@GHFPNOJB@bad?5allocation?$AA@ 0000000180027628     libcpmt:xthrow.obj
 0002:00000640       ??_7logic_error@std@@6B@   0000000180027640     libcpmt:xthrow.obj
 0002:00000658       ??_7length_error@std@@6B@  0000000180027658     libcpmt:xthrow.obj
 0002:00000670       ??_7out_of_range@std@@6B@  0000000180027670     libcpmt:xthrow.obj
 0002:00000688       ??_7runtime_error@std@@6B@ 0000000180027688     libcpmt:xthrow.obj
 0002:00000698       ?_BADOFF@std@@3_JB         0000000180027698     libcpmt:ios.obj
 0002:00000dd0       ??_C@_0BN@LKKBCCDB@address?5family?5not?5supported?$AA@ 0000000180027dd0     libcpmt:syserror.obj
 0002:00000df0       ??_C@_0P@LDMLAFHI@address?5in?5use?$AA@ 0000000180027df0     libcpmt:syserror.obj
 0002:00000e00       ??_C@_0BG@DHPCNBJB@address?5not?5available?$AA@ 0000000180027e00     libcpmt:syserror.obj
 0002:00000e18       ??_C@_0BC@DFIBIBIL@already?5connected?$AA@ 0000000180027e18     libcpmt:syserror.obj
 0002:00000e30       ??_C@_0BH@CAKOHOMI@argument?5list?5too?5long?$AA@ 0000000180027e30     libcpmt:syserror.obj
 0002:00000e48       ??_C@_0BH@CGIMPKIM@argument?5out?5of?5domain?$AA@ 0000000180027e48     libcpmt:syserror.obj
 0002:00000e60       ??_C@_0M@KGHGGJGL@bad?5address?$AA@ 0000000180027e60     libcpmt:syserror.obj
 0002:00000e70       ??_C@_0BE@MPJPGCEO@bad?5file?5descriptor?$AA@ 0000000180027e70     libcpmt:syserror.obj
 0002:00000e88       ??_C@_0M@PMMIEFCP@bad?5message?$AA@ 0000000180027e88     libcpmt:syserror.obj
 0002:00000e98       ??_C@_0M@KPHOFDBE@broken?5pipe?$AA@ 0000000180027e98     libcpmt:syserror.obj
 0002:00000ea8       ??_C@_0BD@MGNDDEGM@connection?5aborted?$AA@ 0000000180027ea8     libcpmt:syserror.obj
 0002:00000ec0       ??_C@_0BP@KAIHPOGN@connection?5already?5in?5progress?$AA@ 0000000180027ec0     libcpmt:syserror.obj
 0002:00000ee0       ??_C@_0BD@PJLIIJEL@connection?5refused?$AA@ 0000000180027ee0     libcpmt:syserror.obj
 0002:00000ef8       ??_C@_0BB@IECNJNOI@connection?5reset?$AA@ 0000000180027ef8     libcpmt:syserror.obj
 0002:00000f10       ??_C@_0BC@PPHBOELF@cross?5device?5link?$AA@ 0000000180027f10     libcpmt:syserror.obj
 0002:00000f28       ??_C@_0BN@KDMIFEIP@destination?5address?5required?$AA@ 0000000180027f28     libcpmt:syserror.obj
 0002:00000f48       ??_C@_0BI@NGCEHDD@device?5or?5resource?5busy?$AA@ 0000000180027f48     libcpmt:syserror.obj
 0002:00000f60       ??_C@_0BE@JIDOCPHM@directory?5not?5empty?$AA@ 0000000180027f60     libcpmt:syserror.obj
 0002:00000f78       ??_C@_0BI@BNCLIGPB@executable?5format?5error?$AA@ 0000000180027f78     libcpmt:syserror.obj
 0002:00000f90       ??_C@_0M@MIDIAGJP@file?5exists?$AA@ 0000000180027f90     libcpmt:syserror.obj
 0002:00000fa0       ??_C@_0P@DNAJLBJK@file?5too?5large?$AA@ 0000000180027fa0     libcpmt:syserror.obj
 0002:00000fb0       ??_C@_0BC@EJHOMAAK@filename?5too?5long?$AA@ 0000000180027fb0     libcpmt:syserror.obj
 0002:00000fc8       ??_C@_0BH@KEFGLDAF@function?5not?5supported?$AA@ 0000000180027fc8     libcpmt:syserror.obj
 0002:00000fe0       ??_C@_0BB@DHFDFGDM@host?5unreachable?$AA@ 0000000180027fe0     libcpmt:syserror.obj
 0002:00000ff8       ??_C@_0BD@JPHBMONG@identifier?5removed?$AA@ 0000000180027ff8     libcpmt:syserror.obj
 0002:00001010       ??_C@_0BG@CDNPAGJK@illegal?5byte?5sequence?$AA@ 0000000180028010     libcpmt:syserror.obj
 0002:00001028       ??_C@_0CD@BNPLBMNA@inappropriate?5io?5control?5operati@ 0000000180028028     libcpmt:syserror.obj
 0002:00001050       ??_C@_0M@EGEKIIMP@interrupted?$AA@ 0000000180028050     libcpmt:syserror.obj
 0002:00001060       ??_C@_0BB@FCMFBGOM@invalid?5argument?$AA@ 0000000180028060     libcpmt:syserror.obj
 0002:00001078       ??_C@_0N@OHAFKDEK@invalid?5seek?$AA@ 0000000180028078     libcpmt:syserror.obj
 0002:00001088       ??_C@_08GLNPIFBN@io?5error?$AA@ 0000000180028088     libcpmt:syserror.obj
 0002:00001098       ??_C@_0P@FLLDBIDK@is?5a?5directory?$AA@ 0000000180028098     libcpmt:syserror.obj
 0002:000010a8       ??_C@_0N@IFLPBIOP@message?5size?$AA@ 00000001800280a8     libcpmt:syserror.obj
 0002:000010b8       ??_C@_0N@KIIEAAIO@network?5down?$AA@ 00000001800280b8     libcpmt:syserror.obj
 0002:000010c8       ??_C@_0O@FNPDBHEE@network?5reset?$AA@ 00000001800280c8     libcpmt:syserror.obj
 0002:000010d8       ??_C@_0BE@IFNCKGE@network?5unreachable?$AA@ 00000001800280d8     libcpmt:syserror.obj
 0002:000010f0       ??_C@_0BA@PFFCAOFK@no?5buffer?5space?$AA@ 00000001800280f0     libcpmt:syserror.obj
 0002:00001100       ??_C@_0BB@IEPBLJHK@no?5child?5process?$AA@ 0000000180028100     libcpmt:syserror.obj
 0002:00001118       ??_C@_07PLECNNKG@no?5link?$AA@ 0000000180028118     libcpmt:syserror.obj
 0002:00001120       ??_C@_0BC@NJECKMKE@no?5lock?5available?$AA@ 0000000180028120     libcpmt:syserror.obj
 0002:00001138       ??_C@_0BF@PBGGPKKE@no?5message?5available?$AA@ 0000000180028138     libcpmt:syserror.obj
 0002:00001150       ??_C@_0L@EDOLMPAK@no?5message?$AA@ 0000000180028150     libcpmt:syserror.obj
 0002:00001160       ??_C@_0BD@EAMBFIDF@no?5protocol?5option?$AA@ 0000000180028160     libcpmt:syserror.obj
 0002:00001178       ??_C@_0BD@IJDJKDEA@no?5space?5on?5device?$AA@ 0000000180028178     libcpmt:syserror.obj
 0002:00001190       ??_C@_0BE@MKFDAFMP@no?5stream?5resources?$AA@ 0000000180028190     libcpmt:syserror.obj
 0002:000011a8       ??_C@_0BK@IMCPHCBI@no?5such?5device?5or?5address?$AA@ 00000001800281a8     libcpmt:syserror.obj
 0002:000011c8       ??_C@_0P@FDINDDOK@no?5such?5device?$AA@ 00000001800281c8     libcpmt:syserror.obj
 0002:000011d8       ??_C@_0BK@NDOCBPGE@no?5such?5file?5or?5directory?$AA@ 00000001800281d8     libcpmt:syserror.obj
 0002:000011f8       ??_C@_0BA@ENLPPKBN@no?5such?5process?$AA@ 00000001800281f8     libcpmt:syserror.obj
 0002:00001208       ??_C@_0BA@DOCPFFJG@not?5a?5directory?$AA@ 0000000180028208     libcpmt:syserror.obj
 0002:00001218       ??_C@_0N@POEIPGGF@not?5a?5socket?$AA@ 0000000180028218     libcpmt:syserror.obj
 0002:00001228       ??_C@_0N@LGAPMMPI@not?5a?5stream?$AA@ 0000000180028228     libcpmt:syserror.obj
 0002:00001238       ??_C@_0O@GLMIBBEG@not?5connected?$AA@ 0000000180028238     libcpmt:syserror.obj
 0002:00001248       ??_C@_0BC@ENOOLCNF@not?5enough?5memory?$AA@ 0000000180028248     libcpmt:syserror.obj
 0002:00001260       ??_C@_0O@NHEDABJP@not?5supported?$AA@ 0000000180028260     libcpmt:syserror.obj
 0002:00001270       ??_C@_0BD@MOLBPMEA@operation?5canceled?$AA@ 0000000180028270     libcpmt:syserror.obj
 0002:00001288       ??_C@_0BG@KDKHOPCO@operation?5in?5progress?$AA@ 0000000180028288     libcpmt:syserror.obj
 0002:000012a0       ??_C@_0BI@OHIEJAAB@operation?5not?5permitted?$AA@ 00000001800282a0     libcpmt:syserror.obj
 0002:000012b8       ??_C@_0BI@LNEGIFLN@operation?5not?5supported?$AA@ 00000001800282b8     libcpmt:syserror.obj
 0002:000012d0       ??_C@_0BG@OEMDKMEE@operation?5would?5block?$AA@ 00000001800282d0     libcpmt:syserror.obj
 0002:000012e8       ??_C@_0L@BLPOFLNJ@owner?5dead?$AA@ 00000001800282e8     libcpmt:syserror.obj
 0002:000012f8       ??_C@_0BC@CIJDGCDI@permission?5denied?$AA@ 00000001800282f8     libcpmt:syserror.obj
 0002:00001310       ??_C@_0P@FNPOCJBE@protocol?5error?$AA@ 0000000180028310     libcpmt:syserror.obj
 0002:00001320       ??_C@_0BH@JPPPLHJB@protocol?5not?5supported?$AA@ 0000000180028320     libcpmt:syserror.obj
 0002:00001338       ??_C@_0BG@EICBIHDP@read?5only?5file?5system?$AA@ 0000000180028338     libcpmt:syserror.obj
 0002:00001350       ??_C@_0BO@BJBOMOEJ@resource?5deadlock?5would?5occur?$AA@ 0000000180028350     libcpmt:syserror.obj
 0002:00001370       ??_C@_0BP@LKNGHENJ@resource?5unavailable?5try?5again?$AA@ 0000000180028370     libcpmt:syserror.obj
 0002:00001390       ??_C@_0BE@GOIPJJHG@result?5out?5of?5range?$AA@ 0000000180028390     libcpmt:syserror.obj
 0002:000013a8       ??_C@_0BG@MPLKFPAE@state?5not?5recoverable?$AA@ 00000001800283a8     libcpmt:syserror.obj
 0002:000013c0       ??_C@_0P@DIIFGFCG@stream?5timeout?$AA@ 00000001800283c0     libcpmt:syserror.obj
 0002:000013d0       ??_C@_0P@IPFDMIFL@text?5file?5busy?$AA@ 00000001800283d0     libcpmt:syserror.obj
 0002:000013e0       ??_C@_09KJPPMAOI@timed?5out?$AA@ 00000001800283e0     libcpmt:syserror.obj
 0002:000013f0       ??_C@_0BO@HACHBEKI@too?5many?5files?5open?5in?5system?$AA@ 00000001800283f0     libcpmt:syserror.obj
 0002:00001410       ??_C@_0BE@GHAFMPAH@too?5many?5files?5open?$AA@ 0000000180028410     libcpmt:syserror.obj
 0002:00001428       ??_C@_0P@HCOMKFCC@too?5many?5links?$AA@ 0000000180028428     libcpmt:syserror.obj
 0002:00001438       ??_C@_0BO@EFGOJEF@too?5many?5symbolic?5link?5levels?$AA@ 0000000180028438     libcpmt:syserror.obj
 0002:00001458       ??_C@_0BA@KGKGOOJA@value?5too?5large?$AA@ 0000000180028458     libcpmt:syserror.obj
 0002:00001468       ??_C@_0BE@MIEJDDNH@wrong?5protocol?5type?$AA@ 0000000180028468     libcpmt:syserror.obj
 0002:00001480       ??_C@_0O@BFJCFAAK@unknown?5error?$AA@ 0000000180028480     libcpmt:syserror.obj
 0002:000014c0       ??_7?$ctype@D@std@@6B@     00000001800284c0     libcpmt:locale.obj
 0002:00001520       ??_7?$num_put@DV?$ostreambuf_iterator@DU?$char_traits@D@std@@@std@@@std@@6B@ 0000000180028520     libcpmt:locale.obj
 0002:00001580       ??_7?$numpunct@D@std@@6B@  0000000180028580     libcpmt:locale.obj
 0002:000015c0       ??_C@_1BK@MGMFAEKH@?$AAk?$AAe?$AAr?$AAn?$AAe?$AAl?$AA3?$AA2?$AA?4?$AAd?$AAl?$AAl?$AA?$AA@ 00000001800285c0     libcpmt:winapisupp.obj
 0002:000015e0       ??_C@_08KNHFBNJ@FlsAlloc?$AA@ 00000001800285e0     libcpmt:winapisupp.obj
 0002:000015f0       ??_C@_07PEJMOBNF@FlsFree?$AA@ 00000001800285f0     libcpmt:winapisupp.obj
 0002:000015f8       ??_C@_0M@GDNOONDI@FlsGetValue?$AA@ 00000001800285f8     libcpmt:winapisupp.obj
 0002:00001608       ??_C@_0M@JCPCPOEF@FlsSetValue?$AA@ 0000000180028608     libcpmt:winapisupp.obj
 0002:00001618       ??_C@_0BM@HCFOFFN@InitializeCriticalSectionEx?$AA@ 0000000180028618     libcpmt:winapisupp.obj
 0002:00001638       ??_C@_0BE@GPLMMCMH@InitOnceExecuteOnce?$AA@ 0000000180028638     libcpmt:winapisupp.obj
 0002:00001650       ??_C@_0P@DLHPPCNH@CreateEventExW?$AA@ 0000000180028650     libcpmt:winapisupp.obj
 0002:00001660       ??_C@_0BB@MEFPJLHN@CreateSemaphoreW?$AA@ 0000000180028660     libcpmt:winapisupp.obj
 0002:00001678       ??_C@_0BD@KIEEOEEH@CreateSemaphoreExW?$AA@ 0000000180028678     libcpmt:winapisupp.obj
 0002:00001690       ??_C@_0BG@OGFAJCKC@CreateThreadpoolTimer?$AA@ 0000000180028690     libcpmt:winapisupp.obj
 0002:000016a8       ??_C@_0BD@LPLEMMDI@SetThreadpoolTimer?$AA@ 00000001800286a8     libcpmt:winapisupp.obj
 0002:000016c0       ??_C@_0CA@FMNJENH@WaitForThreadpoolTimerCallbacks?$AA@ 00000001800286c0     libcpmt:winapisupp.obj
 0002:000016e0       ??_C@_0BF@DCFCCNOC@CloseThreadpoolTimer?$AA@ 00000001800286e0     libcpmt:winapisupp.obj
 0002:000016f8       ??_C@_0BF@FLABGKKM@CreateThreadpoolWait?$AA@ 00000001800286f8     libcpmt:winapisupp.obj
 0002:00001710       ??_C@_0BC@MGCOHNA@SetThreadpoolWait?$AA@ 0000000180028710     libcpmt:winapisupp.obj
 0002:00001728       ??_C@_0BE@OCIOMIMP@CloseThreadpoolWait?$AA@ 0000000180028728     libcpmt:winapisupp.obj
 0002:00001740       ??_C@_0BJ@LKGHFHBO@FlushProcessWriteBuffers?$AA@ 0000000180028740     libcpmt:winapisupp.obj
 0002:00001760       ??_C@_0BP@KALKKPMO@FreeLibraryWhenCallbackReturns?$AA@ 0000000180028760     libcpmt:winapisupp.obj
 0002:00001780       ??_C@_0BK@DFNBACLA@GetCurrentProcessorNumber?$AA@ 0000000180028780     libcpmt:winapisupp.obj
 0002:000017a0       ??_C@_0BE@FKKLLFLM@CreateSymbolicLinkW?$AA@ 00000001800287a0     libcpmt:winapisupp.obj
 0002:000017b8       ??_C@_0BE@JOGNEJCI@GetCurrentPackageId?$AA@ 00000001800287b8     libcpmt:winapisupp.obj
 0002:000017d0       ??_C@_0P@CDHHOHKP@GetTickCount64?$AA@ 00000001800287d0     libcpmt:winapisupp.obj
 0002:000017e0       ??_C@_0BN@NEEHBBPO@GetFileInformationByHandleEx?$AA@ 00000001800287e0     libcpmt:winapisupp.obj
 0002:00001800       ??_C@_0BL@KBBHGKCM@SetFileInformationByHandle?$AA@ 0000000180028800     libcpmt:winapisupp.obj
 0002:00001820       ??_C@_0BP@FPNJPEJC@GetSystemTimePreciseAsFileTime?$AA@ 0000000180028820     libcpmt:winapisupp.obj
 0002:00001840       ??_C@_0BM@HLJJNPAH@InitializeConditionVariable?$AA@ 0000000180028840     libcpmt:winapisupp.obj
 0002:00001860       ??_C@_0BG@BFNILBLN@WakeConditionVariable?$AA@ 0000000180028860     libcpmt:winapisupp.obj
 0002:00001878       ??_C@_0BJ@PGPPEPCC@WakeAllConditionVariable?$AA@ 0000000180028878     libcpmt:winapisupp.obj
 0002:00001898       ??_C@_0BJ@JEBJOJFJ@SleepConditionVariableCS?$AA@ 0000000180028898     libcpmt:winapisupp.obj
 0002:000018b8       ??_C@_0BC@MMLHEBPB@InitializeSRWLock?$AA@ 00000001800288b8     libcpmt:winapisupp.obj
 0002:000018d0       ??_C@_0BI@OMNLIJDB@AcquireSRWLockExclusive?$AA@ 00000001800288d0     libcpmt:winapisupp.obj
 0002:000018e8       ??_C@_0BL@OGHFEMNA@TryAcquireSRWLockExclusive?$AA@ 00000001800288e8     libcpmt:winapisupp.obj
 0002:00001908       ??_C@_0BI@HMIEPCNJ@ReleaseSRWLockExclusive?$AA@ 0000000180028908     libcpmt:winapisupp.obj
 0002:00001920       ??_C@_0BK@LGACAGIC@SleepConditionVariableSRW?$AA@ 0000000180028920     libcpmt:winapisupp.obj
 0002:00001940       ??_C@_0BF@GGPHFPJA@CreateThreadpoolWork?$AA@ 0000000180028940     libcpmt:winapisupp.obj
 0002:00001958       ??_C@_0BF@NHDAIMMO@SubmitThreadpoolWork?$AA@ 0000000180028958     libcpmt:winapisupp.obj
 0002:00001970       ??_C@_0BE@NPHIPNPD@CloseThreadpoolWork?$AA@ 0000000180028970     libcpmt:winapisupp.obj
 0002:00001988       ??_C@_0BA@IHGNDAEB@CompareStringEx?$AA@ 0000000180028988     libcpmt:winapisupp.obj
 0002:00001998       ??_C@_0BA@ONOKGCMP@GetLocaleInfoEx?$AA@ 0000000180028998     libcpmt:winapisupp.obj
 0002:000019a8       ??_C@_0O@KKBNKAPF@LCMapStringEx?$AA@ 00000001800289a8     libcpmt:winapisupp.obj
 0002:000019b8       ??_C@_11LOCGONAA@?$AA?$AA@ 00000001800289b8     libcpmt:wlocale.obj
 0002:000019bc       ??_C@_01JOAMLHOP@?9?$AA@   00000001800289bc     libcpmt:wlocale.obj
 0002:000019c0       __xmm@80000000000000008000000000000000 00000001800289c0     libcpmt:wlocale.obj
 0002:00001a70       ??_C@_1M@JKFFICHJ@?$AAe?$AAs?$AA?9?$AAv?$AAe?$AA?$AA@ 0000000180028a70     libcpmt:winapinls.obj
 0002:00001a80       ??_C@_1M@PNMLOJDF@?$AAe?$AAt?$AA?9?$AAe?$AAe?$AA?$AA@ 0000000180028a80     libcpmt:winapinls.obj
 0002:00001a90       ??_C@_1M@GHHLIKEI@?$AAe?$AAu?$AA?9?$AAe?$AAs?$AA?$AA@ 0000000180028a90     libcpmt:winapinls.obj
 0002:00001aa0       ??_C@_1M@PBNONODE@?$AAf?$AAa?$AA?9?$AAi?$AAr?$AA?$AA@ 0000000180028aa0     libcpmt:winapinls.obj
 0002:00001ab0       ??_C@_1M@JEEHPMIL@?$AAf?$AAi?$AA?9?$AAf?$AAi?$AA?$AA@ 0000000180028ab0     libcpmt:winapinls.obj
 0002:00001ac0       ??_C@_1M@LMDCNDBA@?$AAf?$AAo?$AA?9?$AAf?$AAo?$AA?$AA@ 0000000180028ac0     libcpmt:winapinls.obj
 0002:00001ad0       ??_C@_1M@JKEOHLDK@?$AAf?$AAr?$AA?9?$AAb?$AAe?$AA?$AA@ 0000000180028ad0     libcpmt:winapinls.obj
 0002:00001ae0       ??_C@_1M@NOHADPMI@?$AAf?$AAr?$AA?9?$AAc?$AAa?$AA?$AA@ 0000000180028ae0     libcpmt:winapinls.obj
 0002:00001af0       ??_C@_1M@KDHIHAEC@?$AAf?$AAr?$AA?9?$AAc?$AAh?$AA?$AA@ 0000000180028af0     libcpmt:winapinls.obj
 0002:00001b00       ??_C@_1M@MMBBFGAK@?$AAf?$AAr?$AA?9?$AAf?$AAr?$AA?$AA@ 0000000180028b00     libcpmt:winapinls.obj
 0002:00001b10       ??_C@_1M@PAFNENNF@?$AAf?$AAr?$AA?9?$AAl?$AAu?$AA?$AA@ 0000000180028b10     libcpmt:winapinls.obj
 0002:00001b20       ??_C@_1M@EOHDJGDD@?$AAf?$AAr?$AA?9?$AAm?$AAc?$AA?$AA@ 0000000180028b20     libcpmt:winapinls.obj
 0002:00001b30       ??_C@_1M@FAPLLOPF@?$AAg?$AAl?$AA?9?$AAe?$AAs?$AA?$AA@ 0000000180028b30     libcpmt:winapinls.obj
 0002:00001b40       ??_C@_1M@FOPBFLOO@?$AAg?$AAu?$AA?9?$AAi?$AAn?$AA?$AA@ 0000000180028b40     libcpmt:winapinls.obj
 0002:00001b50       ??_C@_1M@KBMCINPM@?$AAh?$AAe?$AA?9?$AAi?$AAl?$AA?$AA@ 0000000180028b50     libcpmt:winapinls.obj
 0002:00001b60       ??_C@_1M@BBPHKFPJ@?$AAh?$AAi?$AA?9?$AAi?$AAn?$AA?$AA@ 0000000180028b60     libcpmt:winapinls.obj
 0002:00001b70       ??_C@_1M@PMBNDPHD@?$AAh?$AAr?$AA?9?$AAb?$AAa?$AA?$AA@ 0000000180028b70     libcpmt:winapinls.obj
 0002:00001b80       ??_C@_1M@BPCKOEGE@?$AAh?$AAr?$AA?9?$AAh?$AAr?$AA?$AA@ 0000000180028b80     libcpmt:winapinls.obj
 0002:00001b90       ??_C@_1M@GACBMHKE@?$AAh?$AAu?$AA?9?$AAh?$AAu?$AA?$AA@ 0000000180028b90     libcpmt:winapinls.obj
 0002:00001ba0       ??_C@_1M@MILPAJJC@?$AAh?$AAy?$AA?9?$AAa?$AAm?$AA?$AA@ 0000000180028ba0     libcpmt:winapinls.obj
 0002:00001bb0       ??_C@_1M@BABBICEC@?$AAi?$AAd?$AA?9?$AAi?$AAd?$AA?$AA@ 0000000180028bb0     libcpmt:winapinls.obj
 0002:00001bc0       ??_C@_1M@BIKNHHPF@?$AAi?$AAs?$AA?9?$AAi?$AAs?$AA?$AA@ 0000000180028bc0     libcpmt:winapinls.obj
 0002:00001bd0       ??_C@_1M@NMPCJPHE@?$AAi?$AAt?$AA?9?$AAc?$AAh?$AA?$AA@ 0000000180028bd0     libcpmt:winapinls.obj
 0002:00001be0       ??_C@_1M@GHKGFEDF@?$AAi?$AAt?$AA?9?$AAi?$AAt?$AA?$AA@ 0000000180028be0     libcpmt:winapinls.obj
 0002:00001bf0       ??_C@_1M@NIEJCJJA@?$AAj?$AAa?$AA?9?$AAj?$AAp?$AA?$AA@ 0000000180028bf0     libcpmt:winapinls.obj
 0002:00001c00       ??_C@_1M@JILFNBIM@?$AAk?$AAa?$AA?9?$AAg?$AAe?$AA?$AA@ 0000000180028c00     libcpmt:winapinls.obj
 0002:00001c10       ??_C@_1M@PACPMGPH@?$AAk?$AAk?$AA?9?$AAk?$AAz?$AA?$AA@ 0000000180028c10     libcpmt:winapinls.obj
 0002:00001c20       ??_C@_1M@IELFGMHA@?$AAk?$AAn?$AA?9?$AAi?$AAn?$AA?$AA@ 0000000180028c20     libcpmt:winapinls.obj
 0002:00001c30       ??_C@_1M@DMHAEOGC@?$AAk?$AAo?$AA?9?$AAk?$AAr?$AA?$AA@ 0000000180028c30     libcpmt:winapinls.obj
 0002:00001c40       ??_C@_1O@IBBJHCH@?$AAk?$AAo?$AAk?$AA?9?$AAi?$AAn?$AA?$AA@ 0000000180028c40     libcpmt:winapinls.obj
 0002:00001c50       ??_C@_1M@HBAHBIGA@?$AAk?$AAy?$AA?9?$AAk?$AAg?$AA?$AA@ 0000000180028c50     libcpmt:winapinls.obj
 0002:00001c60       ??_C@_1M@KPMILCJG@?$AAl?$AAt?$AA?9?$AAl?$AAt?$AA?$AA@ 0000000180028c60     libcpmt:winapinls.obj
 0002:00001c70       ??_C@_1M@BDEKKCA@?$AAl?$AAv?$AA?9?$AAl?$AAv?$AA?$AA@ 0000000180028c70     libcpmt:winapinls.obj
 0002:00001c80       ??_C@_1M@ELCKCCJJ@?$AAm?$AAi?$AA?9?$AAn?$AAz?$AA?$AA@ 0000000180028c80     libcpmt:winapinls.obj
 0002:00001c90       ??_C@_1M@CBOOLAPA@?$AAm?$AAk?$AA?9?$AAm?$AAk?$AA?$AA@ 0000000180028c90     libcpmt:winapinls.obj
 0002:00001ca0       ??_C@_1M@GPHNBJKN@?$AAm?$AAl?$AA?9?$AAi?$AAn?$AA?$AA@ 0000000180028ca0     libcpmt:winapinls.obj
 0002:00001cb0       ??_C@_1M@PABJILIG@?$AAm?$AAn?$AA?9?$AAm?$AAn?$AA?$AA@ 0000000180028cb0     libcpmt:winapinls.obj
 0002:00001cc0       ??_C@_1M@FGBKKIPG@?$AAm?$AAr?$AA?9?$AAi?$AAn?$AA?$AA@ 0000000180028cc0     libcpmt:winapinls.obj
 0002:00001cd0       ??_C@_1M@NDBPDDAL@?$AAm?$AAs?$AA?9?$AAb?$AAn?$AA?$AA@ 0000000180028cd0     libcpmt:winapinls.obj
 0002:00001ce0       ??_C@_1M@OPIHOOPI@?$AAm?$AAs?$AA?9?$AAm?$AAy?$AA?$AA@ 0000000180028ce0     libcpmt:winapinls.obj
 0002:00001cf0       ??_C@_1M@PPDBCNFM@?$AAm?$AAt?$AA?9?$AAm?$AAt?$AA?$AA@ 0000000180028cf0     libcpmt:winapinls.obj
 0002:00001d00       ??_C@_1M@KDJDKMDD@?$AAn?$AAb?$AA?9?$AAn?$AAo?$AA?$AA@ 0000000180028d00     libcpmt:winapinls.obj
 0002:00001d10       ??_C@_1M@KFCFLMJP@?$AAn?$AAl?$AA?9?$AAb?$AAe?$AA?$AA@ 0000000180028d10     libcpmt:winapinls.obj
 0002:00001d20       ??_C@_1M@KPOPDDGO@?$AAn?$AAl?$AA?9?$AAn?$AAl?$AA?$AA@ 0000000180028d20     libcpmt:winapinls.obj
 0002:00001d30       ??_C@_1M@LJKPEMLN@?$AAn?$AAn?$AA?9?$AAn?$AAo?$AA?$AA@ 0000000180028d30     libcpmt:winapinls.obj
 0002:00001d40       ??_C@_1M@BDGHHBFL@?$AAn?$AAs?$AA?9?$AAz?$AAa?$AA?$AA@ 0000000180028d40     libcpmt:winapinls.obj
 0002:00001d50       ??_C@_1M@IDEHOAP@?$AAp?$AAa?$AA?9?$AAi?$AAn?$AA?$AA@ 0000000180028d50     libcpmt:winapinls.obj
 0002:00001d60       ??_C@_1M@HDBKGOGH@?$AAp?$AAl?$AA?9?$AAp?$AAl?$AA?$AA@ 0000000180028d60     libcpmt:winapinls.obj
 0002:00001d70       ??_C@_1M@LJLLCMEH@?$AAp?$AAt?$AA?9?$AAb?$AAr?$AA?$AA@ 0000000180028d70     libcpmt:winapinls.obj
 0002:00001d80       ??_C@_1M@NCMONAAL@?$AAp?$AAt?$AA?9?$AAp?$AAt?$AA?$AA@ 0000000180028d80     libcpmt:winapinls.obj
 0002:00001d90       ??_C@_1O@EAKMAJDN@?$AAq?$AAu?$AAz?$AA?9?$AAb?$AAo?$AA?$AA@ 0000000180028d90     libcpmt:winapinls.obj
 0002:00001da0       ??_C@_1O@BHHPIGDN@?$AAq?$AAu?$AAz?$AA?9?$AAe?$AAc?$AA?$AA@ 0000000180028da0     libcpmt:winapinls.obj
 0002:00001db0       ??_C@_1O@GBAPEKMJ@?$AAq?$AAu?$AAz?$AA?9?$AAp?$AAe?$AA?$AA@ 0000000180028db0     libcpmt:winapinls.obj
 0002:00001dc0       ??_C@_1M@CLGLEFBO@?$AAr?$AAo?$AA?9?$AAr?$AAo?$AA?$AA@ 0000000180028dc0     libcpmt:winapinls.obj
 0002:00001dd0       ??_C@_1M@CEEDODME@?$AAr?$AAu?$AA?9?$AAr?$AAu?$AA?$AA@ 0000000180028dd0     libcpmt:winapinls.obj
 0002:00001de0       ??_C@_1M@HPKKKMPP@?$AAs?$AAa?$AA?9?$AAi?$AAn?$AA?$AA@ 0000000180028de0     libcpmt:winapinls.obj
 0002:00001df0       ??_C@_1M@BKMAIGOJ@?$AAs?$AAe?$AA?9?$AAf?$AAi?$AA?$AA@ 0000000180028df0     libcpmt:winapinls.obj
 0002:00001e00       ??_C@_1M@NDPIFLFI@?$AAs?$AAe?$AA?9?$AAn?$AAo?$AA?$AA@ 0000000180028e00     libcpmt:winapinls.obj
 0002:00001e10       ??_C@_1M@DANKKHJ@?$AAs?$AAe?$AA?9?$AAs?$AAe?$AA?$AA@ 0000000180028e10     libcpmt:winapinls.obj
 0002:00001e20       ??_C@_1M@PNBLONPJ@?$AAs?$AAk?$AA?9?$AAs?$AAk?$AA?$AA@ 0000000180028e20     libcpmt:winapinls.obj
 0002:00001e30       ??_C@_1M@LFMODOAL@?$AAs?$AAl?$AA?9?$AAs?$AAi?$AA?$AA@ 0000000180028e30     libcpmt:winapinls.obj
 0002:00001e40       ??_C@_1O@DFKOMPG@?$AAs?$AAm?$AAa?$AA?9?$AAn?$AAo?$AA?$AA@ 0000000180028e40     libcpmt:winapinls.obj
 0002:00001e50       ??_C@_1O@NDKPBNNH@?$AAs?$AAm?$AAa?$AA?9?$AAs?$AAe?$AA?$AA@ 0000000180028e50     libcpmt:winapinls.obj
 0002:00001e60       ??_C@_1O@PLLKBHAB@?$AAs?$AAm?$AAj?$AA?9?$AAn?$AAo?$AA?$AA@ 0000000180028e60     libcpmt:winapinls.obj
 0002:00001e70       ??_C@_1O@CLEPOGCA@?$AAs?$AAm?$AAj?$AA?9?$AAs?$AAe?$AA?$AA@ 0000000180028e70     libcpmt:winapinls.obj
 0002:00001e80       ??_C@_1O@DLGJGKMK@?$AAs?$AAm?$AAn?$AA?9?$AAf?$AAi?$AA?$AA@ 0000000180028e80     libcpmt:winapinls.obj
 0002:00001e90       ??_C@_1O@OJDJGAJC@?$AAs?$AAm?$AAs?$AA?9?$AAf?$AAi?$AA?$AA@ 0000000180028e90     libcpmt:winapinls.obj
 0002:00001ea0       ??_C@_1M@BOFOGHPB@?$AAs?$AAq?$AA?9?$AAa?$AAl?$AA?$AA@ 0000000180028ea0     libcpmt:winapinls.obj
 0002:00001eb0       ??_C@_1BG@LJBBIPGB@?$AAs?$AAr?$AA?9?$AAb?$AAa?$AA?9?$AAc?$AAy?$AAr?$AAl?$AA?$AA@ 0000000180028eb0     libcpmt:winapinls.obj
 0002:00001ec8       ??_C@_1BG@JLBENFOE@?$AAs?$AAr?$AA?9?$AAb?$AAa?$AA?9?$AAl?$AAa?$AAt?$AAn?$AA?$AA@ 0000000180028ec8     libcpmt:winapinls.obj
 0002:00001ee0       ??_C@_1BG@KODPNHE@?$AAs?$AAr?$AA?9?$AAs?$AAp?$AA?9?$AAc?$AAy?$AAr?$AAl?$AA?$AA@ 0000000180028ee0     libcpmt:winapinls.obj
 0002:00001ef8       ??_C@_1BG@CIOGKHPB@?$AAs?$AAr?$AA?9?$AAs?$AAp?$AA?9?$AAl?$AAa?$AAt?$AAn?$AA?$AA@ 0000000180028ef8     libcpmt:winapinls.obj
 0002:00001f10       ??_C@_1M@NGFJLMAC@?$AAs?$AAv?$AA?9?$AAf?$AAi?$AA?$AA@ 0000000180028f10     libcpmt:winapinls.obj
 0002:00001f20       ??_C@_1M@MPJEJAJC@?$AAs?$AAv?$AA?9?$AAs?$AAe?$AA?$AA@ 0000000180028f20     libcpmt:winapinls.obj
 0002:00001f30       ??_C@_1M@MPNDHLFK@?$AAs?$AAw?$AA?9?$AAk?$AAe?$AA?$AA@ 0000000180028f30     libcpmt:winapinls.obj
 0002:00001f40       ??_C@_1O@KOHBJJI@?$AAs?$AAy?$AAr?$AA?9?$AAs?$AAy?$AA?$AA@ 0000000180028f40     libcpmt:winapinls.obj
 0002:00001f50       ??_C@_1M@LDCEFHA@?$AAt?$AAa?$AA?9?$AAi?$AAn?$AA?$AA@ 0000000180028f50     libcpmt:winapinls.obj
 0002:00001f60       ??_C@_1M@CNJOFAK@?$AAt?$AAe?$AA?9?$AAi?$AAn?$AA?$AA@ 0000000180028f60     libcpmt:winapinls.obj
 0002:00001f70       ??_C@_1M@GNAECACD@?$AAt?$AAh?$AA?9?$AAt?$AAh?$AA?$AA@ 0000000180028f70     libcpmt:winapinls.obj
 0002:00001f80       ??_C@_1M@CHBIHOJO@?$AAt?$AAn?$AA?9?$AAz?$AAa?$AA?$AA@ 0000000180028f80     libcpmt:winapinls.obj
 0002:00001f90       ??_C@_1M@GCCMIGPJ@?$AAt?$AAr?$AA?9?$AAt?$AAr?$AA?$AA@ 0000000180028f90     libcpmt:winapinls.obj
 0002:00001fa0       ??_C@_1M@CELMCNBK@?$AAt?$AAt?$AA?9?$AAr?$AAu?$AA?$AA@ 0000000180028fa0     libcpmt:winapinls.obj
 0002:00001fb0       ??_C@_1M@KLMCELGA@?$AAu?$AAk?$AA?9?$AAu?$AAa?$AA?$AA@ 0000000180028fb0     libcpmt:winapinls.obj
 0002:00001fc0       ??_C@_1M@EPAJJAJF@?$AAu?$AAr?$AA?9?$AAp?$AAk?$AA?$AA@ 0000000180028fc0     libcpmt:winapinls.obj
 0002:00001fd0       ??_C@_1BG@GEGPMCDJ@?$AAu?$AAz?$AA?9?$AAu?$AAz?$AA?9?$AAc?$AAy?$AAr?$AAl?$AA?$AA@ 0000000180028fd0     libcpmt:winapinls.obj
 0002:00001fe8       ??_C@_1BG@EGGKJILM@?$AAu?$AAz?$AA?9?$AAu?$AAz?$AA?9?$AAl?$AAa?$AAt?$AAn?$AA?$AA@ 0000000180028fe8     libcpmt:winapinls.obj
 0002:00002000       ??_C@_1M@GFOCLFF@?$AAv?$AAi?$AA?9?$AAv?$AAn?$AA?$AA@ 0000000180029000     libcpmt:winapinls.obj
 0002:00002010       ??_C@_1M@CPAMEDFI@?$AAx?$AAh?$AA?9?$AAz?$AAa?$AA?$AA@ 0000000180029010     libcpmt:winapinls.obj
 0002:00002020       ??_C@_1O@EBKIFIGN@?$AAz?$AAh?$AA?9?$AAc?$AAh?$AAs?$AA?$AA@ 0000000180029020     libcpmt:winapinls.obj
 0002:00002030       ??_C@_1O@NMHPGANE@?$AAz?$AAh?$AA?9?$AAc?$AAh?$AAt?$AA?$AA@ 0000000180029030     libcpmt:winapinls.obj
 0002:00002040       ??_C@_1M@LPINJOMC@?$AAz?$AAh?$AA?9?$AAc?$AAn?$AA?$AA@ 0000000180029040     libcpmt:winapinls.obj
 0002:00002050       ??_C@_1M@OCJEJODD@?$AAz?$AAh?$AA?9?$AAh?$AAk?$AA?$AA@ 0000000180029050     libcpmt:winapinls.obj
 0002:00002060       ??_C@_1M@DNDLJINH@?$AAz?$AAh?$AA?9?$AAm?$AAo?$AA?$AA@ 0000000180029060     libcpmt:winapinls.obj
 0002:00002070       ??_C@_1M@MBFDNDND@?$AAz?$AAh?$AA?9?$AAs?$AAg?$AA?$AA@ 0000000180029070     libcpmt:winapinls.obj
 0002:00002080       ??_C@_1M@IMEPLEPE@?$AAz?$AAh?$AA?9?$AAt?$AAw?$AA?$AA@ 0000000180029080     libcpmt:winapinls.obj
 0002:00002090       ??_C@_1M@BBGHNHJP@?$AAz?$AAu?$AA?9?$AAz?$AAa?$AA?$AA@ 0000000180029090     libcpmt:winapinls.obj
 0002:00003d20       ??_C@_15EMKDOKLE@?$AAa?$AAr?$AA?$AA@ 000000018002ad20     libcpmt:winapinls.obj
 0002:00003d28       ??_C@_15KNPADPLH@?$AAb?$AAg?$AA?$AA@ 000000018002ad28     libcpmt:winapinls.obj
 0002:00003d30       ??_C@_15EDMHLDMO@?$AAc?$AAa?$AA?$AA@ 000000018002ad30     libcpmt:winapinls.obj
 0002:00003d38       ??_C@_1O@BPEAJADD@?$AAz?$AAh?$AA?9?$AAC?$AAH?$AAS?$AA?$AA@ 000000018002ad38     libcpmt:winapinls.obj
 0002:00003d48       ??_C@_15LJNHCMNK@?$AAc?$AAs?$AA?$AA@ 000000018002ad48     libcpmt:winapinls.obj
 0002:00003d50       ??_C@_15FOMCIDHG@?$AAd?$AAa?$AA?$AA@ 000000018002ad50     libcpmt:winapinls.obj
 0002:00003d58       ??_C@_15NBKABECB@?$AAd?$AAe?$AA?$AA@ 000000018002ad58     libcpmt:winapinls.obj
 0002:00003d60       ??_C@_15GHPEIIAO@?$AAe?$AAl?$AA?$AA@ 000000018002ad60     libcpmt:winapinls.obj
 0002:00003d68       ??_C@_15MNPNEAIF@?$AAe?$AAn?$AA?$AA@ 000000018002ad68     libcpmt:winapinls.obj
 0002:00003d70       ??_C@_15GPIOMPMH@?$AAe?$AAs?$AA?$AA@ 000000018002ad70     libcpmt:winapinls.obj
 0002:00003d78       ??_C@_15NGLOAKJC@?$AAf?$AAi?$AA?$AA@ 000000018002ad78     libcpmt:winapinls.obj
 0002:00003d80       ??_C@_15FBKGNKAM@?$AAf?$AAr?$AA?$AA@ 000000018002ad80     libcpmt:winapinls.obj
 0002:00003d88       ??_C@_15KGGCNEFK@?$AAh?$AAe?$AA?$AA@ 000000018002ad88     libcpmt:winapinls.obj
 0002:00003d90       ??_C@_15PGHLIDMF@?$AAh?$AAu?$AA?$AA@ 000000018002ad90     libcpmt:winapinls.obj
 0002:00003d98       ??_C@_15BIEMAPLM@?$AAi?$AAs?$AA?$AA@ 000000018002ad98     libcpmt:winapinls.obj
 0002:00003da0       ??_C@_15IFJLDHAF@?$AAi?$AAt?$AA?$AA@ 000000018002ada0     libcpmt:winapinls.obj
 0002:00003da8       ??_C@_15GEMIOCAG@?$AAj?$AAa?$AA?$AA@ 000000018002ada8     libcpmt:winapinls.obj
 0002:00003db0       ??_C@_15EPELEGJA@?$AAk?$AAo?$AA?$AA@ 000000018002adb0     libcpmt:winapinls.obj
 0002:00003db8       ??_C@_15NDDHIMN@?$AAn?$AAl?$AA?$AA@ 000000018002adb8     libcpmt:winapinls.obj
 0002:00003dc0       ??_C@_15BPIGNHCD@?$AAn?$AAo?$AA?$AA@ 000000018002adc0     libcpmt:winapinls.obj
 0002:00003dc8       ??_C@_15DEOPBLCG@?$AAp?$AAl?$AA?$AA@ 000000018002adc8     libcpmt:winapinls.obj
 0002:00003dd0       ??_C@_15KBECGEFG@?$AAp?$AAt?$AA?$AA@ 000000018002add0     libcpmt:winapinls.obj
 0002:00003dd8       ??_C@_15GLJCBFMD@?$AAr?$AAo?$AA?$AA@ 000000018002add8     libcpmt:winapinls.obj
 0002:00003de0       ??_C@_15FEDGKCDI@?$AAr?$AAu?$AA?$AA@ 000000018002ade0     libcpmt:winapinls.obj
 0002:00003de8       ??_C@_15GLKMLLHM@?$AAh?$AAr?$AA?$AA@ 000000018002ade8     libcpmt:winapinls.obj
 0002:00003df0       ??_C@_15CPKMFBDB@?$AAs?$AAk?$AA?$AA@ 000000018002adf0     libcpmt:winapinls.obj
 0002:00003df8       ??_C@_15BAAIOGMK@?$AAs?$AAq?$AA?$AA@ 000000018002adf8     libcpmt:winapinls.obj
 0002:00003e00       ??_C@_15INNPNOHD@?$AAs?$AAv?$AA?$AA@ 000000018002ae00     libcpmt:winapinls.obj
 0002:00003e08       ??_C@_15CABMMOGH@?$AAt?$AAh?$AA?$AA@ 000000018002ae08     libcpmt:winapinls.obj
 0002:00003e10       ??_C@_15BPLIHJJM@?$AAt?$AAr?$AA?$AA@ 000000018002ae10     libcpmt:winapinls.obj
 0002:00003e18       ??_C@_15NEOEKKDJ@?$AAu?$AAr?$AA?$AA@ 000000018002ae18     libcpmt:winapinls.obj
 0002:00003e20       ??_C@_15NFICGAJK@?$AAi?$AAd?$AA?$AA@ 000000018002ae20     libcpmt:winapinls.obj
 0002:00003e28       ??_C@_15PJPFLCCM@?$AAu?$AAk?$AA?$AA@ 000000018002ae28     libcpmt:winapinls.obj
 0002:00003e30       ??_C@_15HPJPHDM@?$AAb?$AAe?$AA?$AA@ 000000018002ae30     libcpmt:winapinls.obj
 0002:00003e38       ??_C@_15LCHLGJII@?$AAs?$AAl?$AA?$AA@ 000000018002ae38     libcpmt:winapinls.obj
 0002:00003e40       ??_C@_15PCFJPHHO@?$AAe?$AAt?$AA?$AA@ 000000018002ae40     libcpmt:winapinls.obj
 0002:00003e48       ??_C@_15HPFPGODN@?$AAl?$AAv?$AA?$AA@ 000000018002ae48     libcpmt:winapinls.obj
 0002:00003e50       ??_C@_15NFFGKGLG@?$AAl?$AAt?$AA?$AA@ 000000018002ae50     libcpmt:winapinls.obj
 0002:00003e58       ??_C@_15BDAKCCHN@?$AAf?$AAa?$AA?$AA@ 000000018002ae58     libcpmt:winapinls.obj
 0002:00003e60       ??_C@_15NFGIAIAJ@?$AAv?$AAi?$AA?$AA@ 000000018002ae60     libcpmt:winapinls.obj
 0002:00003e68       ??_C@_15LMKNDMHN@?$AAh?$AAy?$AA?$AA@ 000000018002ae68     libcpmt:winapinls.obj
 0002:00003e70       ??_C@_15IJBHMCFL@?$AAa?$AAz?$AA?$AA@ 000000018002ae70     libcpmt:winapinls.obj
 0002:00003e78       ??_C@_15EKOFJABL@?$AAe?$AAu?$AA?$AA@ 000000018002ae78     libcpmt:winapinls.obj
 0002:00003e80       ??_C@_15BGHADCNK@?$AAm?$AAk?$AA?$AA@ 000000018002ae80     libcpmt:winapinls.obj
 0002:00003e88       ??_C@_15JDNICKHM@?$AAa?$AAf?$AA?$AA@ 000000018002ae88     libcpmt:winapinls.obj
 0002:00003e90       ??_C@_15KPJEDBKD@?$AAk?$AAa?$AA?$AA@ 000000018002ae90     libcpmt:winapinls.obj
 0002:00003e98       ??_C@_15PDNFFFEO@?$AAf?$AAo?$AA?$AA@ 000000018002ae98     libcpmt:winapinls.obj
 0002:00003ea0       ??_C@_15OMLEGLOC@?$AAh?$AAi?$AA?$AA@ 000000018002aea0     libcpmt:winapinls.obj
 0002:00003ea8       ??_C@_15IDNNENKK@?$AAm?$AAs?$AA?$AA@ 000000018002aea8     libcpmt:winapinls.obj
 0002:00003eb0       ??_C@_15MACJNBMH@?$AAk?$AAk?$AA?$AA@ 000000018002aeb0     libcpmt:winapinls.obj
 0002:00003eb8       ??_C@_15DKDJEOND@?$AAk?$AAy?$AA?$AA@ 000000018002aeb8     libcpmt:winapinls.obj
 0002:00003ec0       ??_C@_15DFGDLJBG@?$AAs?$AAw?$AA?$AA@ 000000018002aec0     libcpmt:winapinls.obj
 0002:00003ec8       ??_C@_15BBFAICNG@?$AAu?$AAz?$AA?$AA@ 000000018002aec8     libcpmt:winapinls.obj
 0002:00003ed0       ??_C@_15DKNDCGEA@?$AAt?$AAt?$AA?$AA@ 000000018002aed0     libcpmt:winapinls.obj
 0002:00003ed8       ??_C@_15MGIFMDPL@?$AAp?$AAa?$AA?$AA@ 000000018002aed8     libcpmt:winapinls.obj
 0002:00003ee0       ??_C@_15HCNDBBA@?$AAg?$AAu?$AA?$AA@ 000000018002aee0     libcpmt:winapinls.obj
 0002:00003ee8       ??_C@_15FNBEIBON@?$AAt?$AAa?$AA?$AA@ 000000018002aee8     libcpmt:winapinls.obj
 0002:00003ef0       ??_C@_15NCHGBGLK@?$AAt?$AAe?$AA?$AA@ 000000018002aef0     libcpmt:winapinls.obj
 0002:00003ef8       ??_C@_15PHPHCBPF@?$AAk?$AAn?$AA?$AA@ 000000018002aef8     libcpmt:winapinls.obj
 0002:00003f00       ??_C@_15DLGBCKMP@?$AAm?$AAr?$AA?$AA@ 000000018002af00     libcpmt:winapinls.obj
 0002:00003f08       ??_C@_15EABBLBFF@?$AAs?$AAa?$AA?$AA@ 000000018002af08     libcpmt:winapinls.obj
 0002:00003f10       ??_C@_15CBKOMCOI@?$AAm?$AAn?$AA?$AA@ 000000018002af10     libcpmt:winapinls.obj
 0002:00003f18       ??_C@_15CKDMCJAF@?$AAg?$AAl?$AA?$AA@ 000000018002af18     libcpmt:winapinls.obj
 0002:00003f20       ??_C@_17CNJFBPG@?$AAk?$AAo?$AAk?$AA?$AA@ 000000018002af20     libcpmt:winapinls.obj
 0002:00003f28       ??_C@_17FFBJICPL@?$AAs?$AAy?$AAr?$AA?$AA@ 000000018002af28     libcpmt:winapinls.obj
 0002:00003f30       ??_C@_17KPNDCPAF@?$AAd?$AAi?$AAv?$AA?$AA@ 000000018002af30     libcpmt:winapinls.obj
 0002:00003f38       ??_C@_1M@OKAHONE@?$AAa?$AAr?$AA?9?$AAS?$AAA?$AA?$AA@ 000000018002af38     libcpmt:winapinls.obj
 0002:00003f48       ??_C@_1M@FFFIGIGK@?$AAb?$AAg?$AA?9?$AAB?$AAG?$AA?$AA@ 000000018002af48     libcpmt:winapinls.obj
 0002:00003f58       ??_C@_1M@BJNKEDC@?$AAc?$AAa?$AA?9?$AAE?$AAS?$AA?$AA@ 000000018002af58     libcpmt:winapinls.obj
 0002:00003f68       ??_C@_1M@CLNBBOPM@?$AAz?$AAh?$AA?9?$AAT?$AAW?$AA?$AA@ 000000018002af68     libcpmt:winapinls.obj
 0002:00003f78       ??_C@_1M@IJJHFJHA@?$AAc?$AAs?$AA?9?$AAC?$AAZ?$AA?$AA@ 000000018002af78     libcpmt:winapinls.obj
 0002:00003f88       ??_C@_1M@CLPEOBGI@?$AAd?$AAa?$AA?9?$AAD?$AAK?$AA?$AA@ 000000018002af88     libcpmt:winapinls.obj
 0002:00003f98       ??_C@_1M@MCMADGCB@?$AAd?$AAe?$AA?9?$AAD?$AAE?$AA?$AA@ 000000018002af98     libcpmt:winapinls.obj
 0002:00003fa8       ??_C@_1M@OOCKEMAM@?$AAe?$AAl?$AA?9?$AAG?$AAR?$AA?$AA@ 000000018002afa8     libcpmt:winapinls.obj
 0002:00003fb8       ??_C@_1M@BMHNFIME@?$AAe?$AAn?$AA?9?$AAU?$AAS?$AA?$AA@ 000000018002afb8     libcpmt:winapinls.obj
 0002:00003fc8       ??_C@_1M@DDNJFGID@?$AAf?$AAi?$AA?9?$AAF?$AAI?$AA?$AA@ 000000018002afc8     libcpmt:winapinls.obj
 0002:00003fd8       ??_C@_1M@GLIPPMAC@?$AAf?$AAr?$AA?9?$AAF?$AAR?$AA?$AA@ 000000018002afd8     libcpmt:winapinls.obj
 0002:00003fe8       ??_C@_1M@GFMCHPE@?$AAh?$AAe?$AA?9?$AAI?$AAL?$AA?$AA@ 000000018002afe8     libcpmt:winapinls.obj
 0002:00003ff8       ??_C@_1M@MHLPGNKM@?$AAh?$AAu?$AA?9?$AAH?$AAU?$AA?$AA@ 000000018002aff8     libcpmt:winapinls.obj
 0002:00004008       ??_C@_1M@LPDDNNPN@?$AAi?$AAs?$AA?9?$AAI?$AAS?$AA?$AA@ 000000018002b008     libcpmt:winapinls.obj
 0002:00004018       ??_C@_1M@MADIPODN@?$AAi?$AAt?$AA?9?$AAI?$AAT?$AA?$AA@ 000000018002b018     libcpmt:winapinls.obj
 0002:00004028       ??_C@_1M@HPNHIDJI@?$AAj?$AAa?$AA?9?$AAJ?$AAP?$AA?$AA@ 000000018002b028     libcpmt:winapinls.obj
 0002:00004038       ??_C@_1M@JLOOOEGK@?$AAk?$AAo?$AA?9?$AAK?$AAR?$AA?$AA@ 000000018002b038     libcpmt:winapinls.obj
 0002:00004048       ??_C@_1M@IHBJJGG@?$AAn?$AAl?$AA?9?$AAN?$AAL?$AA?$AA@ 000000018002b048     libcpmt:winapinls.obj
 0002:00004058       ??_C@_1M@EANAGDL@?$AAn?$AAb?$AA?9?$AAN?$AAO?$AA?$AA@ 000000018002b058     libcpmt:winapinls.obj
 0002:00004068       ??_C@_1M@NEIEMEGP@?$AAp?$AAl?$AA?9?$AAP?$AAL?$AA?$AA@ 000000018002b068     libcpmt:winapinls.obj
 0002:00004078       ??_C@_1M@BOCFIGEP@?$AAp?$AAt?$AA?9?$AAB?$AAR?$AA?$AA@ 000000018002b078     libcpmt:winapinls.obj
 0002:00004088       ??_C@_1M@IMPFOPBG@?$AAr?$AAo?$AA?9?$AAR?$AAO?$AA?$AA@ 000000018002b088     libcpmt:winapinls.obj
 0002:00004098       ??_C@_1M@IDNNEJMM@?$AAr?$AAu?$AA?9?$AAR?$AAU?$AA?$AA@ 000000018002b098     libcpmt:winapinls.obj
 0002:000040a8       ??_C@_1M@LILEEOGM@?$AAh?$AAr?$AA?9?$AAH?$AAR?$AA?$AA@ 000000018002b0a8     libcpmt:winapinls.obj
 0002:000040b8       ??_C@_1M@FKIFEHPB@?$AAs?$AAk?$AA?9?$AAS?$AAK?$AA?$AA@ 000000018002b0b8     libcpmt:winapinls.obj
 0002:000040c8       ??_C@_1M@LJMAMNPJ@?$AAs?$AAq?$AA?9?$AAA?$AAL?$AA?$AA@ 000000018002b0c8     libcpmt:winapinls.obj
 0002:000040d8       ??_C@_1M@GIAKDKJK@?$AAs?$AAv?$AA?9?$AAS?$AAE?$AA?$AA@ 000000018002b0d8     libcpmt:winapinls.obj
 0002:000040e8       ??_C@_1M@MKJKIKCL@?$AAt?$AAh?$AA?9?$AAT?$AAH?$AA?$AA@ 000000018002b0e8     libcpmt:winapinls.obj
 0002:000040f8       ??_C@_1M@MFLCCMPB@?$AAt?$AAr?$AA?9?$AAT?$AAR?$AA?$AA@ 000000018002b0f8     libcpmt:winapinls.obj
 0002:00004108       ??_C@_1M@OIJHDKJN@?$AAu?$AAr?$AA?9?$AAP?$AAK?$AA?$AA@ 000000018002b108     libcpmt:winapinls.obj
 0002:00004118       ??_C@_1M@LHIPCIEK@?$AAi?$AAd?$AA?9?$AAI?$AAD?$AA?$AA@ 000000018002b118     libcpmt:winapinls.obj
 0002:00004128       ??_C@_1M@MFMOBGI@?$AAu?$AAk?$AA?9?$AAU?$AAA?$AA?$AA@ 000000018002b128     libcpmt:winapinls.obj
 0002:00004138       ??_C@_1M@OBGLJIPL@?$AAb?$AAe?$AA?9?$AAB?$AAY?$AA?$AA@ 000000018002b138     libcpmt:winapinls.obj
 0002:00004148       ??_C@_1M@BCFAJEAD@?$AAs?$AAl?$AA?9?$AAS?$AAI?$AA?$AA@ 000000018002b148     libcpmt:winapinls.obj
 0002:00004158       ??_C@_1M@FKFFEDDN@?$AAe?$AAt?$AA?9?$AAE?$AAE?$AA?$AA@ 000000018002b158     libcpmt:winapinls.obj
 0002:00004168       ??_C@_1M@KGKKAACI@?$AAl?$AAv?$AA?9?$AAL?$AAV?$AA?$AA@ 000000018002b168     libcpmt:winapinls.obj
 0002:00004178       ??_C@_1M@IFGBIJO@?$AAl?$AAt?$AA?9?$AAL?$AAT?$AA?$AA@ 000000018002b178     libcpmt:winapinls.obj
 0002:00004188       ??_C@_1M@FGEAHEDM@?$AAf?$AAa?$AA?9?$AAI?$AAR?$AA?$AA@ 000000018002b188     libcpmt:winapinls.obj
 0002:00004198       ??_C@_1M@KBMAIBFN@?$AAv?$AAi?$AA?9?$AAV?$AAN?$AA?$AA@ 000000018002b198     libcpmt:winapinls.obj
 0002:000041a8       ??_C@_1M@GPCBKDJK@?$AAh?$AAy?$AA?9?$AAA?$AAM?$AA?$AA@ 000000018002b1a8     libcpmt:winapinls.obj
 0002:000041b8       ??_C@_1BG@BECMDDJB@?$AAa?$AAz?$AA?9?$AAA?$AAZ?$AA?9?$AAL?$AAa?$AAt?$AAn?$AA?$AA@ 000000018002b1b8     libcpmt:winapinls.obj
 0002:000041d0       ??_C@_1M@MAOFCAEA@?$AAe?$AAu?$AA?9?$AAE?$AAS?$AA?$AA@ 000000018002b1d0     libcpmt:winapinls.obj
 0002:000041e0       ??_C@_1M@IGHABKPI@?$AAm?$AAk?$AA?9?$AAM?$AAK?$AA?$AA@ 000000018002b1e0     libcpmt:winapinls.obj
 0002:000041f0       ??_C@_1M@IAIGNEJG@?$AAt?$AAn?$AA?9?$AAZ?$AAA?$AA?$AA@ 000000018002b1f0     libcpmt:winapinls.obj
 0002:00004200       ??_C@_1M@IIJCOJFA@?$AAx?$AAh?$AA?9?$AAZ?$AAA?$AA?$AA@ 000000018002b200     libcpmt:winapinls.obj
 0002:00004210       ??_C@_1M@LGPJHNJH@?$AAz?$AAu?$AA?9?$AAZ?$AAA?$AA?$AA@ 000000018002b210     libcpmt:winapinls.obj
 0002:00004220       ??_C@_1M@HOKAOIO@?$AAa?$AAf?$AA?9?$AAZ?$AAA?$AA?$AA@ 000000018002b220     libcpmt:winapinls.obj
 0002:00004230       ??_C@_1M@DPCLHLIE@?$AAk?$AAa?$AA?9?$AAG?$AAE?$AA?$AA@ 000000018002b230     libcpmt:winapinls.obj
 0002:00004240       ??_C@_1M@BLKMHJBI@?$AAf?$AAo?$AA?9?$AAF?$AAO?$AA?$AA@ 000000018002b240     libcpmt:winapinls.obj
 0002:00004250       ??_C@_1M@LGGJAPPB@?$AAh?$AAi?$AA?9?$AAI?$AAN?$AA?$AA@ 000000018002b250     libcpmt:winapinls.obj
 0002:00004260       ??_C@_1M@FIKPIHFE@?$AAm?$AAt?$AA?9?$AAM?$AAT?$AA?$AA@ 000000018002b260     libcpmt:winapinls.obj
 0002:00004270       ??_C@_1M@HEGGPBFA@?$AAs?$AAe?$AA?9?$AAN?$AAO?$AA?$AA@ 000000018002b270     libcpmt:winapinls.obj
 0002:00004280       ??_C@_1M@EIBJEEPA@?$AAm?$AAs?$AA?9?$AAM?$AAY?$AA?$AA@ 000000018002b280     libcpmt:winapinls.obj
 0002:00004290       ??_C@_1M@FHLBGMPP@?$AAk?$AAk?$AA?9?$AAK?$AAZ?$AA?$AA@ 000000018002b290     libcpmt:winapinls.obj
 0002:000042a0       ??_C@_1M@NGJJLCGI@?$AAk?$AAy?$AA?9?$AAK?$AAG?$AA?$AA@ 000000018002b2a0     libcpmt:winapinls.obj
 0002:000042b0       ??_C@_1M@GIENNBFC@?$AAs?$AAw?$AA?9?$AAK?$AAE?$AA?$AA@ 000000018002b2b0     libcpmt:winapinls.obj
 0002:000042c0       ??_C@_1BG@NDGMJIMJ@?$AAu?$AAz?$AA?9?$AAU?$AAZ?$AA?9?$AAL?$AAa?$AAt?$AAn?$AA?$AA@ 000000018002b2c0     libcpmt:winapinls.obj
 0002:000042d8       ??_C@_1M@IDCCIHBC@?$AAt?$AAt?$AA?9?$AAR?$AAU?$AA?$AA@ 000000018002b2d8     libcpmt:winapinls.obj
 0002:000042e8       ??_C@_1M@LOICPMOJ@?$AAb?$AAn?$AA?9?$AAI?$AAN?$AA?$AA@ 000000018002b2e8     libcpmt:winapinls.obj
 0002:000042f8       ??_C@_1M@KPKKNEAH@?$AAp?$AAa?$AA?9?$AAI?$AAN?$AA?$AA@ 000000018002b2f8     libcpmt:winapinls.obj
 0002:00004308       ??_C@_1M@PJGPPBOG@?$AAg?$AAu?$AA?9?$AAI?$AAN?$AA?$AA@ 000000018002b308     libcpmt:winapinls.obj
 0002:00004318       ??_C@_1M@KMKMOPHI@?$AAt?$AAa?$AA?9?$AAI?$AAN?$AA?$AA@ 000000018002b318     libcpmt:winapinls.obj
 0002:00004328       ??_C@_1M@KFEHEPAC@?$AAt?$AAe?$AA?9?$AAI?$AAN?$AA?$AA@ 000000018002b328     libcpmt:winapinls.obj
 0002:00004338       ??_C@_1M@CDCLMGHI@?$AAk?$AAn?$AA?9?$AAI?$AAN?$AA?$AA@ 000000018002b338     libcpmt:winapinls.obj
 0002:00004348       ??_C@_1M@MIODLDKF@?$AAm?$AAl?$AA?9?$AAI?$AAN?$AA?$AA@ 000000018002b348     libcpmt:winapinls.obj
 0002:00004358       ??_C@_1M@PBIEACPO@?$AAm?$AAr?$AA?9?$AAI?$AAN?$AA?$AA@ 000000018002b358     libcpmt:winapinls.obj
 0002:00004368       ??_C@_1M@NIDEAGPH@?$AAs?$AAa?$AA?9?$AAI?$AAN?$AA?$AA@ 000000018002b368     libcpmt:winapinls.obj
 0002:00004378       ??_C@_1M@FHIHCBIO@?$AAm?$AAn?$AA?9?$AAM?$AAN?$AA?$AA@ 000000018002b378     libcpmt:winapinls.obj
 0002:00004388       ??_C@_1M@JAIJPENP@?$AAc?$AAy?$AA?9?$AAG?$AAB?$AA?$AA@ 000000018002b388     libcpmt:winapinls.obj
 0002:00004398       ??_C@_1M@PHGFBEPN@?$AAg?$AAl?$AA?9?$AAE?$AAS?$AA?$AA@ 000000018002b398     libcpmt:winapinls.obj
 0002:000043a8       ??_C@_1O@KPIPDNCP@?$AAk?$AAo?$AAk?$AA?9?$AAI?$AAN?$AA?$AA@ 000000018002b3a8     libcpmt:winapinls.obj
 0002:000043b8       ??_C@_1O@KNHJLDJA@?$AAs?$AAy?$AAr?$AA?9?$AAS?$AAY?$AA?$AA@ 000000018002b3b8     libcpmt:winapinls.obj
 0002:000043c8       ??_C@_1O@MKEKBLAH@?$AAd?$AAi?$AAv?$AA?9?$AAM?$AAV?$AA?$AA@ 000000018002b3c8     libcpmt:winapinls.obj
 0002:000043d8       ??_C@_1O@OHDCKDDF@?$AAq?$AAu?$AAz?$AA?9?$AAB?$AAO?$AA?$AA@ 000000018002b3d8     libcpmt:winapinls.obj
 0002:000043e8       ??_C@_1M@LEPJNLFD@?$AAn?$AAs?$AA?9?$AAZ?$AAA?$AA?$AA@ 000000018002b3e8     libcpmt:winapinls.obj
 0002:000043f8       ??_C@_1M@OMLEIIJB@?$AAm?$AAi?$AA?9?$AAN?$AAZ?$AA?$AA@ 000000018002b3f8     libcpmt:winapinls.obj
 0002:00004408       ??_C@_1M@PMPEAILG@?$AAa?$AAr?$AA?9?$AAI?$AAQ?$AA?$AA@ 000000018002b408     libcpmt:winapinls.obj
 0002:00004418       ??_C@_1M@BIBDDEMK@?$AAz?$AAh?$AA?9?$AAC?$AAN?$AA?$AA@ 000000018002b418     libcpmt:winapinls.obj
 0002:00004428       ??_C@_1M@CNKPNOEE@?$AAd?$AAe?$AA?9?$AAC?$AAH?$AA?$AA@ 000000018002b428     libcpmt:winapinls.obj
 0002:00004438       ??_C@_1M@LKMGMLKO@?$AAe?$AAn?$AA?9?$AAG?$AAB?$AA?$AA@ 000000018002b438     libcpmt:winapinls.obj
 0002:00004448       ??_C@_1M@PGKJFFGL@?$AAe?$AAs?$AA?9?$AAM?$AAX?$AA?$AA@ 000000018002b448     libcpmt:winapinls.obj
 0002:00004458       ??_C@_1M@DNNANBDC@?$AAf?$AAr?$AA?9?$AAB?$AAE?$AA?$AA@ 000000018002b458     libcpmt:winapinls.obj
 0002:00004468       ??_C@_1M@HLGMDFHM@?$AAi?$AAt?$AA?9?$AAC?$AAH?$AA?$AA@ 000000018002b468     libcpmt:winapinls.obj
 0002:00004478       ??_C@_1M@CLLBGJH@?$AAn?$AAl?$AA?9?$AAB?$AAE?$AA?$AA@ 000000018002b478     libcpmt:winapinls.obj
 0002:00004488       ??_C@_1M@BODBOGLF@?$AAn?$AAn?$AA?9?$AAN?$AAO?$AA?$AA@ 000000018002b488     libcpmt:winapinls.obj
 0002:00004498       ??_C@_1M@HFFAHKAD@?$AAp?$AAt?$AA?9?$AAP?$AAT?$AA?$AA@ 000000018002b498     libcpmt:winapinls.obj
 0002:000044a8       ??_C@_1BG@LNOAKHIE@?$AAs?$AAr?$AA?9?$AAS?$AAP?$AA?9?$AAL?$AAa?$AAt?$AAn?$AA?$AA@ 000000018002b4a8     libcpmt:winapinls.obj
 0002:000044c0       ??_C@_1M@HBMHBGAK@?$AAs?$AAv?$AA?9?$AAF?$AAI?$AA?$AA@ 000000018002b4c0     libcpmt:winapinls.obj
 0002:000044d0       ??_C@_1BG@DGCJGJBE@?$AAa?$AAz?$AA?9?$AAA?$AAZ?$AA?9?$AAC?$AAy?$AAr?$AAl?$AA?$AA@ 000000018002b4d0     libcpmt:winapinls.obj
 0002:000044e8       ??_C@_1M@KEJDAAHB@?$AAs?$AAe?$AA?9?$AAS?$AAE?$AA?$AA@ 000000018002b4e8     libcpmt:winapinls.obj
 0002:000044f8       ??_C@_1M@HEIBJJAD@?$AAm?$AAs?$AA?9?$AAB?$AAN?$AA?$AA@ 000000018002b4f8     libcpmt:winapinls.obj
 0002:00004508       ??_C@_1BG@PBGJMCEM@?$AAu?$AAz?$AA?9?$AAU?$AAZ?$AA?9?$AAC?$AAy?$AAr?$AAl?$AA?$AA@ 000000018002b508     libcpmt:winapinls.obj
 0002:00004520       ??_C@_1O@LAOBCMDF@?$AAq?$AAu?$AAz?$AA?9?$AAE?$AAC?$AA?$AA@ 000000018002b520     libcpmt:winapinls.obj
 0002:00004530       ??_C@_1M@POEEMAIO@?$AAa?$AAr?$AA?9?$AAE?$AAG?$AA?$AA@ 000000018002b530     libcpmt:winapinls.obj
 0002:00004540       ??_C@_1M@EFAKDEDL@?$AAz?$AAh?$AA?9?$AAH?$AAK?$AA?$AA@ 000000018002b540     libcpmt:winapinls.obj
 0002:00004550       ??_C@_1M@HKKIJHGI@?$AAd?$AAe?$AA?9?$AAA?$AAT?$AA?$AA@ 000000018002b550     libcpmt:winapinls.obj
 0002:00004560       ??_C@_1M@KBFBEHJF@?$AAe?$AAn?$AA?9?$AAA?$AAU?$AA?$AA@ 000000018002b560     libcpmt:winapinls.obj
 0002:00004570       ??_C@_1M@MNPLFAAH@?$AAe?$AAs?$AA?9?$AAE?$AAS?$AA?$AA@ 000000018002b570     libcpmt:winapinls.obj
 0002:00004580       ??_C@_1M@HJOOJFMA@?$AAf?$AAr?$AA?9?$AAC?$AAA?$AA?$AA@ 000000018002b580     libcpmt:winapinls.obj
 0002:00004590       ??_C@_1BG@JPOFPNAB@?$AAs?$AAr?$AA?9?$AAS?$AAP?$AA?9?$AAC?$AAy?$AAr?$AAl?$AA?$AA@ 000000018002b590     libcpmt:winapinls.obj
 0002:000045a8       ??_C@_1M@LNFOCMOB@?$AAs?$AAe?$AA?9?$AAF?$AAI?$AA?$AA@ 000000018002b5a8     libcpmt:winapinls.obj
 0002:000045b8       ??_C@_1O@MGJBOAMB@?$AAq?$AAu?$AAz?$AA?9?$AAP?$AAE?$AA?$AA@ 000000018002b5b8     libcpmt:winapinls.obj
 0002:000045c8       ??_C@_1M@GJINLBOK@?$AAa?$AAr?$AA?9?$AAL?$AAY?$AA?$AA@ 000000018002b5c8     libcpmt:winapinls.obj
 0002:000045d8       ??_C@_1M@GGMNHJNL@?$AAz?$AAh?$AA?9?$AAS?$AAG?$AA?$AA@ 000000018002b5d8     libcpmt:winapinls.obj
 0002:000045e8       ??_C@_1M@HOIKODND@?$AAd?$AAe?$AA?9?$AAL?$AAU?$AA?$AA@ 000000018002b5e8     libcpmt:winapinls.obj
 0002:000045f8       ??_C@_1M@DDOCCGFG@?$AAe?$AAn?$AA?9?$AAC?$AAA?$AA?$AA@ 000000018002b5f8     libcpmt:winapinls.obj
 0002:00004608       ??_C@_1M@BNOEMJLF@?$AAe?$AAs?$AA?9?$AAG?$AAT?$AA?$AA@ 000000018002b608     libcpmt:winapinls.obj
 0002:00004618       ??_C@_1M@EOGNKEK@?$AAf?$AAr?$AA?9?$AAC?$AAH?$AA?$AA@ 000000018002b618     libcpmt:winapinls.obj
 0002:00004628       ??_C@_1M@FLIDJFHL@?$AAh?$AAr?$AA?9?$AAB?$AAA?$AA?$AA@ 000000018002b628     libcpmt:winapinls.obj
 0002:00004638       ??_C@_1O@FMCELNAJ@?$AAs?$AAm?$AAj?$AA?9?$AAN?$AAO?$AA?$AA@ 000000018002b638     libcpmt:winapinls.obj
 0002:00004648       ??_C@_1M@JHGLJMGJ@?$AAa?$AAr?$AA?9?$AAD?$AAZ?$AA?$AA@ 000000018002b648     libcpmt:winapinls.obj
 0002:00004658       ??_C@_1M@JKKFDCNP@?$AAz?$AAh?$AA?9?$AAM?$AAO?$AA?$AA@ 000000018002b658     libcpmt:winapinls.obj
 0002:00004668       ??_C@_1M@GEEFALPE@?$AAd?$AAe?$AA?9?$AAL?$AAI?$AA?$AA@ 000000018002b668     libcpmt:winapinls.obj
 0002:00004678       ??_C@_1M@IGEOFBG@?$AAe?$AAn?$AA?9?$AAN?$AAZ?$AA?$AA@ 000000018002b678     libcpmt:winapinls.obj
 0002:00004688       ??_C@_1M@KDBONEHP@?$AAe?$AAs?$AA?9?$AAC?$AAR?$AA?$AA@ 000000018002b688     libcpmt:winapinls.obj
 0002:00004698       ??_C@_1M@FHMDOHNN@?$AAf?$AAr?$AA?9?$AAL?$AAU?$AA?$AA@ 000000018002b698     libcpmt:winapinls.obj
 0002:000046a8       ??_C@_1BG@NFKKMAFG@?$AAb?$AAs?$AA?9?$AAB?$AAA?$AA?9?$AAL?$AAa?$AAt?$AAn?$AA?$AA@ 000000018002b6a8     libcpmt:winapinls.obj
 0002:000046c0       ??_C@_1O@IMNBEMCI@?$AAs?$AAm?$AAj?$AA?9?$AAS?$AAE?$AA?$AA@ 000000018002b6c0     libcpmt:winapinls.obj
 0002:000046d0       ??_C@_1M@DHHMBNDP@?$AAa?$AAr?$AA?9?$AAM?$AAA?$AA?$AA@ 000000018002b6d0     libcpmt:winapinls.obj
 0002:000046e0       ??_C@_1M@BNBLJCGH@?$AAe?$AAn?$AA?9?$AAI?$AAE?$AA?$AA@ 000000018002b6e0     libcpmt:winapinls.obj
 0002:000046f0       ??_C@_1M@GEPAFMDL@?$AAe?$AAs?$AA?9?$AAP?$AAA?$AA?$AA@ 000000018002b6f0     libcpmt:winapinls.obj
 0002:00004700       ??_C@_1M@OJONDMDL@?$AAf?$AAr?$AA?9?$AAM?$AAC?$AA?$AA@ 000000018002b700     libcpmt:winapinls.obj
 0002:00004710       ??_C@_1BG@OBCNFJB@?$AAs?$AAr?$AA?9?$AAB?$AAA?$AA?9?$AAL?$AAa?$AAt?$AAn?$AA?$AA@ 000000018002b710     libcpmt:winapinls.obj
 0002:00004728       ??_C@_1O@KEMEEGPO@?$AAs?$AAm?$AAa?$AA?9?$AAN?$AAO?$AA?$AA@ 000000018002b728     libcpmt:winapinls.obj
 0002:00004738       ??_C@_1M@ELMGFODK@?$AAa?$AAr?$AA?9?$AAT?$AAN?$AA?$AA@ 000000018002b738     libcpmt:winapinls.obj
 0002:00004748       ??_C@_1M@BHDLHFAF@?$AAe?$AAn?$AA?9?$AAZ?$AAA?$AA?$AA@ 000000018002b748     libcpmt:winapinls.obj
 0002:00004758       ??_C@_1M@BMGIGLIF@?$AAe?$AAs?$AA?9?$AAD?$AAO?$AA?$AA@ 000000018002b758     libcpmt:winapinls.obj
 0002:00004768       ??_C@_1BG@CMBHIPBE@?$AAs?$AAr?$AA?9?$AAB?$AAA?$AA?9?$AAC?$AAy?$AAr?$AAl?$AA?$AA@ 000000018002b768     libcpmt:winapinls.obj
 0002:00004780       ??_C@_1O@HEDBLHNP@?$AAs?$AAm?$AAa?$AA?9?$AAS?$AAE?$AA?$AA@ 000000018002b780     libcpmt:winapinls.obj
 0002:00004790       ??_C@_1M@DAGCADIM@?$AAa?$AAr?$AA?9?$AAO?$AAM?$AA?$AA@ 000000018002b790     libcpmt:winapinls.obj
 0002:000047a0       ??_C@_1M@FODLMICG@?$AAe?$AAn?$AA?9?$AAJ?$AAM?$AA?$AA@ 000000018002b7a0     libcpmt:winapinls.obj
 0002:000047b0       ??_C@_1M@DNMLCIHB@?$AAe?$AAs?$AA?9?$AAV?$AAE?$AA?$AA@ 000000018002b7b0     libcpmt:winapinls.obj
 0002:000047c0       ??_C@_1O@EOKHMKJK@?$AAs?$AAm?$AAs?$AA?9?$AAF?$AAI?$AA?$AA@ 000000018002b7c0     libcpmt:winapinls.obj
 0002:000047d0       ??_C@_1M@CAFJMKOF@?$AAa?$AAr?$AA?9?$AAY?$AAE?$AA?$AA@ 000000018002b7d0     libcpmt:winapinls.obj
 0002:000047e0       ??_C@_1M@CBFHIJLI@?$AAe?$AAn?$AA?9?$AAC?$AAB?$AA?$AA@ 000000018002b7e0     libcpmt:winapinls.obj
 0002:000047f0       ??_C@_1M@BGNFLDN@?$AAe?$AAs?$AA?9?$AAC?$AAO?$AA?$AA@ 000000018002b7f0     libcpmt:winapinls.obj
 0002:00004800       ??_C@_1O@JMPHMAMC@?$AAs?$AAm?$AAn?$AA?9?$AAF?$AAI?$AA?$AA@ 000000018002b800     libcpmt:winapinls.obj
 0002:00004810       ??_C@_1M@JLANABKE@?$AAa?$AAr?$AA?9?$AAS?$AAY?$AA?$AA@ 000000018002b810     libcpmt:winapinls.obj
 0002:00004820       ??_C@_1M@HPKGCFGN@?$AAe?$AAn?$AA?9?$AAB?$AAZ?$AA?$AA@ 000000018002b820     libcpmt:winapinls.obj
 0002:00004830       ??_C@_1M@OLJCMLGM@?$AAe?$AAs?$AA?9?$AAP?$AAE?$AA?$AA@ 000000018002b830     libcpmt:winapinls.obj
 0002:00004840       ??_C@_1M@MKKGFKLE@?$AAa?$AAr?$AA?9?$AAJ?$AAO?$AA?$AA@ 000000018002b840     libcpmt:winapinls.obj
 0002:00004850       ??_C@_1M@EKPGLDNI@?$AAe?$AAn?$AA?9?$AAT?$AAT?$AA?$AA@ 000000018002b850     libcpmt:winapinls.obj
 0002:00004860       ??_C@_1M@OONGHFHE@?$AAe?$AAs?$AA?9?$AAA?$AAR?$AA?$AA@ 000000018002b860     libcpmt:winapinls.obj
 0002:00004870       ??_C@_1M@OOJFGBHE@?$AAa?$AAr?$AA?9?$AAL?$AAB?$AA?$AA@ 000000018002b870     libcpmt:winapinls.obj
 0002:00004880       ??_C@_1M@GCEJHNEG@?$AAe?$AAn?$AA?9?$AAZ?$AAW?$AA?$AA@ 000000018002b880     libcpmt:winapinls.obj
 0002:00004890       ??_C@_1M@JNOCAHJI@?$AAe?$AAs?$AA?9?$AAE?$AAC?$AA?$AA@ 000000018002b890     libcpmt:winapinls.obj
 0002:000048a0       ??_C@_1M@JEFHPGGB@?$AAa?$AAr?$AA?9?$AAK?$AAW?$AA?$AA@ 000000018002b8a0     libcpmt:winapinls.obj
 0002:000048b0       ??_C@_1M@MLKIBJOJ@?$AAe?$AAn?$AA?9?$AAP?$AAH?$AA?$AA@ 000000018002b8b0     libcpmt:winapinls.obj
 0002:000048c0       ??_C@_1M@BDNIPEND@?$AAe?$AAs?$AA?9?$AAC?$AAL?$AA?$AA@ 000000018002b8c0     libcpmt:winapinls.obj
 0002:000048d0       ??_C@_1M@MPNMEKBD@?$AAa?$AAr?$AA?9?$AAA?$AAE?$AA?$AA@ 000000018002b8d0     libcpmt:winapinls.obj
 0002:000048e0       ??_C@_1M@KBJALCPI@?$AAe?$AAs?$AA?9?$AAU?$AAY?$AA?$AA@ 000000018002b8e0     libcpmt:winapinls.obj
 0002:000048f0       ??_C@_1M@LLCCOAGA@?$AAa?$AAr?$AA?9?$AAB?$AAH?$AA?$AA@ 000000018002b8f0     libcpmt:winapinls.obj
 0002:00004900       ??_C@_1M@PBFNCDEL@?$AAe?$AAs?$AA?9?$AAP?$AAY?$AA?$AA@ 000000018002b900     libcpmt:winapinls.obj
 0002:00004910       ??_C@_1M@EDGINPNP@?$AAa?$AAr?$AA?9?$AAQ?$AAA?$AA?$AA@ 000000018002b910     libcpmt:winapinls.obj
 0002:00004920       ??_C@_1M@MKDBIIJI@?$AAe?$AAs?$AA?9?$AAB?$AAO?$AA?$AA@ 000000018002b920     libcpmt:winapinls.obj
 0002:00004930       ??_C@_1M@CPKKEBLD@?$AAe?$AAs?$AA?9?$AAS?$AAV?$AA?$AA@ 000000018002b930     libcpmt:winapinls.obj
 0002:00004940       ??_C@_1M@NDBGMMJL@?$AAe?$AAs?$AA?9?$AAH?$AAN?$AA?$AA@ 000000018002b940     libcpmt:winapinls.obj
 0002:00004950       ??_C@_1M@JIJIBHDP@?$AAe?$AAs?$AA?9?$AAN?$AAI?$AA?$AA@ 000000018002b950     libcpmt:winapinls.obj
 0002:00004960       ??_C@_1M@CGFMKEEK@?$AAe?$AAs?$AA?9?$AAP?$AAR?$AA?$AA@ 000000018002b960     libcpmt:winapinls.obj
 0002:00004970       ??_C@_1O@ICJHKIIK@?$AAz?$AAh?$AA?9?$AAC?$AAH?$AAT?$AA?$AA@ 000000018002b970     libcpmt:winapinls.obj
 0002:00004980       ??_C@_15CLNEJCE@?$AAs?$AAr?$AA?$AA@ 000000018002b980     libcpmt:winapinls.obj
 0002:00004988       ??_C@_1M@KAHEKEIG@?$AAa?$AAf?$AA?9?$AAz?$AAa?$AA?$AA@ 000000018002b988     libcpmt:winapinls.obj
 0002:00004998       ??_C@_1M@GIECOABL@?$AAa?$AAr?$AA?9?$AAa?$AAe?$AA?$AA@ 000000018002b998     libcpmt:winapinls.obj
 0002:000049a8       ??_C@_1M@BMLMEKGI@?$AAa?$AAr?$AA?9?$AAb?$AAh?$AA?$AA@ 000000018002b9a8     libcpmt:winapinls.obj
 0002:000049b8       ??_C@_1M@DAPFDGGB@?$AAa?$AAr?$AA?9?$AAd?$AAz?$AA?$AA@ 000000018002b9b8     libcpmt:winapinls.obj
 0002:000049c8       ??_C@_1M@FJNKGKIG@?$AAa?$AAr?$AA?9?$AAe?$AAg?$AA?$AA@ 000000018002b9c8     libcpmt:winapinls.obj
 0002:000049d8       ??_C@_1M@FLGKKCLO@?$AAa?$AAr?$AA?9?$AAi?$AAq?$AA?$AA@ 000000018002b9d8     libcpmt:winapinls.obj
 0002:000049e8       ??_C@_1M@GNDIPALM@?$AAa?$AAr?$AA?9?$AAj?$AAo?$AA?$AA@ 000000018002b9e8     libcpmt:winapinls.obj
 0002:000049f8       ??_C@_1M@DDMJFMGJ@?$AAa?$AAr?$AA?9?$AAk?$AAw?$AA?$AA@ 000000018002b9f8     libcpmt:winapinls.obj
 0002:00004a08       ??_C@_1M@EJALMLHM@?$AAa?$AAr?$AA?9?$AAl?$AAb?$AA?$AA@ 000000018002ba08     libcpmt:winapinls.obj
 0002:00004a18       ??_C@_1M@MOBDBLOC@?$AAa?$AAr?$AA?9?$AAl?$AAy?$AA?$AA@ 000000018002ba18     libcpmt:winapinls.obj
 0002:00004a28       ??_C@_1M@JAOCLHDH@?$AAa?$AAr?$AA?9?$AAm?$AAa?$AA?$AA@ 000000018002ba28     libcpmt:winapinls.obj
 0002:00004a38       ??_C@_1M@JHPMKJIE@?$AAa?$AAr?$AA?9?$AAo?$AAm?$AA?$AA@ 000000018002ba38     libcpmt:winapinls.obj
 0002:00004a48       ??_C@_1M@OEPGHFNH@?$AAa?$AAr?$AA?9?$AAq?$AAa?$AA?$AA@ 000000018002ba48     libcpmt:winapinls.obj
 0002:00004a58       ??_C@_1M@KJDONENM@?$AAa?$AAr?$AA?9?$AAs?$AAa?$AA?$AA@ 000000018002ba58     libcpmt:winapinls.obj
 0002:00004a68       ??_C@_1M@DMJDKLKM@?$AAa?$AAr?$AA?9?$AAs?$AAy?$AA?$AA@ 000000018002ba68     libcpmt:winapinls.obj
 0002:00004a78       ??_C@_1M@OMFIPEDC@?$AAa?$AAr?$AA?9?$AAt?$AAn?$AA?$AA@ 000000018002ba78     libcpmt:winapinls.obj
 0002:00004a88       ??_C@_1M@IHMHGAON@?$AAa?$AAr?$AA?9?$AAy?$AAe?$AA?$AA@ 000000018002ba88     libcpmt:winapinls.obj
 0002:00004a98       ??_C@_1BG@KDCPGJGB@?$AAa?$AAz?$AA?9?$AAa?$AAz?$AA?9?$AAc?$AAy?$AAr?$AAl?$AA?$AA@ 000000018002ba98     libcpmt:winapinls.obj
 0002:00004ab0       ??_C@_1BG@IBCKDDOE@?$AAa?$AAz?$AA?9?$AAa?$AAz?$AA?9?$AAl?$AAa?$AAt?$AAn?$AA?$AA@ 000000018002bab0     libcpmt:winapinls.obj
 0002:00004ac8       ??_C@_1M@EGPFDCPD@?$AAb?$AAe?$AA?9?$AAb?$AAy?$AA?$AA@ 000000018002bac8     libcpmt:winapinls.obj
 0002:00004ad8       ??_C@_1M@PCMGMCGC@?$AAb?$AAg?$AA?9?$AAb?$AAg?$AA?$AA@ 000000018002bad8     libcpmt:winapinls.obj
 0002:00004ae8       ??_C@_1M@BJBMFGOB@?$AAb?$AAn?$AA?9?$AAi?$AAn?$AA?$AA@ 000000018002bae8     libcpmt:winapinls.obj
 0002:00004af8       ??_C@_1BG@EAKMMACD@?$AAb?$AAs?$AA?9?$AAb?$AAa?$AA?9?$AAl?$AAa?$AAt?$AAn?$AA?$AA@ 000000018002baf8     libcpmt:winapinls.obj
 0002:00004b10       ??_C@_1M@KGADAODK@?$AAc?$AAa?$AA?9?$AAe?$AAs?$AA?$AA@ 000000018002bb10     libcpmt:winapinls.obj
 0002:00004b20       ??_C@_1M@COAJPDHI@?$AAc?$AAs?$AA?9?$AAc?$AAz?$AA?$AA@ 000000018002bb20     libcpmt:winapinls.obj
 0002:00004b30       ??_C@_1M@DHBHFONH@?$AAc?$AAy?$AA?9?$AAg?$AAb?$AA?$AA@ 000000018002bb30     libcpmt:winapinls.obj
 0002:00004b40       ??_C@_1M@IMGKELGA@?$AAd?$AAa?$AA?9?$AAd?$AAk?$AA?$AA@ 000000018002bb40     libcpmt:winapinls.obj
 0002:00004b50       ??_C@_1M@NNDGDNGA@?$AAd?$AAe?$AA?9?$AAa?$AAt?$AA?$AA@ 000000018002bb50     libcpmt:winapinls.obj
 0002:00004b60       ??_C@_1M@IKDBHEEM@?$AAd?$AAe?$AA?9?$AAc?$AAh?$AA?$AA@ 000000018002bb60     libcpmt:winapinls.obj
 0002:00004b70       ??_C@_1M@GFFOJMCJ@?$AAd?$AAe?$AA?9?$AAd?$AAe?$AA?$AA@ 000000018002bb70     libcpmt:winapinls.obj
 0002:00004b80       ??_C@_1M@MDNLKBPM@?$AAd?$AAe?$AA?9?$AAl?$AAi?$AA?$AA@ 000000018002bb80     libcpmt:winapinls.obj
 0002:00004b90       ??_C@_1M@NJBEEJNL@?$AAd?$AAe?$AA?9?$AAl?$AAu?$AA?$AA@ 000000018002bb90     libcpmt:winapinls.obj
 0002:00004ba0       ??_C@_1O@GNNELBAP@?$AAd?$AAi?$AAv?$AA?9?$AAm?$AAv?$AA?$AA@ 000000018002bba0     libcpmt:winapinls.obj
 0002:00004bb0       ??_C@_1M@EJLEOGAE@?$AAe?$AAl?$AA?9?$AAg?$AAr?$AA?$AA@ 000000018002bbb0     libcpmt:winapinls.obj
 0002:00004bc0       ??_C@_1M@GMPONJN@?$AAe?$AAn?$AA?9?$AAa?$AAu?$AA?$AA@ 000000018002bbc0     libcpmt:winapinls.obj
 0002:00004bd0       ??_C@_1M@NIDIIPGF@?$AAe?$AAn?$AA?9?$AAb?$AAz?$AA?$AA@ 000000018002bbd0     libcpmt:winapinls.obj
 0002:00004be0       ??_C@_1M@JEHMIMFO@?$AAe?$AAn?$AA?9?$AAc?$AAa?$AA?$AA@ 000000018002bbe0     libcpmt:winapinls.obj
 0002:00004bf0       ??_C@_1M@IGMJCDLA@?$AAe?$AAn?$AA?9?$AAc?$AAb?$AA?$AA@ 000000018002bbf0     libcpmt:winapinls.obj
 0002:00004c00       ??_C@_1M@BNFIGBKG@?$AAe?$AAn?$AA?9?$AAg?$AAb?$AA?$AA@ 000000018002bc00     libcpmt:winapinls.obj
 0002:00004c10       ??_C@_1M@LKIFDIGP@?$AAe?$AAn?$AA?9?$AAi?$AAe?$AA?$AA@ 000000018002bc10     libcpmt:winapinls.obj
 0002:00004c20       ??_C@_1M@PJKFGCCO@?$AAe?$AAn?$AA?9?$AAj?$AAm?$AA?$AA@ 000000018002bc20     libcpmt:winapinls.obj
 0002:00004c30       ??_C@_1M@KPPKEPBO@?$AAe?$AAn?$AA?9?$AAn?$AAz?$AA?$AA@ 000000018002bc30     libcpmt:winapinls.obj
 0002:00004c40       ??_C@_1M@GMDGLDOB@?$AAe?$AAn?$AA?9?$AAp?$AAh?$AA?$AA@ 000000018002bc40     libcpmt:winapinls.obj
 0002:00004c50       ??_C@_1M@ONGIBJNA@?$AAe?$AAn?$AA?9?$AAt?$AAt?$AA?$AA@ 000000018002bc50     libcpmt:winapinls.obj
 0002:00004c60       ??_C@_1M@LLODPCMM@?$AAe?$AAn?$AA?9?$AAu?$AAs?$AA?$AA@ 000000018002bc60     libcpmt:winapinls.obj
 0002:00004c70       ??_C@_1M@LAKFNPAN@?$AAe?$AAn?$AA?9?$AAz?$AAa?$AA?$AA@ 000000018002bc70     libcpmt:winapinls.obj
 0002:00004c80       ??_C@_1M@MFNHNHEO@?$AAe?$AAn?$AA?9?$AAz?$AAw?$AA?$AA@ 000000018002bc80     libcpmt:winapinls.obj
 0002:00004c90       ??_C@_1M@EJEINPHM@?$AAe?$AAs?$AA?9?$AAa?$AAr?$AA?$AA@ 000000018002bc90     libcpmt:winapinls.obj
 0002:00004ca0       ??_C@_1M@GNKPCCJA@?$AAe?$AAs?$AA?9?$AAb?$AAo?$AA?$AA@ 000000018002bca0     libcpmt:winapinls.obj
 0002:00004cb0       ??_C@_1M@LEEGFONL@?$AAe?$AAs?$AA?9?$AAc?$AAl?$AA?$AA@ 000000018002bcb0     libcpmt:winapinls.obj
 0002:00004cc0       ??_C@_1M@KGPDPBDF@?$AAe?$AAs?$AA?9?$AAc?$AAo?$AA?$AA@ 000000018002bcc0     libcpmt:winapinls.obj
 0002:00004cd0       ??_C@_1M@EIAHOHH@?$AAe?$AAs?$AA?9?$AAc?$AAr?$AA?$AA@ 000000018002bcd0     libcpmt:winapinls.obj
 0002:00004ce0       ??_C@_1M@LLPGMBIN@?$AAe?$AAs?$AA?9?$AAd?$AAo?$AA?$AA@ 000000018002bce0     libcpmt:winapinls.obj
 0002:00004cf0       ??_C@_1M@DKHMKNJA@?$AAe?$AAs?$AA?9?$AAe?$AAc?$AA?$AA@ 000000018002bcf0     libcpmt:winapinls.obj
 0002:00004d00       ??_C@_1M@GKGFPKAP@?$AAe?$AAs?$AA?9?$AAe?$AAs?$AA?$AA@ 000000018002bd00     libcpmt:winapinls.obj
 0002:00004d10       ??_C@_1M@LKHKGDLN@?$AAe?$AAs?$AA?9?$AAg?$AAt?$AA?$AA@ 000000018002bd10     libcpmt:winapinls.obj
 0002:00004d20       ??_C@_1M@HEIIGGJD@?$AAe?$AAs?$AA?9?$AAh?$AAn?$AA?$AA@ 000000018002bd20     libcpmt:winapinls.obj
 0002:00004d30       ??_C@_1M@FBDHPPGD@?$AAe?$AAs?$AA?9?$AAm?$AAx?$AA?$AA@ 000000018002bd30     libcpmt:winapinls.obj
 0002:00004d40       ??_C@_1M@DPAGLNDH@?$AAe?$AAs?$AA?9?$AAn?$AAi?$AA?$AA@ 000000018002bd40     libcpmt:winapinls.obj
 0002:00004d50       ??_C@_1M@MDGOPGDD@?$AAe?$AAs?$AA?9?$AAp?$AAa?$AA?$AA@ 000000018002bd50     libcpmt:winapinls.obj
 0002:00004d60       ??_C@_1M@EMAMGBGE@?$AAe?$AAs?$AA?9?$AAp?$AAe?$AA?$AA@ 000000018002bd60     libcpmt:winapinls.obj
 0002:00004d70       ??_C@_1M@IBMCAOEC@?$AAe?$AAs?$AA?9?$AAp?$AAr?$AA?$AA@ 000000018002bd70     libcpmt:winapinls.obj
 0002:00004d80       ??_C@_1M@FGMDIJED@?$AAe?$AAs?$AA?9?$AAp?$AAy?$AA?$AA@ 000000018002bd80     libcpmt:winapinls.obj
 0002:00004d90       ??_C@_1M@IIDEOLLL@?$AAe?$AAs?$AA?9?$AAs?$AAv?$AA?$AA@ 000000018002bd90     libcpmt:winapinls.obj
 0002:00004da0       ??_C@_1M@GAOBIPA@?$AAe?$AAs?$AA?9?$AAu?$AAy?$AA?$AA@ 000000018002bda0     libcpmt:winapinls.obj
 0002:00004db0       _pDefaultRawDllMain        000000018002bdb0     LIBCMT:dll_dllmain.obj
 0002:00004db0       _pRawDllMain               000000018002bdb0     LIBCMT:dll_dllmain.obj
 0002:00004dc0       ??_7type_info@@6B@         000000018002bdc0     LIBCMT:std_type_info_static.obj
 0002:00004de0       ??_7bad_array_new_length@std@@6B@ 000000018002bde0     LIBCMT:throw_bad_alloc.obj
 0002:00004df0       ??_C@_0BF@KINCDENJ@bad?5array?5new?5length?$AA@ 000000018002bdf0     LIBCMT:throw_bad_alloc.obj
 0002:00004e08       _pDestructExceptionObject  000000018002be08     libvcruntime:frame.obj
 0002:00004e18       ??_7bad_exception@std@@6B@ 000000018002be18     libvcruntime:frame.obj
 0002:00004e28       ??_C@_0O@DPKOEFFH@bad?5exception?$AA@ 000000018002be28     libvcruntime:frame.obj
 0002:00004f40       ??_C@_1BC@DNHGCMLG@?$AAa?$AAd?$AAv?$AAa?$AAp?$AAi?$AA3?$AA2?$AA?$AA@ 000000018002bf40     libvcruntime:winapi_downlevel.obj
 0002:00004f58       ??_C@_1DM@KHCHBNEB@?$AAa?$AAp?$AAi?$AA?9?$AAm?$AAs?$AA?9?$AAw?$AAi?$AAn?$AA?9?$AAc?$AAo?$AAr?$AAe?$AA?9?$AAf?$AAi?$AAb?$AAe?$AAr?$AAs?$AA?9?$AAl?$AA1?$AA?9?$AA1?$AA?9?$AA1?$AA?$AA@ 000000018002bf58     libvcruntime:winapi_downlevel.obj
 0002:00004f98       ??_C@_1DK@LPPGFMPP@?$AAa?$AAp?$AAi?$AA?9?$AAm?$AAs?$AA?9?$AAw?$AAi?$AAn?$AA?9?$AAc?$AAo?$AAr?$AAe?$AA?9?$AAs?$AAy?$AAn?$AAc?$AAh?$AA?9?$AAl?$AA1?$AA?9?$AA2?$AA?9?$AA0?$AA?$AA@ 000000018002bf98     libvcruntime:winapi_downlevel.obj
 0002:00004fd8       ??_C@_1BC@GDMECMAK@?$AAk?$AAe?$AAr?$AAn?$AAe?$AAl?$AA3?$AA2?$AA?$AA@ 000000018002bfd8     libvcruntime:winapi_downlevel.obj
 0002:00005340       ??_C@_08EHJDFFNH@__based?$CI?$AA@ 000000018002c340     libvcruntime:undname.obj
 0002:00005350       ??_C@_07KOLFKCDI@__cdecl?$AA@ 000000018002c350     libvcruntime:undname.obj
 0002:00005358       ??_C@_08GHMPAG@__pascal?$AA@ 000000018002c358     libvcruntime:undname.obj
 0002:00005368       ??_C@_09IFJBGAPI@__stdcall?$AA@ 000000018002c368     libvcruntime:undname.obj
 0002:00005378       ??_C@_0L@NPHFGOKO@__thiscall?$AA@ 000000018002c378     libvcruntime:undname.obj
 0002:00005388       ??_C@_0L@JMKHOMEK@__fastcall?$AA@ 000000018002c388     libvcruntime:undname.obj
 0002:00005398       ??_C@_0N@BCKKPABJ@__vectorcall?$AA@ 000000018002c398     libvcruntime:undname.obj
 0002:000053a8       ??_C@_09HIJEGCPM@__clrcall?$AA@ 000000018002c3a8     libvcruntime:undname.obj
 0002:000053b4       ??_C@_06GHPCKEAG@__eabi?$AA@ 000000018002c3b4     libvcruntime:undname.obj
 0002:000053c0       ??_C@_07JOMMBBKO@__ptr64?$AA@ 000000018002c3c0     libvcruntime:undname.obj
 0002:000053c8       ??_C@_0L@PILCLIHE@__restrict?$AA@ 000000018002c3c8     libvcruntime:undname.obj
 0002:000053d8       ??_C@_0M@GFIIJFMG@__unaligned?$AA@ 000000018002c3d8     libvcruntime:undname.obj
 0002:000053e8       ??_C@_09DHDLOLLB@restrict?$CI?$AA@ 000000018002c3e8     libvcruntime:undname.obj
 0002:000053f4       ??_C@_04NIHEBCM@?5new?$AA@ 000000018002c3f4     libvcruntime:undname.obj
 0002:00005400       ??_C@_07FPCDHGMM@?5delete?$AA@ 000000018002c400     libvcruntime:undname.obj
 0002:00005408       ??_C@_01NEMOKFLO@?$DN?$AA@ 000000018002c408     libvcruntime:undname.obj
 0002:0000540c       ??_C@_02GPIOPFAK@?$DO?$DO?$AA@ 000000018002c40c     libvcruntime:undname.obj
 0002:00005410       ??_C@_02FODMEDOG@?$DM?$DM?$AA@ 000000018002c410     libvcruntime:undname.obj
 0002:00005414       ??_C@_01DCLJPIOD@?$CB?$AA@ 000000018002c414     libvcruntime:undname.obj
 0002:00005418       ??_C@_02EGOFBIJA@?$DN?$DN?$AA@ 000000018002c418     libvcruntime:undname.obj
 0002:0000541c       ??_C@_02FDNJECIE@?$CB?$DN?$AA@ 000000018002c41c     libvcruntime:undname.obj
 0002:00005420       ??_C@_02GPECMEKF@?$FL?$FN?$AA@ 000000018002c420     libvcruntime:undname.obj
 0002:00005428       ??_C@_08LHJFAFGD@operator?$AA@ 000000018002c428     libvcruntime:undname.obj
 0002:00005434       ??_C@_02HBOOOICD@?9?$DO?$AA@ 000000018002c434     libvcruntime:undname.obj
 0002:00005438       ??_C@_02ECNGHCIF@?$CL?$CL?$AA@ 000000018002c438     libvcruntime:undname.obj
 0002:0000543c       ??_C@_02BAABKJLB@?9?9?$AA@ 000000018002c43c     libvcruntime:undname.obj
 0002:00005440       ??_C@_01MIFGBAGJ@?$CL?$AA@ 000000018002c440     libvcruntime:undname.obj
 0002:00005444       ??_C@_01HNPIGOCE@?$CG?$AA@ 000000018002c444     libvcruntime:undname.obj
 0002:00005448       ??_C@_03MNHNFDLC@?9?$DO?$CK?$AA@ 000000018002c448     libvcruntime:undname.obj
 0002:0000544c       ??_C@_01KMDKNFGN@?1?$AA@   000000018002c44c     libvcruntime:undname.obj
 0002:00005450       ??_C@_01FGNFDNOH@?$CF?$AA@ 000000018002c450     libvcruntime:undname.obj
 0002:00005454       ??_C@_01MNNFJEPP@?$DM?$AA@ 000000018002c454     libvcruntime:undname.obj
 0002:00005458       ??_C@_02EHCHHCKH@?$DM?$DN?$AA@ 000000018002c458     libvcruntime:undname.obj
 0002:0000545c       ??_C@_01PPODPGHN@?$DO?$AA@ 000000018002c45c     libvcruntime:undname.obj
 0002:00005460       ??_C@_02EEKDKGMJ@?$DO?$DN?$AA@ 000000018002c460     libvcruntime:undname.obj
 0002:00005464       ??_C@_01IHBHIGKO@?0?$AA@   000000018002c464     libvcruntime:undname.obj
 0002:00005468       ??_C@_02HCKGKOFO@?$CI?$CJ?$AA@ 000000018002c468     libvcruntime:undname.obj
 0002:0000546c       ??_C@_01PJKLJHI@?$HO?$AA@  000000018002c46c     libvcruntime:undname.obj
 0002:00005470       ??_C@_01JKBOJNNK@?$FO?$AA@ 000000018002c470     libvcruntime:undname.obj
 0002:00005474       ??_C@_01DNKMNLPK@?$HM?$AA@ 000000018002c474     libvcruntime:undname.obj
 0002:00005478       ??_C@_02PPKAJPJL@?$CG?$CG?$AA@ 000000018002c478     libvcruntime:undname.obj
 0002:0000547c       ??_C@_02NONPIBCD@?$HM?$HM?$AA@ 000000018002c47c     libvcruntime:undname.obj
 0002:00005480       ??_C@_02FPIMKNGF@?$CK?$DN?$AA@ 000000018002c480     libvcruntime:undname.obj
 0002:00005484       ??_C@_02FOEOMHFC@?$CL?$DN?$AA@ 000000018002c484     libvcruntime:undname.obj
 0002:00005488       ??_C@_02FKMDLLOA@?9?$DN?$AA@ 000000018002c488     libvcruntime:undname.obj
 0002:0000548c       ??_C@_02FJEHGPIO@?1?$DN?$AA@ 000000018002c48c     libvcruntime:undname.obj
 0002:00005490       ??_C@_02FENAOKFI@?$CF?$DN?$AA@ 000000018002c490     libvcruntime:undname.obj
 0002:00005494       ??_C@_03IKFCCPFF@?$DO?$DO?$DN?$AA@ 000000018002c494     libvcruntime:undname.obj
 0002:00005498       ??_C@_03CDNPDDLA@?$DM?$DM?$DN?$AA@ 000000018002c498     libvcruntime:undname.obj
 0002:0000549c       ??_C@_02FGJGFEAB@?$CG?$DN?$AA@ 000000018002c49c     libvcruntime:undname.obj
 0002:000054a0       ??_C@_02DHLNPPGH@?$HM?$DN?$AA@ 000000018002c4a0     libvcruntime:undname.obj
 0002:000054a4       ??_C@_02MHEGNOJ@?$FO?$DN?$AA@ 000000018002c4a4     libvcruntime:undname.obj
 0002:000054a8       ??_C@_09IFPLHPGF@?$GAvftable?8?$AA@ 000000018002c4a8     libvcruntime:undname.obj
 0002:000054b8       ??_C@_09BLBHBJP@?$GAvbtable?8?$AA@ 000000018002c4b8     libvcruntime:undname.obj
 0002:000054c8       ??_C@_07FEEIOKP@?$GAvcall?8?$AA@ 000000018002c4c8     libvcruntime:undname.obj
 0002:000054d0       ??_C@_08LLFFHHDJ@?$GAtypeof?8?$AA@ 000000018002c4d0     libvcruntime:undname.obj
 0002:000054e0       ??_C@_0BF@KDPPACIK@?$GAlocal?5static?5guard?8?$AA@ 000000018002c4e0     libvcruntime:undname.obj
 0002:000054f8       ??_C@_08OBABFOLI@?$GAstring?8?$AA@ 000000018002c4f8     libvcruntime:undname.obj
 0002:00005508       ??_C@_0BD@JDLKDPAB@?$GAvbase?5destructor?8?$AA@ 000000018002c508     libvcruntime:undname.obj
 0002:00005520       ??_C@_0BN@DEGPLNFK@?$GAvector?5deleting?5destructor?8?$AA@ 000000018002c520     libvcruntime:undname.obj
 0002:00005540       ??_C@_0BO@OBMKPJIG@?$GAdefault?5constructor?5closure?8?$AA@ 000000018002c540     libvcruntime:undname.obj
 0002:00005560       ??_C@_0BN@IMDCHIKM@?$GAscalar?5deleting?5destructor?8?$AA@ 000000018002c560     libvcruntime:undname.obj
 0002:00005580       ??_C@_0BO@PFGOCPJJ@?$GAvector?5constructor?5iterator?8?$AA@ 000000018002c580     libvcruntime:undname.obj
 0002:000055a0       ??_C@_0BN@LFPFMEDL@?$GAvector?5destructor?5iterator?8?$AA@ 000000018002c5a0     libvcruntime:undname.obj
 0002:000055c0       ??_C@_0CE@IKBNEHA@?$GAvector?5vbase?5constructor?5iterat@ 000000018002c5c0     libvcruntime:undname.obj
 0002:000055e8       ??_C@_0BL@NILFHHPC@?$GAvirtual?5displacement?5map?8?$AA@ 000000018002c5e8     libvcruntime:undname.obj
 0002:00005608       ??_C@_0CB@JONCMFFK@?$GAeh?5vector?5constructor?5iterator?8@ 000000018002c608     libvcruntime:undname.obj
 0002:00005630       ??_C@_0CA@GCEOPDGL@?$GAeh?5vector?5destructor?5iterator?8?$AA@ 000000018002c630     libvcruntime:undname.obj
 0002:00005650       ??_C@_0CH@OOJPLCPH@?$GAeh?5vector?5vbase?5constructor?5ite@ 000000018002c650     libvcruntime:undname.obj
 0002:00005678       ??_C@_0BL@LLKPOHJI@?$GAcopy?5constructor?5closure?8?$AA@ 000000018002c678     libvcruntime:undname.obj
 0002:00005698       ??_C@_0BA@KBCDOMBN@?$GAudt?5returning?8?$AA@ 000000018002c698     libvcruntime:undname.obj
 0002:000056a8       ??_C@_03KLGMFNMG@?$GAEH?$AA@ 000000018002c6a8     libvcruntime:undname.obj
 0002:000056ac       ??_C@_05KHLCHHI@?$GARTTI?$AA@ 000000018002c6ac     libvcruntime:undname.obj
 0002:000056b8       ??_C@_0BA@KKLDJDLB@?$GAlocal?5vftable?8?$AA@ 000000018002c6b8     libvcruntime:undname.obj
 0002:000056c8       ??_C@_0CE@IIHCMGGL@?$GAlocal?5vftable?5constructor?5closu@ 000000018002c6c8     libvcruntime:undname.obj
 0002:000056ec       ??_C@_06FHBGPFGH@?5new?$FL?$FN?$AA@ 000000018002c6ec     libvcruntime:undname.obj
 0002:000056f8       ??_C@_09LBNFPBCA@?5delete?$FL?$FN?$AA@ 000000018002c6f8     libvcruntime:undname.obj
 0002:00005708       ??_C@_0P@HJKNJFNN@?$GAomni?5callsig?8?$AA@ 000000018002c708     libvcruntime:undname.obj
 0002:00005718       ??_C@_0BL@CNOONJFP@?$GAplacement?5delete?5closure?8?$AA@ 000000018002c718     libvcruntime:undname.obj
 0002:00005738       ??_C@_0BN@CKNJLHMB@?$GAplacement?5delete?$FL?$FN?5closure?8?$AA@ 000000018002c738     libvcruntime:undname.obj
 0002:00005758       ??_C@_0CG@CFDHKGGD@?$GAmanaged?5vector?5constructor?5iter@ 000000018002c758     libvcruntime:undname.obj
 0002:00005780       ??_C@_0CF@IMGKMJNO@?$GAmanaged?5vector?5destructor?5itera@ 000000018002c780     libvcruntime:undname.obj
 0002:000057a8       ??_C@_0CG@HLDDJMAG@?$GAeh?5vector?5copy?5constructor?5iter@ 000000018002c7a8     libvcruntime:undname.obj
 0002:000057d0       ??_C@_0CM@FCBBDIGB@?$GAeh?5vector?5vbase?5copy?5constructo@ 000000018002c7d0     libvcruntime:undname.obj
 0002:00005800       ??_C@_0BL@CLIPGLGB@?$GAdynamic?5initializer?5for?5?8?$AA@ 000000018002c800     libvcruntime:undname.obj
 0002:00005820       ??_C@_0CB@PDBIFEP@?$GAdynamic?5atexit?5destructor?5for?5?8@ 000000018002c820     libvcruntime:undname.obj
 0002:00005848       ??_C@_0CD@CGAJBKEJ@?$GAvector?5copy?5constructor?5iterato@ 000000018002c848     libvcruntime:undname.obj
 0002:00005870       ??_C@_0CJ@GJELGAMM@?$GAvector?5vbase?5copy?5constructor?5i@ 000000018002c870     libvcruntime:undname.obj
 0002:000058a0       ??_C@_0CL@FGIJHLCE@?$GAmanaged?5vector?5copy?5constructor@ 000000018002c8a0     libvcruntime:undname.obj
 0002:000058d0       ??_C@_0BM@PMGGMLDN@?$GAlocal?5static?5thread?5guard?8?$AA@ 000000018002c8d0     libvcruntime:undname.obj
 0002:000058f0       ??_C@_0N@BDNMDMOL@operator?5?$CC?$CC?5?$AA@ 000000018002c8f0     libvcruntime:undname.obj
 0002:00005900       ??_C@_0BC@DAFEJGAK@?5Type?5Descriptor?8?$AA@ 000000018002c900     libvcruntime:undname.obj
 0002:00005918       ??_C@_0BM@LDKODKLH@?5Base?5Class?5Descriptor?5at?5?$CI?$AA@ 000000018002c918     libvcruntime:undname.obj
 0002:00005938       ??_C@_0BD@LGICGFMM@?5Base?5Class?5Array?8?$AA@ 000000018002c938     libvcruntime:undname.obj
 0002:00005950       ??_C@_0BN@MECKDCOJ@?5Class?5Hierarchy?5Descriptor?8?$AA@ 000000018002c950     libvcruntime:undname.obj
 0002:00005970       ??_C@_0BK@CFCOFLF@?5Complete?5Object?5Locator?8?$AA@ 000000018002c970     libvcruntime:undname.obj
 0002:00005990       format_validation_lookup_table 000000018002c990     libucrt:output.obj
 0002:000059ec       ??_C@_06OJHGLDPL@?$CInull?$CJ?$AA@ 000000018002c9ec     libucrt:output.obj
 0002:000059f8       ??_C@_1O@CEDCILHN@?$AA?$CI?$AAn?$AAu?$AAl?$AAl?$AA?$CJ?$AA?$AA@ 000000018002c9f8     libucrt:output.obj
 0002:00005a08       __real@0000000000000000    000000018002ca08     libucrt:frexp.obj
 0002:00005a10       __real@3ff0000000000000    000000018002ca10     libucrt:frexp.obj
 0002:00005a18       __real@8000000000000000    000000018002ca18     libucrt:frexp.obj
 0002:00005a20       __newctype                 000000018002ca20     libucrt:ctype.obj
 0002:00005d20       __newclmap                 000000018002cd20     libucrt:ctype.obj
 0002:00005ea0       __newcumap                 000000018002cea0     libucrt:ctype.obj
 0002:00006020       _wctype                    000000018002d020     libucrt:ctype.obj
 0002:000063a0       ?large_power_data@?1??multiply_by_power_of_ten@__crt_strtox@@YA_NAEAUbig_integer@2@I@Z@4QBIB 000000018002d3a0     libucrt:strtod.obj
 0002:00006cb0       ?large_power_indices@?1??multiply_by_power_of_ten@__crt_strtox@@YA_NAEAUbig_integer@2@I@Z@4QBUunpack_index@?1??12@YA_N0I@Z@B 000000018002dcb0     libucrt:strtod.obj
 0002:00006d48       ?small_powers_of_ten@?6??multiply_by_power_of_ten@__crt_strtox@@YA_NAEAUbig_integer@2@I@Z@4QBIB 000000018002dd48     libucrt:strtod.obj
 0002:00008a20       __acrt_exception_action_table 000000018002fa20     libucrt:exception_filter.obj
 0002:00008ae0       __acrt_signal_action_table_count 000000018002fae0     libucrt:exception_filter.obj
 0002:00008ae8       __acrt_signal_action_first_fpe_index 000000018002fae8     libucrt:exception_filter.obj
 0002:00008af0       __acrt_signal_action_fpe_count 000000018002faf0     libucrt:exception_filter.obj
 0002:00008af8       ??_C@_1BI@BGOHAHKC@?$AAm?$AAs?$AAc?$AAo?$AAr?$AAe?$AAe?$AA?4?$AAd?$AAl?$AAl?$AA?$AA@ 000000018002faf8     libucrt:exit.obj
 0002:00008b10       ??_C@_0P@MIGLKIOC@CorExitProcess?$AA@ 000000018002fb10     libucrt:exit.obj
 0002:00008cb0       ??_C@_1EG@CNNIPFIM@?$AAa?$AAp?$AAi?$AA?9?$AAm?$AAs?$AA?9?$AAw?$AAi?$AAn?$AA?9?$AAa?$AAp?$AAp?$AAm?$AAo?$AAd?$AAe?$AAl?$AA?9?$AAr?$AAu?$AAn?$AAt?$AAi?$AAm?$AAe?$AA?9?$AAl?$AA1?$AA?9?$AA1@ 000000018002fcb0     libucrt:winapi_thunks.obj
 0002:00008d00       ??_C@_1EA@JGEFHKEI@?$AAa?$AAp?$AAi?$AA?9?$AAm?$AAs?$AA?9?$AAw?$AAi?$AAn?$AA?9?$AAc?$AAo?$AAr?$AAe?$AA?9?$AAd?$AAa?$AAt?$AAe?$AAt?$AAi?$AAm?$AAe?$AA?9?$AAl?$AA1?$AA?9?$AA1?$AA?9?$AA1?$AA?$AA@ 000000018002fd00     libucrt:winapi_thunks.obj
 0002:00008d40       ??_C@_1DI@GCIAAENM@?$AAa?$AAp?$AAi?$AA?9?$AAm?$AAs?$AA?9?$AAw?$AAi?$AAn?$AA?9?$AAc?$AAo?$AAr?$AAe?$AA?9?$AAf?$AAi?$AAl?$AAe?$AA?9?$AAl?$AA2?$AA?9?$AA1?$AA?9?$AA1?$AA?$AA@ 000000018002fd40     libucrt:winapi_thunks.obj
 0002:00008d80       ??_C@_1EI@MPIAOHOC@?$AAa?$AAp?$AAi?$AA?9?$AAm?$AAs?$AA?9?$AAw?$AAi?$AAn?$AA?9?$AAc?$AAo?$AAr?$AAe?$AA?9?$AAl?$AAo?$AAc?$AAa?$AAl?$AAi?$AAz?$AAa?$AAt?$AAi?$AAo?$AAn?$AA?9?$AAl?$AA1?$AA?9@ 000000018002fd80     libucrt:winapi_thunks.obj
 0002:00008dd0       ??_C@_1FK@FPHCKFIE@?$AAa?$AAp?$AAi?$AA?9?$AAm?$AAs?$AA?9?$AAw?$AAi?$AAn?$AA?9?$AAc?$AAo?$AAr?$AAe?$AA?9?$AAl?$AAo?$AAc?$AAa?$AAl?$AAi?$AAz?$AAa?$AAt?$AAi?$AAo?$AAn?$AA?9?$AAo?$AAb?$AAs@ 000000018002fdd0     libucrt:winapi_thunks.obj
 0002:00008e30       ??_C@_1EM@DILCGIIO@?$AAa?$AAp?$AAi?$AA?9?$AAm?$AAs?$AA?9?$AAw?$AAi?$AAn?$AA?9?$AAc?$AAo?$AAr?$AAe?$AA?9?$AAp?$AAr?$AAo?$AAc?$AAe?$AAs?$AAs?$AAt?$AAh?$AAr?$AAe?$AAa?$AAd?$AAs?$AA?9?$AAl@ 000000018002fe30     libucrt:winapi_thunks.obj
 0002:00008e80       ??_C@_1DM@LNCGDDPN@?$AAa?$AAp?$AAi?$AA?9?$AAm?$AAs?$AA?9?$AAw?$AAi?$AAn?$AA?9?$AAc?$AAo?$AAr?$AAe?$AA?9?$AAs?$AAt?$AAr?$AAi?$AAn?$AAg?$AA?9?$AAl?$AA1?$AA?9?$AA1?$AA?9?$AA0?$AA?$AA@ 000000018002fe80     libucrt:winapi_thunks.obj
 0002:00008ec0       ??_C@_1DO@FPAPJEMD@?$AAa?$AAp?$AAi?$AA?9?$AAm?$AAs?$AA?9?$AAw?$AAi?$AAn?$AA?9?$AAc?$AAo?$AAr?$AAe?$AA?9?$AAs?$AAy?$AAs?$AAi?$AAn?$AAf?$AAo?$AA?9?$AAl?$AA1?$AA?9?$AA2?$AA?9?$AA1?$AA?$AA@ 000000018002fec0     libucrt:winapi_thunks.obj
 0002:00008f00       ??_C@_1DK@NDHNAHIO@?$AAa?$AAp?$AAi?$AA?9?$AAm?$AAs?$AA?9?$AAw?$AAi?$AAn?$AA?9?$AAc?$AAo?$AAr?$AAe?$AA?9?$AAw?$AAi?$AAn?$AAr?$AAt?$AA?9?$AAl?$AA1?$AA?9?$AA1?$AA?9?$AA0?$AA?$AA@ 000000018002ff00     libucrt:winapi_thunks.obj
 0002:00008f40       ??_C@_1DM@KGHDGBCM@?$AAa?$AAp?$AAi?$AA?9?$AAm?$AAs?$AA?9?$AAw?$AAi?$AAn?$AA?9?$AAc?$AAo?$AAr?$AAe?$AA?9?$AAx?$AAs?$AAt?$AAa?$AAt?$AAe?$AA?9?$AAl?$AA2?$AA?9?$AA1?$AA?9?$AA0?$AA?$AA@ 000000018002ff40     libucrt:winapi_thunks.obj
 0002:00008f80       ??_C@_1EO@IJIOEFOH@?$AAa?$AAp?$AAi?$AA?9?$AAm?$AAs?$AA?9?$AAw?$AAi?$AAn?$AA?9?$AAr?$AAt?$AAc?$AAo?$AAr?$AAe?$AA?9?$AAn?$AAt?$AAu?$AAs?$AAe?$AAr?$AA?9?$AAw?$AAi?$AAn?$AAd?$AAo?$AAw?$AA?9@ 000000018002ff80     libucrt:winapi_thunks.obj
 0002:00008fd0       ??_C@_1FG@HHGEKANL@?$AAa?$AAp?$AAi?$AA?9?$AAm?$AAs?$AA?9?$AAw?$AAi?$AAn?$AA?9?$AAs?$AAe?$AAc?$AAu?$AAr?$AAi?$AAt?$AAy?$AA?9?$AAs?$AAy?$AAs?$AAt?$AAe?$AAm?$AAf?$AAu?$AAn?$AAc?$AAt?$AAi@ 000000018002ffd0     libucrt:winapi_thunks.obj
 0002:00009030       ??_C@_1FG@NCKKOLKO@?$AAe?$AAx?$AAt?$AA?9?$AAm?$AAs?$AA?9?$AAw?$AAi?$AAn?$AA?9?$AAk?$AAe?$AAr?$AAn?$AAe?$AAl?$AA3?$AA2?$AA?9?$AAp?$AAa?$AAc?$AAk?$AAa?$AAg?$AAe?$AA?9?$AAc?$AAu?$AAr?$AAr@ 0000000180030030     libucrt:winapi_thunks.obj
 0002:00009090       ??_C@_1EG@DBIOJECG@?$AAe?$AAx?$AAt?$AA?9?$AAm?$AAs?$AA?9?$AAw?$AAi?$AAn?$AA?9?$AAn?$AAt?$AAu?$AAs?$AAe?$AAr?$AA?9?$AAd?$AAi?$AAa?$AAl?$AAo?$AAg?$AAb?$AAo?$AAx?$AA?9?$AAl?$AA1?$AA?9?$AA1@ 0000000180030090     libucrt:winapi_thunks.obj
 0002:000090e0       ??_C@_1EO@FIHMJCLF@?$AAe?$AAx?$AAt?$AA?9?$AAm?$AAs?$AA?9?$AAw?$AAi?$AAn?$AA?9?$AAn?$AAt?$AAu?$AAs?$AAe?$AAr?$AA?9?$AAw?$AAi?$AAn?$AAd?$AAo?$AAw?$AAs?$AAt?$AAa?$AAt?$AAi?$AAo?$AAn?$AA?9@ 00000001800300e0     libucrt:winapi_thunks.obj
 0002:00009130       ??_C@_1O@BCCLBEOE@?$AAu?$AAs?$AAe?$AAr?$AA3?$AA2?$AA?$AA@ 0000000180030130     libucrt:winapi_thunks.obj
 0002:00009150       ??_C@_0BE@LJANKFHF@EnumSystemLocalesEx?$AA@ 0000000180030150     libucrt:winapi_thunks.obj
 0002:000091a0       ??_C@_0BJ@PBCCBIPI@GetUserDefaultLocaleName?$AA@ 00000001800301a0     libucrt:winapi_thunks.obj
 0002:000091d0       ??_C@_0BC@CELBKLLA@IsValidLocaleName?$AA@ 00000001800301d0     libucrt:winapi_thunks.obj
 0002:000091f8       ??_C@_0BB@CDHDDLLP@LCIDToLocaleName?$AA@ 00000001800301f8     libucrt:winapi_thunks.obj
 0002:00009218       ??_C@_0BB@HBDEELFH@LocaleNameToLCID?$AA@ 0000000180030218     libucrt:winapi_thunks.obj
 0002:0000922c       ??_C@_03OEIAHPBN@INF?$AA@  000000018003022c     libucrt:cvt.obj
 0002:00009230       ??_C@_03OJHLLCGB@inf?$AA@  0000000180030230     libucrt:cvt.obj
 0002:00009234       ??_C@_03LKNCIKJB@NAN?$AA@  0000000180030234     libucrt:cvt.obj
 0002:00009238       ??_C@_03LHCJEHON@nan?$AA@  0000000180030238     libucrt:cvt.obj
 0002:00009240       ??_C@_09OFJJIMPC@NAN?$CISNAN?$CJ?$AA@ 0000000180030240     libucrt:cvt.obj
 0002:00009250       ??_C@_09IPFBKMDL@nan?$CIsnan?$CJ?$AA@ 0000000180030250     libucrt:cvt.obj
 0002:00009260       ??_C@_08IKHNHAJ@NAN?$CIIND?$CJ?$AA@ 0000000180030260     libucrt:cvt.obj
 0002:00009270       ??_C@_08OFCDMILK@nan?$CIind?$CJ?$AA@ 0000000180030270     libucrt:cvt.obj
 0002:0000927c       ??_C@_05KLBDPFGC@e?$CL000?$AA@ 000000018003027c     libucrt:cvt.obj
 0002:00009290       __lc_category              0000000180030290     libucrt:wsetlocale.obj
 0002:00009320       ??_C@_1O@GIFLHMA@?$AAL?$AAC?$AA_?$AAA?$AAL?$AAL?$AA?$AA@ 0000000180030320     libucrt:wsetlocale.obj
 0002:00009330       ??_C@_1BG@PPOMIBNJ@?$AAL?$AAC?$AA_?$AAC?$AAO?$AAL?$AAL?$AAA?$AAT?$AAE?$AA?$AA@ 0000000180030330     libucrt:wsetlocale.obj
 0002:00009348       ??_C@_1BC@FFJGAPJM@?$AAL?$AAC?$AA_?$AAC?$AAT?$AAY?$AAP?$AAE?$AA?$AA@ 0000000180030348     libucrt:wsetlocale.obj
 0002:00009360       ??_C@_1BI@PCKFNJFB@?$AAL?$AAC?$AA_?$AAM?$AAO?$AAN?$AAE?$AAT?$AAA?$AAR?$AAY?$AA?$AA@ 0000000180030360     libucrt:wsetlocale.obj
 0002:00009378       ??_C@_1BG@ENIEDKID@?$AAL?$AAC?$AA_?$AAN?$AAU?$AAM?$AAE?$AAR?$AAI?$AAC?$AA?$AA@ 0000000180030378     libucrt:wsetlocale.obj
 0002:00009390       ??_C@_1BA@HAAOMIIG@?$AAL?$AAC?$AA_?$AAT?$AAI?$AAM?$AAE?$AA?$AA@ 0000000180030390     libucrt:wsetlocale.obj
 0002:00009420       ??_C@_15NBPDDFIP@?$AA?$DN?$AA?$DL?$AA?$AA@ 0000000180030420     libucrt:wsetlocale.obj
 0002:00009428       ??_C@_13PJJBFPED@?$AA?$DL?$AA?$AA@ 0000000180030428     libucrt:wsetlocale.obj
 0002:0000942c       ??_C@_13NMPKAAJP@?$AA?$DN?$AA?$AA@ 000000018003042c     libucrt:wsetlocale.obj
 0002:00009430       ??_C@_13FHBKNHDA@?$AAC?$AA?$AA@ 0000000180030430     libucrt:wsetlocale.obj
 0002:00009438       ??_C@_17MBJJLFDM@?$AA_?$AA?4?$AA?0?$AA?$AA@ 0000000180030438     libucrt:wsetlocale.obj
 0002:00009440       ??_C@_13ENNFDPBH@?$AA_?$AA?$AA@ 0000000180030440     libucrt:wsetlocale.obj
 0002:00009444       ??_C@_13JOFGPIOO@?$AA?4?$AA?$AA@ 0000000180030444     libucrt:wsetlocale.obj
 0002:00009450       __lc_time_c                0000000180030450     libucrt:nlsdata.obj
 0002:00009710       ??_C@_03KOEHGMDN@Sun?$AA@  0000000180030710     libucrt:nlsdata.obj
 0002:00009714       ??_C@_03PDAGKDH@Mon?$AA@   0000000180030714     libucrt:nlsdata.obj
 0002:00009718       ??_C@_03NAGEINEP@Tue?$AA@  0000000180030718     libucrt:nlsdata.obj
 0002:0000971c       ??_C@_03MHOMLAJA@Wed?$AA@  000000018003071c     libucrt:nlsdata.obj
 0002:00009720       ??_C@_03IOFIKPDN@Thu?$AA@  0000000180030720     libucrt:nlsdata.obj
 0002:00009724       ??_C@_03IDIOELNC@Fri?$AA@  0000000180030724     libucrt:nlsdata.obj
 0002:00009728       ??_C@_03FEFJNEK@Sat?$AA@   0000000180030728     libucrt:nlsdata.obj
 0002:0000972c       ??_C@_06OOPIFAJ@Sunday?$AA@ 000000018003072c     libucrt:nlsdata.obj
 0002:00009734       ??_C@_06JLEDEDGH@Monday?$AA@ 0000000180030734     libucrt:nlsdata.obj
 0002:00009740       ??_C@_07BAAGCFCM@Tuesday?$AA@ 0000000180030740     libucrt:nlsdata.obj
 0002:00009748       ??_C@_09DLIGFAKA@Wednesday?$AA@ 0000000180030748     libucrt:nlsdata.obj
 0002:00009758       ??_C@_08HACCIKIA@Thursday?$AA@ 0000000180030758     libucrt:nlsdata.obj
 0002:00009764       ??_C@_06JECMNKMI@Friday?$AA@ 0000000180030764     libucrt:nlsdata.obj
 0002:00009770       ??_C@_08INBOOONO@Saturday?$AA@ 0000000180030770     libucrt:nlsdata.obj
 0002:0000977c       ??_C@_03JIHJHPIE@Jan?$AA@  000000018003077c     libucrt:nlsdata.obj
 0002:00009780       ??_C@_03HJBDCHOM@Feb?$AA@  0000000180030780     libucrt:nlsdata.obj
 0002:00009784       ??_C@_03ODNJBKGA@Mar?$AA@  0000000180030784     libucrt:nlsdata.obj
 0002:00009788       ??_C@_03LEOLGMJP@Apr?$AA@  0000000180030788     libucrt:nlsdata.obj
 0002:0000978c       ??_C@_03CNMDKL@May?$AA@    000000018003078c     libucrt:nlsdata.obj
 0002:00009790       ??_C@_03IDFGHECI@Jun?$AA@  0000000180030790     libucrt:nlsdata.obj
 0002:00009794       ??_C@_03LBGABGKK@Jul?$AA@  0000000180030794     libucrt:nlsdata.obj
 0002:00009798       ??_C@_03IFJFEIGA@Aug?$AA@  0000000180030798     libucrt:nlsdata.obj
 0002:0000979c       ??_C@_03GGCAPAJC@Sep?$AA@  000000018003079c     libucrt:nlsdata.obj
 0002:000097a0       ??_C@_03BMAOKBAD@Oct?$AA@  00000001800307a0     libucrt:nlsdata.obj
 0002:000097a4       ??_C@_03JPJOFNIA@Nov?$AA@  00000001800307a4     libucrt:nlsdata.obj
 0002:000097a8       ??_C@_03MKABNOCG@Dec?$AA@  00000001800307a8     libucrt:nlsdata.obj
 0002:000097b0       ??_C@_07CGJPFGJA@January?$AA@ 00000001800307b0     libucrt:nlsdata.obj
 0002:000097b8       ??_C@_08GNJGEPFN@February?$AA@ 00000001800307b8     libucrt:nlsdata.obj
 0002:000097c4       ??_C@_05HPCKOFNC@March?$AA@ 00000001800307c4     libucrt:nlsdata.obj
 0002:000097cc       ??_C@_05DMJDNLEJ@April?$AA@ 00000001800307cc     libucrt:nlsdata.obj
 0002:000097d4       ??_C@_04CNLMGBGM@June?$AA@ 00000001800307d4     libucrt:nlsdata.obj
 0002:000097dc       ??_C@_04MIEPOIFP@July?$AA@ 00000001800307dc     libucrt:nlsdata.obj
 0002:000097e4       ??_C@_06LBBHFDDG@August?$AA@ 00000001800307e4     libucrt:nlsdata.obj
 0002:000097f0       ??_C@_09BHHEALKD@September?$AA@ 00000001800307f0     libucrt:nlsdata.obj
 0002:00009800       ??_C@_07JJNFCEND@October?$AA@ 0000000180030800     libucrt:nlsdata.obj
 0002:00009808       ??_C@_08HCHEGEOA@November?$AA@ 0000000180030808     libucrt:nlsdata.obj
 0002:00009818       ??_C@_08EDHMEBNP@December?$AA@ 0000000180030818     libucrt:nlsdata.obj
 0002:00009824       ??_C@_02DEDBPAFC@AM?$AA@   0000000180030824     libucrt:nlsdata.obj
 0002:00009828       ??_C@_02CJNFDJBF@PM?$AA@   0000000180030828     libucrt:nlsdata.obj
 0002:00009830       ??_C@_08BPBNCDIB@MM?1dd?1yy?$AA@ 0000000180030830     libucrt:nlsdata.obj
 0002:00009840       ??_C@_0BE@CKGJFCPC@dddd?0?5MMMM?5dd?0?5yyyy?$AA@ 0000000180030840     libucrt:nlsdata.obj
 0002:00009858       ??_C@_08JCCMCCIL@HH?3mm?3ss?$AA@ 0000000180030858     libucrt:nlsdata.obj
 0002:00009868       ??_C@_17MBGCMIPB@?$AAS?$AAu?$AAn?$AA?$AA@ 0000000180030868     libucrt:nlsdata.obj
 0002:00009870       ??_C@_17KBOMKBF@?$AAM?$AAo?$AAn?$AA?$AA@ 0000000180030870     libucrt:nlsdata.obj
 0002:00009878       ??_C@_17BMKGEGOJ@?$AAT?$AAu?$AAe?$AA?$AA@ 0000000180030878     libucrt:nlsdata.obj
 0002:00009880       ??_C@_17CJEDCEPE@?$AAW?$AAe?$AAd?$AA?$AA@ 0000000180030880     libucrt:nlsdata.obj
 0002:00009888       ??_C@_17PDPHAADD@?$AAT?$AAh?$AAu?$AA?$AA@ 0000000180030888     libucrt:nlsdata.obj
 0002:00009890       ??_C@_17HFOLPPLP@?$AAF?$AAr?$AAi?$AA?$AA@ 0000000180030890     libucrt:nlsdata.obj
 0002:00009898       ??_C@_17GGIBDPIH@?$AAS?$AAa?$AAt?$AA?$AA@ 0000000180030898     libucrt:nlsdata.obj
 0002:000098a0       ??_C@_1O@IHNHDHPB@?$AAS?$AAu?$AAn?$AAd?$AAa?$AAy?$AA?$AA@ 00000001800308a0     libucrt:nlsdata.obj
 0002:000098b0       ??_C@_1O@MMNBFLIA@?$AAM?$AAo?$AAn?$AAd?$AAa?$AAy?$AA?$AA@ 00000001800308b0     libucrt:nlsdata.obj
 0002:000098c0       ??_C@_1BA@ENFBFFEK@?$AAT?$AAu?$AAe?$AAs?$AAd?$AAa?$AAy?$AA?$AA@ 00000001800308c0     libucrt:nlsdata.obj
 0002:000098d0       ??_C@_1BE@EBOGMDOH@?$AAW?$AAe?$AAd?$AAn?$AAe?$AAs?$AAd?$AAa?$AAy?$AA?$AA@ 00000001800308d0     libucrt:nlsdata.obj
 0002:000098e8       ??_C@_1BC@HHMNLIHE@?$AAT?$AAh?$AAu?$AAr?$AAs?$AAd?$AAa?$AAy?$AA?$AA@ 00000001800308e8     libucrt:nlsdata.obj
 0002:00009900       ??_C@_1O@PDICJHAG@?$AAF?$AAr?$AAi?$AAd?$AAa?$AAy?$AA?$AA@ 0000000180030900     libucrt:nlsdata.obj
 0002:00009910       ??_C@_1BC@ENMNNPAJ@?$AAS?$AAa?$AAt?$AAu?$AAr?$AAd?$AAa?$AAy?$AA?$AA@ 0000000180030910     libucrt:nlsdata.obj
 0002:00009928       ??_C@_17DKNBKCHM@?$AAJ?$AAa?$AAn?$AA?$AA@ 0000000180030928     libucrt:nlsdata.obj
 0002:00009930       ??_C@_17LMDJEKJN@?$AAF?$AAe?$AAb?$AA?$AA@ 0000000180030930     libucrt:nlsdata.obj
 0002:00009938       ??_C@_17CKNLEDEC@?$AAM?$AAa?$AAr?$AA?$AA@ 0000000180030938     libucrt:nlsdata.obj
 0002:00009940       ??_C@_17LFPOIHDD@?$AAA?$AAp?$AAr?$AA?$AA@ 0000000180030940     libucrt:nlsdata.obj
 0002:00009948       ??_C@_17PNNKMEED@?$AAM?$AAa?$AAy?$AA?$AA@ 0000000180030948     libucrt:nlsdata.obj
 0002:00009950       ??_C@_17KCJGOCPB@?$AAJ?$AAu?$AAn?$AA?$AA@ 0000000180030950     libucrt:nlsdata.obj
 0002:00009958       ??_C@_17IJPCKHK@?$AAJ?$AAu?$AAl?$AA?$AA@ 0000000180030958     libucrt:nlsdata.obj
 0002:00009960       ??_C@_17ICPELBCN@?$AAA?$AAu?$AAg?$AA?$AA@ 0000000180030960     libucrt:nlsdata.obj
 0002:00009968       ??_C@_17HCHCOKMG@?$AAS?$AAe?$AAp?$AA?$AA@ 0000000180030968     libucrt:nlsdata.obj
 0002:00009970       ??_C@_17FNLKOI@?$AAO?$AAc?$AAt?$AA?$AA@ 0000000180030970     libucrt:nlsdata.obj
 0002:00009978       ??_C@_17BBDMLCIG@?$AAN?$AAo?$AAv?$AA?$AA@ 0000000180030978     libucrt:nlsdata.obj
 0002:00009980       ??_C@_17EGKACKIF@?$AAD?$AAe?$AAc?$AA?$AA@ 0000000180030980     libucrt:nlsdata.obj
 0002:00009988       ??_C@_1BA@EFMEIEBA@?$AAJ?$AAa?$AAn?$AAu?$AAa?$AAr?$AAy?$AA?$AA@ 0000000180030988     libucrt:nlsdata.obj
 0002:00009998       ??_C@_1BC@JGDDFFAM@?$AAF?$AAe?$AAb?$AAr?$AAu?$AAa?$AAr?$AAy?$AA?$AA@ 0000000180030998     libucrt:nlsdata.obj
 0002:000099b0       ??_C@_1M@IKEENEDF@?$AAM?$AAa?$AAr?$AAc?$AAh?$AA?$AA@ 00000001800309b0     libucrt:nlsdata.obj
 0002:000099c0       ??_C@_1M@GJNLMHFD@?$AAA?$AAp?$AAr?$AAi?$AAl?$AA?$AA@ 00000001800309c0     libucrt:nlsdata.obj
 0002:000099d0       ??_C@_19EPFLPGAP@?$AAJ?$AAu?$AAn?$AAe?$AA?$AA@ 00000001800309d0     libucrt:nlsdata.obj
 0002:000099e0       ??_C@_19BIFMLPCD@?$AAJ?$AAu?$AAl?$AAy?$AA?$AA@ 00000001800309e0     libucrt:nlsdata.obj
 0002:000099f0       ??_C@_1O@PAHLKOAC@?$AAA?$AAu?$AAg?$AAu?$AAs?$AAt?$AA?$AA@ 00000001800309f0     libucrt:nlsdata.obj
 0002:00009a00       ??_C@_1BE@DKAAMBJL@?$AAS?$AAe?$AAp?$AAt?$AAe?$AAm?$AAb?$AAe?$AAr?$AA?$AA@ 0000000180030a00     libucrt:nlsdata.obj
 0002:00009a18       ??_C@_1BA@EPANDLNG@?$AAO?$AAc?$AAt?$AAo?$AAb?$AAe?$AAr?$AA?$AA@ 0000000180030a18     libucrt:nlsdata.obj
 0002:00009a28       ??_C@_1BC@BGLIFPF@?$AAN?$AAo?$AAv?$AAe?$AAm?$AAb?$AAe?$AAr?$AA?$AA@ 0000000180030a28     libucrt:nlsdata.obj
 0002:00009a40       ??_C@_1BC@FEMKIFH@?$AAD?$AAe?$AAc?$AAe?$AAm?$AAb?$AAe?$AAr?$AA?$AA@ 0000000180030a40     libucrt:nlsdata.obj
 0002:00009a54       ??_C@_15ODEHAHHF@?$AAA?$AAM?$AA?$AA@ 0000000180030a54     libucrt:nlsdata.obj
 0002:00009a5c       ??_C@_15CLMNNGEL@?$AAP?$AAM?$AA?$AA@ 0000000180030a5c     libucrt:nlsdata.obj
 0002:00009a68       ??_C@_1BC@IEBCMHCM@?$AAM?$AAM?$AA?1?$AAd?$AAd?$AA?1?$AAy?$AAy?$AA?$AA@ 0000000180030a68     libucrt:nlsdata.obj
 0002:00009a80       ??_C@_1CI@KNAKOEBC@?$AAd?$AAd?$AAd?$AAd?$AA?0?$AA?5?$AAM?$AAM?$AAM?$AAM?$AA?5?$AAd?$AAd?$AA?0?$AA?5?$AAy?$AAy?$AAy?$AAy?$AA?$AA@ 0000000180030a80     libucrt:nlsdata.obj
 0002:00009aa8       ??_C@_1BC@GDGBMEMK@?$AAH?$AAH?$AA?3?$AAm?$AAm?$AA?3?$AAs?$AAs?$AA?$AA@ 0000000180030aa8     libucrt:nlsdata.obj
 0002:00009c90       ??_C@_03KHJOGHMM@exp?$AA@  0000000180030c90     libucrt:fpexcept.obj
 0002:00009c94       ??_C@_03JGHBODFD@pow?$AA@  0000000180030c94     libucrt:fpexcept.obj
 0002:00009c98       ??_C@_03MGHMBJCF@log?$AA@  0000000180030c98     libucrt:fpexcept.obj
 0002:00009c9c       ??_C@_05HGHHAHAP@log10?$AA@ 0000000180030c9c     libucrt:fpexcept.obj
 0002:00009ca4       ??_C@_04COOMCNPB@sinh?$AA@ 0000000180030ca4     libucrt:fpexcept.obj
 0002:00009cac       ??_C@_04HPJJNFIM@cosh?$AA@ 0000000180030cac     libucrt:fpexcept.obj
 0002:00009cb4       ??_C@_04FJHINJAO@tanh?$AA@ 0000000180030cb4     libucrt:fpexcept.obj
 0002:00009cbc       ??_C@_04FIHNOPOL@asin?$AA@ 0000000180030cbc     libucrt:fpexcept.obj
 0002:00009cc4       ??_C@_04PDIFKINK@acos?$AA@ 0000000180030cc4     libucrt:fpexcept.obj
 0002:00009ccc       ??_C@_04MLLJIGOK@atan?$AA@ 0000000180030ccc     libucrt:fpexcept.obj
 0002:00009cd4       ??_C@_05KNGEOGJB@atan2?$AA@ 0000000180030cd4     libucrt:fpexcept.obj
 0002:00009cdc       ??_C@_04EIAKFFMI@sqrt?$AA@ 0000000180030cdc     libucrt:fpexcept.obj
 0002:00009ce4       ??_C@_03BLEJJJBH@sin?$AA@  0000000180030ce4     libucrt:fpexcept.obj
 0002:00009ce8       ??_C@_03LALBNOCG@cos?$AA@  0000000180030ce8     libucrt:fpexcept.obj
 0002:00009cec       ??_C@_03IIINPABG@tan?$AA@  0000000180030cec     libucrt:fpexcept.obj
 0002:00009cf0       ??_C@_04GFPJNGEK@ceil?$AA@ 0000000180030cf0     libucrt:fpexcept.obj
 0002:00009cf8       ??_C@_05PBJFFIGL@floor?$AA@ 0000000180030cf8     libucrt:fpexcept.obj
 0002:00009d00       ??_C@_04ODHECPBC@fabs?$AA@ 0000000180030d00     libucrt:fpexcept.obj
 0002:00009d08       ??_C@_04EHEDPDJG@modf?$AA@ 0000000180030d08     libucrt:fpexcept.obj
 0002:00009d10       ??_C@_05CEJMAHNP@ldexp?$AA@ 0000000180030d10     libucrt:fpexcept.obj
 0002:00009d18       ??_C@_05KBKMEMPO@_cabs?$AA@ 0000000180030d18     libucrt:fpexcept.obj
 0002:00009d20       ??_C@_06MEIMCGCF@_hypot?$AA@ 0000000180030d20     libucrt:fpexcept.obj
 0002:00009d28       ??_C@_04KEPJIHGP@fmod?$AA@ 0000000180030d28     libucrt:fpexcept.obj
 0002:00009d30       ??_C@_05GKKHEGJL@frexp?$AA@ 0000000180030d30     libucrt:fpexcept.obj
 0002:00009d38       ??_C@_03MJLDFKDL@_y0?$AA@  0000000180030d38     libucrt:fpexcept.obj
 0002:00009d3c       ??_C@_03NAKIGLHK@_y1?$AA@  0000000180030d3c     libucrt:fpexcept.obj
 0002:00009d40       ??_C@_03ONILCKOB@_yn?$AA@  0000000180030d40     libucrt:fpexcept.obj
 0002:00009d44       ??_C@_05JGDBENOH@_logb?$AA@ 0000000180030d44     libucrt:fpexcept.obj
 0002:00009d50       ??_C@_0L@KDOEJCKC@_nextafter?$AA@ 0000000180030d50     libucrt:fpexcept.obj
 0002:00009d60       _d_inf                     0000000180030d60     libucrt:util.obj
 0002:00009d68       _d_max                     0000000180030d68     libucrt:util.obj
 0002:00009d70       __log_256_lead             0000000180030d70     libucrt:log_256_lead_tail_table.obj
 0002:0000a580       __log_256_tail             0000000180031580     libucrt:log_256_lead_tail_table.obj
 0002:0000ad90       __two_to_jby64_head_table  0000000180031d90     libucrt:two_to_jby64_head_tail_table.obj
 0002:0000af90       __two_to_jby64_tail_table  0000000180031f90     libucrt:two_to_jby64_head_tail_table.obj
 0002:0000b190       ??_C@_04MBFDLNIM@powf?$AA@ 0000000180032190     libucrt:pow_special.obj
 0002:0000b1a0       __two_to_jby64_table       00000001800321a0     libucrt:two_to_jby64_table.obj
 0002:0000b3a0       __log_F_inv_qword          00000001800323a0     libucrt:log_f_inv_qword_table.obj
 0002:0000d850       ??_C@_01GBGANLPD@0?$AA@    0000000180034850     libucrt:cfout.obj
 0002:0000d854       ??_C@_05DNEBIAHO@1?$CDINF?$AA@ 0000000180034854     libucrt:cfout.obj
 0002:0000d85c       ??_C@_06IMKFLFPG@1?$CDQNAN?$AA@ 000000018003485c     libucrt:cfout.obj
 0002:0000d864       ??_C@_06PGGFOGJG@1?$CDSNAN?$AA@ 0000000180034864     libucrt:cfout.obj
 0002:0000d86c       ??_C@_05PHHOCPM@1?$CDIND?$AA@ 000000018003486c     libucrt:cfout.obj
 0002:0000d880       __acrt_rg_language         0000000180034880     libucrt:get_qualified_locale.obj
 0002:0000dc90       __acrt_rg_language_count   0000000180034c90     libucrt:get_qualified_locale.obj
 0002:0000dca0       __acrt_rg_country          0000000180034ca0     libucrt:get_qualified_locale.obj
 0002:0000de10       __acrt_rg_country_count    0000000180034e10     libucrt:get_qualified_locale.obj
 0002:0000de18       ??_C@_1BC@LLOKLNP@?$AAa?$AAm?$AAe?$AAr?$AAi?$AAc?$AAa?$AAn?$AA?$AA@ 0000000180034e18     libucrt:get_qualified_locale.obj
 0002:0000de30       ??_C@_1CC@HEIGCDGG@?$AAa?$AAm?$AAe?$AAr?$AAi?$AAc?$AAa?$AAn?$AA?5?$AAe?$AAn?$AAg?$AAl?$AAi?$AAs?$AAh?$AA?$AA@ 0000000180034e30     libucrt:get_qualified_locale.obj
 0002:0000de58       ??_C@_1CC@IHCNOMIN@?$AAa?$AAm?$AAe?$AAr?$AAi?$AAc?$AAa?$AAn?$AA?9?$AAe?$AAn?$AAg?$AAl?$AAi?$AAs?$AAh?$AA?$AA@ 0000000180034e58     libucrt:get_qualified_locale.obj
 0002:0000de80       ??_C@_1BG@GKAGPCGG@?$AAa?$AAu?$AAs?$AAt?$AAr?$AAa?$AAl?$AAi?$AAa?$AAn?$AA?$AA@ 0000000180034e80     libucrt:get_qualified_locale.obj
 0002:0000de98       ??_C@_1BA@GMENCENF@?$AAb?$AAe?$AAl?$AAg?$AAi?$AAa?$AAn?$AA?$AA@ 0000000180034e98     libucrt:get_qualified_locale.obj
 0002:0000dea8       ??_C@_1BC@PJMIIAAN@?$AAc?$AAa?$AAn?$AAa?$AAd?$AAi?$AAa?$AAn?$AA?$AA@ 0000000180034ea8     libucrt:get_qualified_locale.obj
 0002:0000dec0       ??_C@_17NOIMNFBF@?$AAc?$AAh?$AAh?$AA?$AA@ 0000000180034ec0     libucrt:get_qualified_locale.obj
 0002:0000dec8       ??_C@_17GGDALCHA@?$AAc?$AAh?$AAi?$AA?$AA@ 0000000180034ec8     libucrt:get_qualified_locale.obj
 0002:0000ded0       ??_C@_1BA@NPNJKIBL@?$AAc?$AAh?$AAi?$AAn?$AAe?$AAs?$AAe?$AA?$AA@ 0000000180034ed0     libucrt:get_qualified_locale.obj
 0002:0000dee0       ??_C@_1CC@DINBAMMJ@?$AAc?$AAh?$AAi?$AAn?$AAe?$AAs?$AAe?$AA?9?$AAh?$AAo?$AAn?$AAg?$AAk?$AAo?$AAn?$AAg?$AA?$AA@ 0000000180034ee0     libucrt:get_qualified_locale.obj
 0002:0000df08       ??_C@_1CG@IOBJPACO@?$AAc?$AAh?$AAi?$AAn?$AAe?$AAs?$AAe?$AA?9?$AAs?$AAi?$AAm?$AAp?$AAl?$AAi?$AAf?$AAi?$AAe?$AAd?$AA?$AA@ 0000000180034f08     libucrt:get_qualified_locale.obj
 0002:0000df30       ??_C@_1CE@GAJNDCKG@?$AAc?$AAh?$AAi?$AAn?$AAe?$AAs?$AAe?$AA?9?$AAs?$AAi?$AAn?$AAg?$AAa?$AAp?$AAo?$AAr?$AAe?$AA?$AA@ 0000000180034f30     libucrt:get_qualified_locale.obj
 0002:0000df58       ??_C@_1CI@PAJPIOOD@?$AAc?$AAh?$AAi?$AAn?$AAe?$AAs?$AAe?$AA?9?$AAt?$AAr?$AAa?$AAd?$AAi?$AAt?$AAi?$AAo?$AAn?$AAa?$AAl?$AA?$AA@ 0000000180034f58     libucrt:get_qualified_locale.obj
 0002:0000df80       ??_C@_1BM@NILJBMMD@?$AAd?$AAu?$AAt?$AAc?$AAh?$AA?9?$AAb?$AAe?$AAl?$AAg?$AAi?$AAa?$AAn?$AA?$AA@ 0000000180034f80     libucrt:get_qualified_locale.obj
 0002:0000dfa0       ??_C@_1CC@OOJPJNEJ@?$AAe?$AAn?$AAg?$AAl?$AAi?$AAs?$AAh?$AA?9?$AAa?$AAm?$AAe?$AAr?$AAi?$AAc?$AAa?$AAn?$AA?$AA@ 0000000180034fa0     libucrt:get_qualified_locale.obj
 0002:0000dfc8       ??_C@_1BI@IOLFEEM@?$AAe?$AAn?$AAg?$AAl?$AAi?$AAs?$AAh?$AA?9?$AAa?$AAu?$AAs?$AA?$AA@ 0000000180034fc8     libucrt:get_qualified_locale.obj
 0002:0000dfe0       ??_C@_1BO@HFFNLENJ@?$AAe?$AAn?$AAg?$AAl?$AAi?$AAs?$AAh?$AA?9?$AAb?$AAe?$AAl?$AAi?$AAz?$AAe?$AA?$AA@ 0000000180034fe0     libucrt:get_qualified_locale.obj
 0002:0000e000       ??_C@_1BI@HAPKJMPO@?$AAe?$AAn?$AAg?$AAl?$AAi?$AAs?$AAh?$AA?9?$AAc?$AAa?$AAn?$AA?$AA@ 0000000180035000     libucrt:get_qualified_locale.obj
 0002:0000e018       ??_C@_1CE@HLNDMIOJ@?$AAe?$AAn?$AAg?$AAl?$AAi?$AAs?$AAh?$AA?9?$AAc?$AAa?$AAr?$AAi?$AAb?$AAb?$AAe?$AAa?$AAn?$AA?$AA@ 0000000180035018     libucrt:get_qualified_locale.obj
 0002:0000e040       ??_C@_1BI@LDHJHHAC@?$AAe?$AAn?$AAg?$AAl?$AAi?$AAs?$AAh?$AA?9?$AAi?$AAr?$AAe?$AA?$AA@ 0000000180035040     libucrt:get_qualified_locale.obj
 0002:0000e058       ??_C@_1CA@NJMMCFOC@?$AAe?$AAn?$AAg?$AAl?$AAi?$AAs?$AAh?$AA?9?$AAj?$AAa?$AAm?$AAa?$AAi?$AAc?$AAa?$AA?$AA@ 0000000180035058     libucrt:get_qualified_locale.obj
 0002:0000e078       ??_C@_1BG@BHJEBBGG@?$AAe?$AAn?$AAg?$AAl?$AAi?$AAs?$AAh?$AA?9?$AAn?$AAz?$AA?$AA@ 0000000180035078     libucrt:get_qualified_locale.obj
 0002:0000e090       ??_C@_1CK@FGOEJJCO@?$AAe?$AAn?$AAg?$AAl?$AAi?$AAs?$AAh?$AA?9?$AAs?$AAo?$AAu?$AAt?$AAh?$AA?5?$AAa?$AAf?$AAr?$AAi?$AAc?$AAa?$AA?$AA@ 0000000180035090     libucrt:get_qualified_locale.obj
 0002:0000e0c0       ??_C@_1DE@PDBJPCJ@?$AAe?$AAn?$AAg?$AAl?$AAi?$AAs?$AAh?$AA?9?$AAt?$AAr?$AAi?$AAn?$AAi?$AAd?$AAa?$AAd?$AA?5?$AAy?$AA?5?$AAt?$AAo?$AAb?$AAa?$AAg?$AAo?$AA?$AA@ 00000001800350c0     libucrt:get_qualified_locale.obj
 0002:0000e0f8       ??_C@_1BG@JGCANDME@?$AAe?$AAn?$AAg?$AAl?$AAi?$AAs?$AAh?$AA?9?$AAu?$AAk?$AA?$AA@ 00000001800350f8     libucrt:get_qualified_locale.obj
 0002:0000e110       ??_C@_1BG@DINKMLE@?$AAe?$AAn?$AAg?$AAl?$AAi?$AAs?$AAh?$AA?9?$AAu?$AAs?$AA?$AA@ 0000000180035110     libucrt:get_qualified_locale.obj
 0002:0000e128       ??_C@_1BI@NMFDBHJE@?$AAe?$AAn?$AAg?$AAl?$AAi?$AAs?$AAh?$AA?9?$AAu?$AAs?$AAa?$AA?$AA@ 0000000180035128     libucrt:get_qualified_locale.obj
 0002:0000e140       ??_C@_1BO@OIHKJKII@?$AAf?$AAr?$AAe?$AAn?$AAc?$AAh?$AA?9?$AAb?$AAe?$AAl?$AAg?$AAi?$AAa?$AAn?$AA?$AA@ 0000000180035140     libucrt:get_qualified_locale.obj
 0002:0000e160       ??_C@_1CA@NKAELJKI@?$AAf?$AAr?$AAe?$AAn?$AAc?$AAh?$AA?9?$AAc?$AAa?$AAn?$AAa?$AAd?$AAi?$AAa?$AAn?$AA?$AA@ 0000000180035160     libucrt:get_qualified_locale.obj
 0002:0000e180       ??_C@_1CE@MGKCNLGN@?$AAf?$AAr?$AAe?$AAn?$AAc?$AAh?$AA?9?$AAl?$AAu?$AAx?$AAe?$AAm?$AAb?$AAo?$AAu?$AAr?$AAg?$AA?$AA@ 0000000180035180     libucrt:get_qualified_locale.obj
 0002:0000e1a8       ??_C@_1BK@CEGEAILM@?$AAf?$AAr?$AAe?$AAn?$AAc?$AAh?$AA?9?$AAs?$AAw?$AAi?$AAs?$AAs?$AA?$AA@ 00000001800351a8     libucrt:get_qualified_locale.obj
 0002:0000e1c8       ??_C@_1CA@PAFKEOCC@?$AAg?$AAe?$AAr?$AAm?$AAa?$AAn?$AA?9?$AAa?$AAu?$AAs?$AAt?$AAr?$AAi?$AAa?$AAn?$AA?$AA@ 00000001800351c8     libucrt:get_qualified_locale.obj
 0002:0000e1e8       ??_C@_1CI@HCFHGOFD@?$AAg?$AAe?$AAr?$AAm?$AAa?$AAn?$AA?9?$AAl?$AAi?$AAc?$AAh?$AAt?$AAe?$AAn?$AAs?$AAt?$AAe?$AAi?$AAn?$AA?$AA@ 00000001800351e8     libucrt:get_qualified_locale.obj
 0002:0000e210       ??_C@_1CE@FEDDNPDG@?$AAg?$AAe?$AAr?$AAm?$AAa?$AAn?$AA?9?$AAl?$AAu?$AAx?$AAe?$AAm?$AAb?$AAo?$AAu?$AAr?$AAg?$AA?$AA@ 0000000180035210     libucrt:get_qualified_locale.obj
 0002:0000e238       ??_C@_1BK@LIMINNMN@?$AAg?$AAe?$AAr?$AAm?$AAa?$AAn?$AA?9?$AAs?$AAw?$AAi?$AAs?$AAs?$AA?$AA@ 0000000180035238     libucrt:get_qualified_locale.obj
 0002:0000e258       ??_C@_1BM@LGMDBEPD@?$AAi?$AAr?$AAi?$AAs?$AAh?$AA?9?$AAe?$AAn?$AAg?$AAl?$AAi?$AAs?$AAh?$AA?$AA@ 0000000180035258     libucrt:get_qualified_locale.obj
 0002:0000e278       ??_C@_1BM@NNCFBAEE@?$AAi?$AAt?$AAa?$AAl?$AAi?$AAa?$AAn?$AA?9?$AAs?$AAw?$AAi?$AAs?$AAs?$AA?$AA@ 0000000180035278     libucrt:get_qualified_locale.obj
 0002:0000e298       ??_C@_1BE@FEDJNPIB@?$AAn?$AAo?$AAr?$AAw?$AAe?$AAg?$AAi?$AAa?$AAn?$AA?$AA@ 0000000180035298     libucrt:get_qualified_locale.obj
 0002:0000e2b0       ??_C@_1CC@CILKDEIE@?$AAn?$AAo?$AAr?$AAw?$AAe?$AAg?$AAi?$AAa?$AAn?$AA?9?$AAb?$AAo?$AAk?$AAm?$AAa?$AAl?$AA?$AA@ 00000001800352b0     libucrt:get_qualified_locale.obj
 0002:0000e2d8       ??_C@_1CE@DHMMHEPL@?$AAn?$AAo?$AAr?$AAw?$AAe?$AAg?$AAi?$AAa?$AAn?$AA?9?$AAn?$AAy?$AAn?$AAo?$AAr?$AAs?$AAk?$AA?$AA@ 00000001800352d8     libucrt:get_qualified_locale.obj
 0002:0000e300       ??_C@_1CK@OPNMHECD@?$AAp?$AAo?$AAr?$AAt?$AAu?$AAg?$AAu?$AAe?$AAs?$AAe?$AA?9?$AAb?$AAr?$AAa?$AAz?$AAi?$AAl?$AAi?$AAa?$AAn?$AA?$AA@ 0000000180035300     libucrt:get_qualified_locale.obj
 0002:0000e330       ??_C@_1CE@KEEHCDB@?$AAs?$AAp?$AAa?$AAn?$AAi?$AAs?$AAh?$AA?9?$AAa?$AAr?$AAg?$AAe?$AAn?$AAt?$AAi?$AAn?$AAa?$AA?$AA@ 0000000180035330     libucrt:get_qualified_locale.obj
 0002:0000e358       ??_C@_1CA@GIAOLHJD@?$AAs?$AAp?$AAa?$AAn?$AAi?$AAs?$AAh?$AA?9?$AAb?$AAo?$AAl?$AAi?$AAv?$AAi?$AAa?$AA?$AA@ 0000000180035358     libucrt:get_qualified_locale.obj
 0002:0000e378       ??_C@_1BM@OJNDFNPD@?$AAs?$AAp?$AAa?$AAn?$AAi?$AAs?$AAh?$AA?9?$AAc?$AAh?$AAi?$AAl?$AAe?$AA?$AA@ 0000000180035378     libucrt:get_qualified_locale.obj
 0002:0000e398       ??_C@_1CC@OCOLPALL@?$AAs?$AAp?$AAa?$AAn?$AAi?$AAs?$AAh?$AA?9?$AAc?$AAo?$AAl?$AAo?$AAm?$AAb?$AAi?$AAa?$AA?$AA@ 0000000180035398     libucrt:get_qualified_locale.obj
 0002:0000e3c0       ??_C@_1CG@BPOFMKBB@?$AAs?$AAp?$AAa?$AAn?$AAi?$AAs?$AAh?$AA?9?$AAc?$AAo?$AAs?$AAt?$AAa?$AA?5?$AAr?$AAi?$AAc?$AAa?$AA?$AA@ 00000001800353c0     libucrt:get_qualified_locale.obj
 0002:0000e3e8       ??_C@_1DG@IGOBAPBB@?$AAs?$AAp?$AAa?$AAn?$AAi?$AAs?$AAh?$AA?9?$AAd?$AAo?$AAm?$AAi?$AAn?$AAi?$AAc?$AAa?$AAn?$AA?5?$AAr?$AAe?$AAp?$AAu?$AAb?$AAl?$AAi?$AAc?$AA?$AA@ 00000001800353e8     libucrt:get_qualified_locale.obj
 0002:0000e420       ??_C@_1CA@JHAPGEGI@?$AAs?$AAp?$AAa?$AAn?$AAi?$AAs?$AAh?$AA?9?$AAe?$AAc?$AAu?$AAa?$AAd?$AAo?$AAr?$AA?$AA@ 0000000180035420     libucrt:get_qualified_locale.obj
 0002:0000e440       ??_C@_1CI@LAPALJPP@?$AAs?$AAp?$AAa?$AAn?$AAi?$AAs?$AAh?$AA?9?$AAe?$AAl?$AA?5?$AAs?$AAa?$AAl?$AAv?$AAa?$AAd?$AAo?$AAr?$AA?$AA@ 0000000180035440     libucrt:get_qualified_locale.obj
 0002:0000e468       ??_C@_1CE@PDGBOFOM@?$AAs?$AAp?$AAa?$AAn?$AAi?$AAs?$AAh?$AA?9?$AAg?$AAu?$AAa?$AAt?$AAe?$AAm?$AAa?$AAl?$AAa?$AA?$AA@ 0000000180035468     libucrt:get_qualified_locale.obj
 0002:0000e490       ??_C@_1CC@NBEBAODI@?$AAs?$AAp?$AAa?$AAn?$AAi?$AAs?$AAh?$AA?9?$AAh?$AAo?$AAn?$AAd?$AAu?$AAr?$AAa?$AAs?$AA?$AA@ 0000000180035490     libucrt:get_qualified_locale.obj
 0002:0000e4b8       ??_C@_1CA@LLKGHBMF@?$AAs?$AAp?$AAa?$AAn?$AAi?$AAs?$AAh?$AA?9?$AAm?$AAe?$AAx?$AAi?$AAc?$AAa?$AAn?$AA?$AA@ 00000001800354b8     libucrt:get_qualified_locale.obj
 0002:0000e4d8       ??_C@_1BO@LKNDOIGD@?$AAs?$AAp?$AAa?$AAn?$AAi?$AAs?$AAh?$AA?9?$AAm?$AAo?$AAd?$AAe?$AAr?$AAn?$AA?$AA@ 00000001800354d8     libucrt:get_qualified_locale.obj
 0002:0000e4f8       ??_C@_1CE@NMDMOEEB@?$AAs?$AAp?$AAa?$AAn?$AAi?$AAs?$AAh?$AA?9?$AAn?$AAi?$AAc?$AAa?$AAr?$AAa?$AAg?$AAu?$AAa?$AA?$AA@ 00000001800354f8     libucrt:get_qualified_locale.obj
 0002:0000e520       ??_C@_1BO@LLCBEJGB@?$AAs?$AAp?$AAa?$AAn?$AAi?$AAs?$AAh?$AA?9?$AAp?$AAa?$AAn?$AAa?$AAm?$AAa?$AA?$AA@ 0000000180035520     libucrt:get_qualified_locale.obj
 0002:0000e540       ??_C@_1CC@FKPGGIHO@?$AAs?$AAp?$AAa?$AAn?$AAi?$AAs?$AAh?$AA?9?$AAp?$AAa?$AAr?$AAa?$AAg?$AAu?$AAa?$AAy?$AA?$AA@ 0000000180035540     libucrt:get_qualified_locale.obj
 0002:0000e568       ??_C@_1BK@CDEIHOOP@?$AAs?$AAp?$AAa?$AAn?$AAi?$AAs?$AAh?$AA?9?$AAp?$AAe?$AAr?$AAu?$AA?$AA@ 0000000180035568     libucrt:get_qualified_locale.obj
 0002:0000e588       ??_C@_1CI@GAHAKKGP@?$AAs?$AAp?$AAa?$AAn?$AAi?$AAs?$AAh?$AA?9?$AAp?$AAu?$AAe?$AAr?$AAt?$AAo?$AA?5?$AAr?$AAi?$AAc?$AAo?$AA?$AA@ 0000000180035588     libucrt:get_qualified_locale.obj
 0002:0000e5b0       ??_C@_1CA@NKJBCAGP@?$AAs?$AAp?$AAa?$AAn?$AAi?$AAs?$AAh?$AA?9?$AAu?$AAr?$AAu?$AAg?$AAu?$AAa?$AAy?$AA?$AA@ 00000001800355b0     libucrt:get_qualified_locale.obj
 0002:0000e5d0       ??_C@_1CE@ODILCONM@?$AAs?$AAp?$AAa?$AAn?$AAi?$AAs?$AAh?$AA?9?$AAv?$AAe?$AAn?$AAe?$AAz?$AAu?$AAe?$AAl?$AAa?$AA?$AA@ 00000001800355d0     libucrt:get_qualified_locale.obj
 0002:0000e5f8       ??_C@_1CA@OBNMCGFO@?$AAs?$AAw?$AAe?$AAd?$AAi?$AAs?$AAh?$AA?9?$AAf?$AAi?$AAn?$AAl?$AAa?$AAn?$AAd?$AA?$AA@ 00000001800355f8     libucrt:get_qualified_locale.obj
 0002:0000e618       ??_C@_1M@PIPDDPPI@?$AAs?$AAw?$AAi?$AAs?$AAs?$AA?$AA@ 0000000180035618     libucrt:get_qualified_locale.obj
 0002:0000e624       ??_C@_15GMFIMNFM@?$AAu?$AAs?$AA?$AA@ 0000000180035624     libucrt:get_qualified_locale.obj
 0002:0000e630       ??_C@_17HAEBFAGL@?$AAu?$AAs?$AAa?$AA?$AA@ 0000000180035630     libucrt:get_qualified_locale.obj
 0002:0000e638       ??_C@_1BA@DPFJEPHB@?$AAa?$AAm?$AAe?$AAr?$AAi?$AAc?$AAa?$AA?$AA@ 0000000180035638     libucrt:get_qualified_locale.obj
 0002:0000e648       ??_C@_1BA@ELOGGFK@?$AAb?$AAr?$AAi?$AAt?$AAa?$AAi?$AAn?$AA?$AA@ 0000000180035648     libucrt:get_qualified_locale.obj
 0002:0000e658       ??_C@_1M@GHBGIGDA@?$AAc?$AAh?$AAi?$AAn?$AAa?$AA?$AA@ 0000000180035658     libucrt:get_qualified_locale.obj
 0002:0000e668       ??_C@_1M@NCHEJOPO@?$AAc?$AAz?$AAe?$AAc?$AAh?$AA?$AA@ 0000000180035668     libucrt:get_qualified_locale.obj
 0002:0000e678       ??_C@_1BA@BKPAPBLA@?$AAe?$AAn?$AAg?$AAl?$AAa?$AAn?$AAd?$AA?$AA@ 0000000180035678     libucrt:get_qualified_locale.obj
 0002:0000e688       ??_C@_1BM@HKBCKIPC@?$AAg?$AAr?$AAe?$AAa?$AAt?$AA?5?$AAb?$AAr?$AAi?$AAt?$AAa?$AAi?$AAn?$AA?$AA@ 0000000180035688     libucrt:get_qualified_locale.obj
 0002:0000e6a8       ??_C@_1BA@PPCHPGJB@?$AAh?$AAo?$AAl?$AAl?$AAa?$AAn?$AAd?$AA?$AA@ 00000001800356a8     libucrt:get_qualified_locale.obj
 0002:0000e6b8       ??_C@_1BE@JBMPEGDG@?$AAh?$AAo?$AAn?$AAg?$AA?9?$AAk?$AAo?$AAn?$AAg?$AA?$AA@ 00000001800356b8     libucrt:get_qualified_locale.obj
 0002:0000e6d0       ??_C@_1BI@KOELBBPJ@?$AAn?$AAe?$AAw?$AA?9?$AAz?$AAe?$AAa?$AAl?$AAa?$AAn?$AAd?$AA?$AA@ 00000001800356d0     libucrt:get_qualified_locale.obj
 0002:0000e6e8       ??_C@_15HIEBHAIO@?$AAn?$AAz?$AA?$AA@ 00000001800356e8     libucrt:get_qualified_locale.obj
 0002:0000e6f0       ??_C@_1BC@CHBCPFPI@?$AAp?$AAr?$AA?5?$AAc?$AAh?$AAi?$AAn?$AAa?$AA?$AA@ 00000001800356f0     libucrt:get_qualified_locale.obj
 0002:0000e708       ??_C@_1BC@JAOIIFKD@?$AAp?$AAr?$AA?9?$AAc?$AAh?$AAi?$AAn?$AAa?$AA?$AA@ 0000000180035708     libucrt:get_qualified_locale.obj
 0002:0000e720       ??_C@_1BI@BEHPPHKC@?$AAp?$AAu?$AAe?$AAr?$AAt?$AAo?$AA?9?$AAr?$AAi?$AAc?$AAo?$AA?$AA@ 0000000180035720     libucrt:get_qualified_locale.obj
 0002:0000e738       ??_C@_1O@PAEOFKDI@?$AAs?$AAl?$AAo?$AAv?$AAa?$AAk?$AA?$AA@ 0000000180035738     libucrt:get_qualified_locale.obj
 0002:0000e748       ??_C@_1BK@FIHMCKAM@?$AAs?$AAo?$AAu?$AAt?$AAh?$AA?5?$AAa?$AAf?$AAr?$AAi?$AAc?$AAa?$AA?$AA@ 0000000180035748     libucrt:get_qualified_locale.obj
 0002:0000e768       ??_C@_1BI@NAEOODKB@?$AAs?$AAo?$AAu?$AAt?$AAh?$AA?5?$AAk?$AAo?$AAr?$AAe?$AAa?$AA?$AA@ 0000000180035768     libucrt:get_qualified_locale.obj
 0002:0000e780       ??_C@_1BK@FBDGGIFF@?$AAs?$AAo?$AAu?$AAt?$AAh?$AA?9?$AAa?$AAf?$AAr?$AAi?$AAc?$AAa?$AA?$AA@ 0000000180035780     libucrt:get_qualified_locale.obj
 0002:0000e7a0       ??_C@_1BI@GHLEJDPK@?$AAs?$AAo?$AAu?$AAt?$AAh?$AA?9?$AAk?$AAo?$AAr?$AAe?$AAa?$AA?$AA@ 00000001800357a0     libucrt:get_qualified_locale.obj
 0002:0000e7b8       ??_C@_1CE@PLHLOMJF@?$AAt?$AAr?$AAi?$AAn?$AAi?$AAd?$AAa?$AAd?$AA?5?$AA?$CG?$AA?5?$AAt?$AAo?$AAb?$AAa?$AAg?$AAo?$AA?$AA@ 00000001800357b8     libucrt:get_qualified_locale.obj
 0002:0000e7e0       ??_C@_1BO@MODIMHHI@?$AAu?$AAn?$AAi?$AAt?$AAe?$AAd?$AA?9?$AAk?$AAi?$AAn?$AAg?$AAd?$AAo?$AAm?$AA?$AA@ 00000001800357e0     libucrt:get_qualified_locale.obj
 0002:0000e800       ??_C@_1BM@FFHJONBJ@?$AAu?$AAn?$AAi?$AAt?$AAe?$AAd?$AA?9?$AAs?$AAt?$AAa?$AAt?$AAe?$AAs?$AA?$AA@ 0000000180035800     libucrt:get_qualified_locale.obj
 0002:0000e820       ??_C@_17DNCLJFIF@?$AAA?$AAC?$AAP?$AA?$AA@ 0000000180035820     libucrt:get_qualified_locale.obj
 0002:0000e828       ??_C@_17CIKBIHLH@?$AAO?$AAC?$AAP?$AA?$AA@ 0000000180035828     libucrt:get_qualified_locale.obj
 0002:0000e830       __rglangidNotDefault       0000000180035830     libucrt:getqloc_downlevel.obj
 0002:0000eab0       ??_C@_1BA@BALFACEM@?$AAC?$AAO?$AAN?$AAO?$AAU?$AAT?$AA$?$AA?$AA@ 0000000180035ab0     libucrt:initcon.obj
 0002:0000eac0       __log10_256_lead           0000000180035ac0     libucrt:log10_256_lead_tail_table.obj
 0002:0000f2d0       __log10_256_tail           00000001800362d0     libucrt:log10_256_lead_tail_table.obj
 0002:0000fad8       ??_C@_1BK@DBDEIDLH@?$AAK?$AAE?$AAR?$AAN?$AAE?$AAL?$AA3?$AA2?$AA?4?$AAD?$AAL?$AAL?$AA?$AA@ 0000000180036ad8     DelayImp:delayhlp.obj
 0002:0000faf8       __pfnDliFailureHook2       0000000180036af8     DelayImp:delayhk1.obj
 0002:0000fb00       _load_config_used          0000000180036b00     LIBCMT:loadcfg.obj
 0002:0000fb98       ??_C@_0BC@BDKFLDHL@unknown?5exception?$AA@ 0000000180036b98     tfe_utils.obj
 0002:0000fbb0       ??_C@_0BA@ELKIONDK@bad?5locale?5name?$AA@ 0000000180036bb0     tfe_utils.obj
 0002:0000fbc0       ??_C@_05LAPONLG@false?$AA@ 0000000180036bc0     tfe_utils.obj
 0002:0000fbc8       ??_C@_04LOAJBDKD@true?$AA@ 0000000180036bc8     tfe_utils.obj
 0002:0000fbcd       ??_C@_00CNPNBAHC@?$AA@     0000000180036bcd     tfe_utils.obj
 0002:0000fbd0       ??_C@_02LMMGGCAJ@?3?5?$AA@ 0000000180036bd0     tfe_utils.obj
 0002:0000fbd8       ??_C@_08LLGCOLLL@iostream?$AA@ 0000000180036bd8     tfe_utils.obj
 0002:0000fbe8       ??_C@_0BG@PADBLCHM@iostream?5stream?5error?$AA@ 0000000180036be8     tfe_utils.obj
 0002:0000fc00       ??_C@_0BF@PHHKMMFD@ios_base?3?3badbit?5set?$AA@ 0000000180036c00     tfe_utils.obj
 0002:0000fc18       ??_C@_0BG@FMKFHCIL@ios_base?3?3failbit?5set?$AA@ 0000000180036c18     tfe_utils.obj
 0002:0000fc30       ??_C@_0BF@OOHOMBOF@ios_base?3?3eofbit?5set?$AA@ 0000000180036c30     tfe_utils.obj
 0002:0000fc48       ??_C@_0BG@IDCHGLDE@Invalid?5napi_status?3?5?$AA@ 0000000180036c48     tfe_utils.obj
 0002:0000fc60       ??_C@_0BE@BOAAPHNC@Invalid?5TF_Status?3?5?$AA@ 0000000180036c60     tfe_utils.obj
 0002:0000fc78       ??_C@_09MGKALHMA@Message?3?5?$AA@ 0000000180036c78     tfe_utils.obj
 0002:0000fc88       ??_C@_0BK@INPMOLDM@Argument?5is?5not?5a?5string?$CB?$AA@ 0000000180036c88     tfe_utils.obj
 0002:0000fca8       ??_C@_0BI@JLDMAAGP@Unhandled?5TF_DataType?3?5?$AA@ 0000000180036ca8     tfe_utils.obj
 0002:0000fcc0       ??_C@_0BI@NJNINAEJ@Unhandled?5TF_AttrType?3?5?$AA@ 0000000180036cc0     tfe_utils.obj
 0002:0000fcd8       ??_C@_0CC@EDIAFNBH@Unhandled?5napi?5typed_array_type?3@ 0000000180036cd8     tfe_utils.obj
 0002:0000fd00       ??_C@_0BC@MGCCEEED@Argument?5is?5null?$CB?$AA@ 0000000180036d00     tfe_utils.obj
 0002:0000fd18       ??_C@_0CI@HELHKODL@Tensor?5type?5does?5not?5match?5Float@ 0000000180036d18     tfe_utils.obj
 0002:0000fd40       ??_C@_0CG@HIPCOGHD@Tensor?5type?5does?5not?5match?5Int32@ 0000000180036d40     tfe_utils.obj
 0002:0000fd68       ??_C@_0CG@IAAEPHFD@Tensor?5type?5does?5not?5match?5Uint8@ 0000000180036d68     tfe_utils.obj
 0002:0000fd90       ??_C@_0DD@LAJOJCBK@Byte?5size?5of?5elements?5differs?5be@ 0000000180036d90     tfe_utils.obj
 0002:0000fdc8       ??_C@_0CP@HHNEJMFA@Shape?5does?5not?5match?5typed?9array@ 0000000180036dc8     tfe_utils.obj
 0002:0000fdf8       ??_C@_0BE@FABJPFCO@Invalid?5TFE_Context?$AA@ 0000000180036df8     tfe_utils.obj
 0002:0000fe10       ??_C@_0BJ@MEBOGAJA@Invalid?5TFE_TensorHandle?$AA@ 0000000180036e10     tfe_utils.obj
 0002:0000fe2c       ??_C@_04MEMAJGDJ@name?$AA@ 0000000180036e2c     tfe_utils.obj
 0002:0000fe34       ??_C@_04GPMDFGEJ@type?$AA@ 0000000180036e34     tfe_utils.obj
 0002:0000fe3c       ??_C@_05MFEJDJP@value?$AA@ 0000000180036e3c     tfe_utils.obj
 0002:0000fe44       ??_C@_02BBAHNLBA@?$CFp?$AA@ 0000000180036e44     tfe_utils.obj
 0002:0000fe48       ??_C@_0BD@OLBABOEK@vector?$DMT?$DO?5too?5long?$AA@ 0000000180036e48     tfe_utils.obj
 0002:0000fe5c       ??_C@_02MDKMJEGG@eE?$AA@   0000000180036e5c     tfe_utils.obj
 0002:0000fe60       ??_C@_02OOPEBDOJ@pP?$AA@   0000000180036e60     tfe_utils.obj
 0002:0000fe68       ??_C@_0BA@JFNIOLAK@string?5too?5long?$AA@ 0000000180036e68     tfe_utils.obj
 0002:0000fe78       ??_C@_0BI@CFPLBAOH@invalid?5string?5position?$AA@ 0000000180036e78     tfe_utils.obj
 0002:0000fe90       ??_C@_0BE@JONHPENG@map?1set?$DMT?$DO?5too?5long?$AA@ 0000000180036e90     tfe_utils.obj
 0002:0000fea8       ??_7TF_AutoStatus@tfnodejs@@6B@ 0000000180036ea8     tfe_utils.obj
 0002:0000feb0       ??_7?$basic_streambuf@DU?$char_traits@D@std@@@std@@6B@ 0000000180036eb0     tfe_utils.obj
 0002:0000ff28       ??_7error_category@std@@6B@ 0000000180036f28     tfe_utils.obj
 0002:0000ff58       ??_7?$basic_ostringstream@DU?$char_traits@D@std@@V?$allocator@D@2@@std@@6B@ 0000000180036f58     tfe_utils.obj
 0002:0000ff60       ??_7_Iostream_error_category@std@@6B@ 0000000180036f60     tfe_utils.obj
 0002:0000ff90       ??_7ios_base@std@@6B@      0000000180036f90     tfe_utils.obj
 0002:0000ff98       ??_7?$basic_ios@DU?$char_traits@D@std@@@std@@6B@ 0000000180036f98     tfe_utils.obj
 0002:0000ffa0       ??_7exception@stdext@@6B@  0000000180036fa0     tfe_utils.obj
 0002:0000ffb8       ??_7?$basic_stringbuf@DU?$char_traits@D@std@@V?$allocator@D@2@@std@@6B@ 0000000180036fb8     tfe_utils.obj
 0002:00010030       ??_8?$basic_ostringstream@DU?$char_traits@D@std@@V?$allocator@D@2@@std@@7B@ 0000000180037030     tfe_utils.obj
 0002:00010038       ??_7?$basic_ostream@DU?$char_traits@D@std@@@std@@6B@ 0000000180037038     tfe_utils.obj
 0002:00010040       ??_7_System_error@std@@6B@ 0000000180037040     tfe_utils.obj
 0002:00010040       ??_7failure@ios_base@std@@6B@ 0000000180037040     tfe_utils.obj
 0002:00010058       ??_C@_0BP@HPLGFPOK@Exception?5creating?5TFE_Context?$AA@ 0000000180037058     tfjs_backend.obj
 0002:00010078       ??_C@_0CJ@FPKHJNML@Delete?5called?5on?5a?5Tensor?5not?5re@ 0000000180037078     tfjs_backend.obj
 0002:000100a8       ??_C@_0CL@KPDFBAIH@Get?5data?5called?5on?5a?5Tensor?5not?5@ 00000001800370a8     tfjs_backend.obj
 0002:000100d8       ??_C@_0BP@FCGKCHCG@Input?5Tensor?5ID?5not?5referenced?$AA@ 00000001800370d8     tfjs_backend.obj
 0002:000100f8       ??_C@_02EGCJHIOB@id?$AA@   00000001800370f8     tfjs_backend.obj
 0002:000100fc       ??_C@_05KFCIHKGL@shape?$AA@ 00000001800370fc     tfjs_backend.obj
 0002:00010104       ??_C@_05ILEGENLL@dtype?$AA@ 0000000180037104     tfjs_backend.obj
 0002:00010110       ??_C@_0BK@CMAIEMFK@Argument?5is?5not?5an?5array?$CB?$AA@ 0000000180037110     tfjs_binding.obj
 0002:00010130       ??_C@_0BP@OHFEJAI@Argument?5is?5not?5a?5typed?9array?$CB?$AA@ 0000000180037130     tfjs_binding.obj
 0002:00010150       ??_C@_0BL@LIFBAEIA@?4?4?2binding?2tfjs_binding?4cc?$AA@ 0000000180037150     tfjs_binding.obj
 0002:00010170       ??_C@_0DA@PPEEHJNO@Invalid?5number?5of?5args?5passed?5to@ 0000000180037170     tfjs_binding.obj
 0002:000101a0       ??_C@_0DA@ODKJNBPP@Invalid?5number?5of?5args?5passed?5to@ 00000001800371a0     tfjs_binding.obj
 0002:000101d0       ??_C@_0DC@JMHCIGEL@Invalid?5number?5of?5args?5passed?5to@ 00000001800371d0     tfjs_binding.obj
 0002:00010208       ??_C@_0CN@GPBHPHHD@Invalid?5number?5of?5args?5passed?5to@ 0000000180037208     tfjs_binding.obj
 0002:00010238       ??_C@_0N@CPIIHLMO@createTensor?$AA@ 0000000180037238     tfjs_binding.obj
 0002:00010248       ??_C@_0N@FINNOHBK@deleteTensor?$AA@ 0000000180037248     tfjs_binding.obj
 0002:00010258       ??_C@_0P@BLIOEOII@tensorDataSync?$AA@ 0000000180037258     tfjs_binding.obj
 0002:00010268       ??_C@_09ENCJKPJA@executeOp?$AA@ 0000000180037268     tfjs_binding.obj
 0002:00010278       ??_C@_0L@CONEMEJO@TF_Version?$AA@ 0000000180037278     tfjs_binding.obj
 0002:00010288       ??_C@_08CENNMCOK@TF_FLOAT?$AA@ 0000000180037288     tfjs_binding.obj
 0002:00010298       ??_C@_08EMIBIDNO@TF_INT32?$AA@ 0000000180037298     tfjs_binding.obj
 0002:000102a8       ??_C@_07FHPMKOHN@TF_BOOL?$AA@ 00000001800372a8     tfjs_binding.obj
 0002:000102b0       ??_C@_0N@JFLHMBCA@TF_COMPLEX64?$AA@ 00000001800372b0     tfjs_binding.obj
 0002:000102c0       ??_C@_0P@FMGFJDAE@TF_ATTR_STRING?$AA@ 00000001800372c0     tfjs_binding.obj
 0002:000102d0       ??_C@_0M@LLGAKPJN@TF_ATTR_INT?$AA@ 00000001800372d0     tfjs_binding.obj
 0002:000102e0       ??_C@_0O@CBIHLPMC@TF_ATTR_FLOAT?$AA@ 00000001800372e0     tfjs_binding.obj
 0002:000102f0       ??_C@_0N@NNGJFLK@TF_ATTR_BOOL?$AA@ 00000001800372f0     tfjs_binding.obj
 0002:00010300       ??_C@_0N@FBLMKANP@TF_ATTR_TYPE?$AA@ 0000000180037300     tfjs_binding.obj
 0002:00010310       ??_C@_0O@CJPOBHEO@TF_ATTR_SHAPE?$AA@ 0000000180037310     tfjs_binding.obj
 0002:00010320       ??_C@_0M@HNFFCMGH@tfe_binding?$AA@ 0000000180037320     tfjs_binding.obj
 0002:00010330       ??_C@_08HCOMDCCD@iojs?4exe?$AA@ 0000000180037330     win_delay_load_hook.obj
 0002:00010340       ??_C@_08JDDNMFDB@node?4exe?$AA@ 0000000180037340     win_delay_load_hook.obj
 0002:00010350       __pfnDliNotifyHook2        0000000180037350     win_delay_load_hook.obj
 0002:00010358       __real@4202a05f20000000    0000000180037358     tfe_utils.obj
 0002:00010360       __xmm@7fffffffffffffff7fffffffffffffff 0000000180037360     tfe_utils.obj
 0002:000103e0       _tls_used                  00000001800373e0     LIBCMT:tlssup.obj
 0002:00010408       ??_R4_Facet_base@std@@6B@  0000000180037408     libcpmt:locale0.obj
 0002:00010430       ??_R3_Facet_base@std@@8    0000000180037430     libcpmt:locale0.obj
 0002:00010448       ??_R2_Facet_base@std@@8    0000000180037448     libcpmt:locale0.obj
 0002:00010458       ??_R1A@?0A@EA@_Facet_base@std@@8 0000000180037458     libcpmt:locale0.obj
 0002:00010480       ??_R4_Locimp@locale@std@@6B@ 0000000180037480     libcpmt:locale0.obj
 0002:000104a8       ??_R3_Locimp@locale@std@@8 00000001800374a8     libcpmt:locale0.obj
 0002:000104c0       ??_R2_Locimp@locale@std@@8 00000001800374c0     libcpmt:locale0.obj
 0002:000104e8       ??_R1A@?0A@EA@_Locimp@locale@std@@8 00000001800374e8     libcpmt:locale0.obj
 0002:00010510       ??_R1A@?0A@EA@facet@locale@std@@8 0000000180037510     libcpmt:locale0.obj
 0002:00010538       ??_R3facet@locale@std@@8   0000000180037538     libcpmt:locale0.obj
 0002:00010550       ??_R2facet@locale@std@@8   0000000180037550     libcpmt:locale0.obj
 0002:00010570       ??_R17?0A@EA@_Crt_new_delete@std@@8 0000000180037570     libcpmt:locale0.obj
 0002:00010598       ??_R3_Crt_new_delete@std@@8 0000000180037598     libcpmt:locale0.obj
 0002:000105b0       ??_R2_Crt_new_delete@std@@8 00000001800375b0     libcpmt:locale0.obj
 0002:000105c0       ??_R1A@?0A@EA@_Crt_new_delete@std@@8 00000001800375c0     libcpmt:locale0.obj
 0002:000105e8       ??_R4exception@std@@6B@    00000001800375e8     libcpmt:xthrow.obj
 0002:00010610       ??_R3exception@std@@8      0000000180037610     libcpmt:xthrow.obj
 0002:00010628       ??_R2exception@std@@8      0000000180037628     libcpmt:xthrow.obj
 0002:00010638       ??_R1A@?0A@EA@exception@std@@8 0000000180037638     libcpmt:xthrow.obj
 0002:00010660       ??_R4bad_alloc@std@@6B@    0000000180037660     libcpmt:xthrow.obj
 0002:00010688       ??_R3bad_alloc@std@@8      0000000180037688     libcpmt:xthrow.obj
 0002:000106a0       ??_R2bad_alloc@std@@8      00000001800376a0     libcpmt:xthrow.obj
 0002:000106b8       ??_R1A@?0A@EA@bad_alloc@std@@8 00000001800376b8     libcpmt:xthrow.obj
 0002:000106e0       ??_R4logic_error@std@@6B@  00000001800376e0     libcpmt:xthrow.obj
 0002:00010708       ??_R3logic_error@std@@8    0000000180037708     libcpmt:xthrow.obj
 0002:00010720       ??_R2logic_error@std@@8    0000000180037720     libcpmt:xthrow.obj
 0002:00010738       ??_R1A@?0A@EA@logic_error@std@@8 0000000180037738     libcpmt:xthrow.obj
 0002:00010760       ??_R4length_error@std@@6B@ 0000000180037760     libcpmt:xthrow.obj
 0002:00010788       ??_R3length_error@std@@8   0000000180037788     libcpmt:xthrow.obj
 0002:000107a0       ??_R2length_error@std@@8   00000001800377a0     libcpmt:xthrow.obj
 0002:000107c0       ??_R1A@?0A@EA@length_error@std@@8 00000001800377c0     libcpmt:xthrow.obj
 0002:000107e8       ??_R4out_of_range@std@@6B@ 00000001800377e8     libcpmt:xthrow.obj
 0002:00010810       ??_R3out_of_range@std@@8   0000000180037810     libcpmt:xthrow.obj
 0002:00010828       ??_R2out_of_range@std@@8   0000000180037828     libcpmt:xthrow.obj
 0002:00010848       ??_R1A@?0A@EA@out_of_range@std@@8 0000000180037848     libcpmt:xthrow.obj
 0002:00010870       ??_R4runtime_error@std@@6B@ 0000000180037870     libcpmt:xthrow.obj
 0002:00010898       ??_R3runtime_error@std@@8  0000000180037898     libcpmt:xthrow.obj
 0002:000108b0       ??_R2runtime_error@std@@8  00000001800378b0     libcpmt:xthrow.obj
 0002:000108c8       ??_R1A@?0A@EA@runtime_error@std@@8 00000001800378c8     libcpmt:xthrow.obj
 0002:000108f0       ??_R3ctype_base@std@@8     00000001800378f0     libcpmt:locale.obj
 0002:00010908       ??_R2ctype_base@std@@8     0000000180037908     libcpmt:locale.obj
 0002:00010930       ??_R1A@?0A@EA@ctype_base@std@@8 0000000180037930     libcpmt:locale.obj
 0002:00010958       ??_R4?$ctype@D@std@@6B@    0000000180037958     libcpmt:locale.obj
 0002:00010980       ??_R3?$ctype@D@std@@8      0000000180037980     libcpmt:locale.obj
 0002:00010998       ??_R2?$ctype@D@std@@8      0000000180037998     libcpmt:locale.obj
 0002:000109c8       ??_R1A@?0A@EA@?$ctype@D@std@@8 00000001800379c8     libcpmt:locale.obj
 0002:000109f0       ??_R4?$num_put@DV?$ostreambuf_iterator@DU?$char_traits@D@std@@@std@@@std@@6B@ 00000001800379f0     libcpmt:locale.obj
 0002:00010a18       ??_R3?$num_put@DV?$ostreambuf_iterator@DU?$char_traits@D@std@@@std@@@std@@8 0000000180037a18     libcpmt:locale.obj
 0002:00010a30       ??_R2?$num_put@DV?$ostreambuf_iterator@DU?$char_traits@D@std@@@std@@@std@@8 0000000180037a30     libcpmt:locale.obj
 0002:00010a58       ??_R1A@?0A@EA@?$num_put@DV?$ostreambuf_iterator@DU?$char_traits@D@std@@@std@@@std@@8 0000000180037a58     libcpmt:locale.obj
 0002:00010a80       ??_R4?$numpunct@D@std@@6B@ 0000000180037a80     libcpmt:locale.obj
 0002:00010aa8       ??_R3?$numpunct@D@std@@8   0000000180037aa8     libcpmt:locale.obj
 0002:00010ac0       ??_R2?$numpunct@D@std@@8   0000000180037ac0     libcpmt:locale.obj
 0002:00010ae8       ??_R1A@?0A@EA@?$numpunct@D@std@@8 0000000180037ae8     libcpmt:locale.obj
 0002:00010b10       ??_R4type_info@@6B@        0000000180037b10     LIBCMT:std_type_info_static.obj
 0002:00010b38       ??_R3type_info@@8          0000000180037b38     LIBCMT:std_type_info_static.obj
 0002:00010b50       ??_R2type_info@@8          0000000180037b50     LIBCMT:std_type_info_static.obj
 0002:00010b60       ??_R1A@?0A@EA@type_info@@8 0000000180037b60     LIBCMT:std_type_info_static.obj
 0002:00010b88       ??_R4bad_array_new_length@std@@6B@ 0000000180037b88     LIBCMT:throw_bad_alloc.obj
 0002:00010bb0       ??_R3bad_array_new_length@std@@8 0000000180037bb0     LIBCMT:throw_bad_alloc.obj
 0002:00010bc8       ??_R2bad_array_new_length@std@@8 0000000180037bc8     LIBCMT:throw_bad_alloc.obj
 0002:00010be8       ??_R1A@?0A@EA@bad_array_new_length@std@@8 0000000180037be8     LIBCMT:throw_bad_alloc.obj
 0002:00010c10       ??_R4bad_exception@std@@6B@ 0000000180037c10     libvcruntime:frame.obj
 0002:00010c38       ??_R3bad_exception@std@@8  0000000180037c38     libvcruntime:frame.obj
 0002:00010c50       ??_R2bad_exception@std@@8  0000000180037c50     libvcruntime:frame.obj
 0002:00010c68       ??_R1A@?0A@EA@bad_exception@std@@8 0000000180037c68     libvcruntime:frame.obj
 0002:00011140       __rtc_iaa                  0000000180038140     LIBCMT:_initsect_.obj
 0002:00011148       __rtc_izz                  0000000180038148     LIBCMT:_initsect_.obj
 0002:00011150       __rtc_taa                  0000000180038150     LIBCMT:_initsect_.obj
 0002:00011158       __rtc_tzz                  0000000180038158     LIBCMT:_initsect_.obj
 0002:00012f58       _TI2?AVbad_alloc@std@@     0000000180039f58     libcpmt:xthrow.obj
 0002:00012f78       _CTA2?AVbad_alloc@std@@    0000000180039f78     libcpmt:xthrow.obj
 0002:00012f90       _CT??_R0?AVbad_alloc@std@@@8??0bad_alloc@std@@QEAA@AEBV01@@Z24 0000000180039f90     libcpmt:xthrow.obj
 0002:00012fb8       _CT??_R0?AVexception@std@@@8??0exception@std@@QEAA@AEBV01@@Z24 0000000180039fb8     libcpmt:xthrow.obj
 0002:00012fe0       _CT??_R0?AVlogic_error@std@@@8??0logic_error@std@@QEAA@AEBV01@@Z24 0000000180039fe0     libcpmt:xthrow.obj
 0002:00013008       _TI3?AVlength_error@std@@  000000018003a008     libcpmt:xthrow.obj
 0002:00013028       _CTA3?AVlength_error@std@@ 000000018003a028     libcpmt:xthrow.obj
 0002:00013048       _CT??_R0?AVlength_error@std@@@8??0length_error@std@@QEAA@AEBV01@@Z24 000000018003a048     libcpmt:xthrow.obj
 0002:00013070       _TI3?AVout_of_range@std@@  000000018003a070     libcpmt:xthrow.obj
 0002:00013090       _CTA3?AVout_of_range@std@@ 000000018003a090     libcpmt:xthrow.obj
 0002:000130b0       _CT??_R0?AVout_of_range@std@@@8??0out_of_range@std@@QEAA@AEBV01@@Z24 000000018003a0b0     libcpmt:xthrow.obj
 0002:000130d8       _TI3?AVbad_array_new_length@std@@ 000000018003a0d8     LIBCMT:throw_bad_alloc.obj
 0002:000130f8       _CTA3?AVbad_array_new_length@std@@ 000000018003a0f8     LIBCMT:throw_bad_alloc.obj
 0002:00013118       _CT??_R0?AVbad_array_new_length@std@@@8??0bad_array_new_length@std@@QEAA@AEBV01@@Z24 000000018003a118     LIBCMT:throw_bad_alloc.obj
 0002:00013140       _TI2?AVbad_exception@std@@ 000000018003a140     libvcruntime:frame.obj
 0002:00013160       _CTA2?AVbad_exception@std@@ 000000018003a160     libvcruntime:frame.obj
 0002:00013178       _CT??_R0?AVbad_exception@std@@@8??0bad_exception@std@@QEAA@AEBV01@@Z24 000000018003a178     libvcruntime:frame.obj
 0002:0001319c       __DELAY_IMPORT_DESCRIPTOR_node_exe 000000018003a19c     node:node.exe
 0002:000131bc       __NULL_DELAY_IMPORT_DESCRIPTOR 000000018003a1bc     node:node.exe
 0002:000132b8       \177node_NULL_THUNK_DATA_DLN 000000018003a2b8     node:node.exe
 0002:00013548       \177node_NULL_THUNK_DATA_DLB 000000018003a548     node:node.exe
 0002:0001367c       __IMPORT_DESCRIPTOR_KERNEL32 000000018003a67c     kernel32:KERNEL32.dll
 0002:00013690       __IMPORT_DESCRIPTOR_tensorflow 000000018003a690     tensorflow:tensorflow.dll
 0002:000136a4       __NULL_IMPORT_DESCRIPTOR   000000018003a6a4     kernel32:KERNEL32.dll
 0003:00000004       ?_Sync@ios_base@std@@0_NA  000000018003c004     libcpmt:ios.obj
 0003:00000020       ?_PJP_CPP_Copyright@@3PADA 000000018003c020     libcpmt:iosptrs.obj
 0003:00000080       _Init_global_epoch         000000018003c080     LIBCMT:thread_safe_statics.obj
 0003:00000084       __scrt_native_dllmain_reason 000000018003c084     LIBCMT:utility.obj
 0003:00000088       __security_cookie          000000018003c088     LIBCMT:gs_cookie.obj
 0003:00000090       __security_cookie_complement 000000018003c090     LIBCMT:gs_cookie.obj
 0003:00000098       _fltused                   000000018003c098     LIBCMT:fltused.obj
 0003:000000a0       __isa_available            000000018003c0a0     LIBCMT:_cpu_disp_.obj
 0003:000000a4       __isa_enabled              000000018003c0a4     LIBCMT:_cpu_disp_.obj
 0003:000000a8       __memcpy_nt_iters          000000018003c0a8     LIBCMT:_cpu_disp_.obj
 0003:000000c0       __abort_behavior           000000018003c0c0     libucrt:abort.obj
 0003:000000d0       _iob                       000000018003c0d0     libucrt:_file.obj
 0003:000001e0       __acrt_lconv_c             000000018003c1e0     libucrt:localeconv.obj
 0003:00000278       __acrt_lconv               000000018003c278     libucrt:localeconv.obj
 0003:00000280       __acrt_lconv_static_decimal 000000018003c280     libucrt:localeconv.obj
 0003:00000284       __acrt_lconv_static_W_decimal 000000018003c284     libucrt:localeconv.obj
 0003:00000288       _pctype                    000000018003c288     libucrt:ctype.obj
 0003:00000290       _pwctype                   000000018003c290     libucrt:ctype.obj
 0003:000002b0       __acrt_initial_locale_data 000000018003c2b0     libucrt:nlsdata.obj
 0003:00000408       __acrt_initial_locale_pointers 000000018003c408     libucrt:nlsdata.obj
 0003:00000418       __acrt_wide_c_locale_string 000000018003c418     libucrt:nlsdata.obj
 0003:0000041c       __mb_cur_max               000000018003c41c     libucrt:nlsdata.obj
 0003:00000424       __globallocalestatus       000000018003c424     libucrt:glstatus.obj
 0003:000004c0       __acrt_initial_multibyte_data 000000018003c4c0     libucrt:mbctype.obj
 0003:000006e8       __acrt_current_multibyte_data 000000018003c6e8     libucrt:mbctype.obj
 0003:000007f0       _mbctype                   000000018003c7f0     libucrt:mbctype.obj
 0003:00000900       _mbcasemap                 000000018003c900     libucrt:mbctype.obj
 0003:00000a08       __dcrt_lowio_console_output_handle 000000018003ca08     libucrt:initcon.obj
 0003:00000a60       ??_R0?AV_Facet_base@std@@@8 000000018003ca60     libcpmt:locale0.obj
 0003:00000a88       ??_R0?AV_Locimp@locale@std@@@8 000000018003ca88     libcpmt:locale0.obj
 0003:00000ab8       ??_R0?AVfacet@locale@std@@@8 000000018003cab8     libcpmt:locale0.obj
 0003:00000ae0       ??_R0?AU_Crt_new_delete@std@@@8 000000018003cae0     libcpmt:locale0.obj
 0003:00000b10       ??_R0?AVbad_alloc@std@@@8  000000018003cb10     libcpmt:xthrow.obj
 0003:00000b38       ??_R0?AVexception@std@@@8  000000018003cb38     libcpmt:xthrow.obj
 0003:00000b60       ??_R0?AVlogic_error@std@@@8 000000018003cb60     libcpmt:xthrow.obj
 0003:00000b88       ??_R0?AVlength_error@std@@@8 000000018003cb88     libcpmt:xthrow.obj
 0003:00000bb0       ??_R0?AVout_of_range@std@@@8 000000018003cbb0     libcpmt:xthrow.obj
 0003:00000bd8       ??_R0?AVruntime_error@std@@@8 000000018003cbd8     libcpmt:xthrow.obj
 0003:00000c00       ??_R0?AUctype_base@std@@@8 000000018003cc00     libcpmt:locale.obj
 0003:00000c28       ??_R0?AV?$ctype@D@std@@@8  000000018003cc28     libcpmt:locale.obj
 0003:00000c50       ??_R0?AV?$num_put@DV?$ostreambuf_iterator@DU?$char_traits@D@std@@@std@@@std@@@8 000000018003cc50     libcpmt:locale.obj
 0003:00000cb0       ??_R0?AV?$numpunct@D@std@@@8 000000018003ccb0     libcpmt:locale.obj
 0003:00000cd8       ??_R0?AVtype_info@@@8      000000018003ccd8     LIBCMT:std_type_info_static.obj
 0003:00000cf8       ??_R0?AVbad_array_new_length@std@@@8 000000018003ccf8     LIBCMT:throw_bad_alloc.obj
 0003:00000d28       ??_R0?AVbad_exception@std@@@8 000000018003cd28     libvcruntime:frame.obj
 0003:00000d50       __imp_napi_create_array_with_length 000000018003cd50     node:node.exe
 0003:00000d58       __imp_napi_get_element     000000018003cd58     node:node.exe
 0003:00000d60       __imp_napi_get_last_error_info 000000018003cd60     node:node.exe
 0003:00000d68       __imp_napi_create_typedarray 000000018003cd68     node:node.exe
 0003:00000d70       __imp_napi_set_element     000000018003cd70     node:node.exe
 0003:00000d78       __imp_napi_get_value_string_utf8 000000018003cd78     node:node.exe
 0003:00000d80       __imp_napi_throw_error     000000018003cd80     node:node.exe
 0003:00000d88       __imp_napi_is_array        000000018003cd88     node:node.exe
 0003:00000d90       __imp_napi_create_int32    000000018003cd90     node:node.exe
 0003:00000d98       __imp_napi_get_value_bool  000000018003cd98     node:node.exe
 0003:00000da0       __imp_napi_create_int64    000000018003cda0     node:node.exe
 0003:00000da8       __imp_napi_get_named_property 000000018003cda8     node:node.exe
 0003:00000db0       __imp_napi_get_value_int64 000000018003cdb0     node:node.exe
 0003:00000db8       __imp_napi_typeof          000000018003cdb8     node:node.exe
 0003:00000dc0       __imp_napi_create_arraybuffer 000000018003cdc0     node:node.exe
 0003:00000dc8       __imp_napi_get_value_int32 000000018003cdc8     node:node.exe
 0003:00000dd0       __imp_napi_get_typedarray_info 000000018003cdd0     node:node.exe
 0003:00000dd8       __imp_napi_get_value_double 000000018003cdd8     node:node.exe
 0003:00000de0       __imp_napi_get_array_length 000000018003cde0     node:node.exe
 0003:00000de8       __imp_napi_is_exception_pending 000000018003cde8     node:node.exe
 0003:00000df0       __imp_napi_set_named_property 000000018003cdf0     node:node.exe
 0003:00000df8       __imp_napi_create_object   000000018003cdf8     node:node.exe
 0003:00000e00       __imp_napi_create_string_latin1 000000018003ce00     node:node.exe
 0003:00000e08       __imp_napi_module_register 000000018003ce08     node:node.exe
 0003:00000e10       __imp_napi_define_properties 000000018003ce10     node:node.exe
 0003:00000e18       __imp_napi_is_typedarray   000000018003ce18     node:node.exe
 0003:00000e20       __imp_napi_get_cb_info     000000018003ce20     node:node.exe
 0003:00000e28       \177node_NULL_THUNK_DATA_DLA 000000018003ce28     node:node.exe
 0003:00000e30       __hmod__node_exe           000000018003ce30     node:node.exe
 0003:00000f98       ?_Id_cnt@id@locale@std@@0HA 000000018003cf98     libcpmt:locale0.obj
 0003:00000fa0       ?_Clocptr@_Locimp@locale@std@@0PEAV123@EA 000000018003cfa0     libcpmt:locale0.obj
 0003:00000fb0       ?id@?$ctype@_W@std@@2V0locale@2@A 000000018003cfb0     libcpmt:locale0.obj
 0003:00000fb8       ?id@?$ctype@D@std@@2V0locale@2@A 000000018003cfb8     libcpmt:locale0.obj
 0003:00000fc0       ?id@?$codecvt@GDU_Mbstatet@@@std@@2V0locale@2@A 000000018003cfc0     libcpmt:locale0.obj
 0003:00000fc8       ?id@?$ctype@G@std@@2V0locale@2@A 000000018003cfc8     libcpmt:locale0.obj
 0003:00000fe0       ?id@?$codecvt@_WDU_Mbstatet@@@std@@2V0locale@2@A 000000018003cfe0     libcpmt:locale0.obj
 0003:0000104c       ?_Index@ios_base@std@@0HA  000000018003d04c     libcpmt:ios.obj
 0003:00001050       ?_Raise_handler@std@@3P6AXAEBVexception@stdext@@@ZEA 000000018003d050     libcpmt:raisehan.obj
 0003:00001060       ?_Ptr_cin@std@@3PEAV?$basic_istream@DU?$char_traits@D@std@@@1@EA 000000018003d060     libcpmt:iosptrs.obj
 0003:00001068       ?_Ptr_cout@std@@3PEAV?$basic_ostream@DU?$char_traits@D@std@@@1@EA 000000018003d068     libcpmt:iosptrs.obj
 0003:00001070       ?_Ptr_cerr@std@@3PEAV?$basic_ostream@DU?$char_traits@D@std@@@1@EA 000000018003d070     libcpmt:iosptrs.obj
 0003:00001078       ?_Ptr_clog@std@@3PEAV?$basic_ostream@DU?$char_traits@D@std@@@1@EA 000000018003d078     libcpmt:iosptrs.obj
 0003:00001080       ?_Ptr_wcin@std@@3PEAV?$basic_istream@_WU?$char_traits@_W@std@@@1@EA 000000018003d080     libcpmt:iosptrs.obj
 0003:00001088       ?_Ptr_wcout@std@@3PEAV?$basic_ostream@_WU?$char_traits@_W@std@@@1@EA 000000018003d088     libcpmt:iosptrs.obj
 0003:00001090       ?_Ptr_wcerr@std@@3PEAV?$basic_ostream@_WU?$char_traits@_W@std@@@1@EA 000000018003d090     libcpmt:iosptrs.obj
 0003:00001098       ?_Ptr_wclog@std@@3PEAV?$basic_ostream@_WU?$char_traits@_W@std@@@1@EA 000000018003d098     libcpmt:iosptrs.obj
 0003:000010f8       ?id@?$num_get@DV?$istreambuf_iterator@DU?$char_traits@D@std@@@std@@@std@@2V0locale@2@A 000000018003d0f8     libcpmt:locale.obj
 0003:00001100       ?id@?$codecvt@DDU_Mbstatet@@@std@@2V0locale@2@A 000000018003d100     libcpmt:locale.obj
 0003:00001110       __encodedKERNEL32Functions 000000018003d110     libcpmt:winapisupp.obj
 0003:00001250       ?id@?$time_put@_WV?$ostreambuf_iterator@_WU?$char_traits@_W@std@@@std@@@std@@2V0locale@2@A 000000018003d250     libcpmt:wlocale.obj
 0003:00001258       ?id@?$num_get@_WV?$istreambuf_iterator@_WU?$char_traits@_W@std@@@std@@@std@@2V0locale@2@A 000000018003d258     libcpmt:wlocale.obj
 0003:00001260       ?id@?$num_put@_WV?$ostreambuf_iterator@_WU?$char_traits@_W@std@@@std@@@std@@2V0locale@2@A 000000018003d260     libcpmt:wlocale.obj
 0003:00001268       ?id@?$numpunct@_W@std@@2V0locale@2@A 000000018003d268     libcpmt:wlocale.obj
 0003:00001270       ?id@?$collate@_W@std@@2V0locale@2@A 000000018003d270     libcpmt:wlocale.obj
 0003:00001278       ?id@?$messages@_W@std@@2V0locale@2@A 000000018003d278     libcpmt:wlocale.obj
 0003:00001280       ?id@?$money_get@_WV?$istreambuf_iterator@_WU?$char_traits@_W@std@@@std@@@std@@2V0locale@2@A 000000018003d280     libcpmt:wlocale.obj
 0003:00001288       ?id@?$money_put@_WV?$ostreambuf_iterator@_WU?$char_traits@_W@std@@@std@@@std@@2V0locale@2@A 000000018003d288     libcpmt:wlocale.obj
 0003:00001290       ?id@?$moneypunct@_W$0A@@std@@2V0locale@2@A 000000018003d290     libcpmt:wlocale.obj
 0003:00001298       ?id@?$moneypunct@_W$00@std@@2V0locale@2@A 000000018003d298     libcpmt:wlocale.obj
 0003:000012a0       ?id@?$time_get@_WV?$istreambuf_iterator@_WU?$char_traits@_W@std@@@std@@@std@@2V0locale@2@A 000000018003d2a0     libcpmt:wlocale.obj
 0003:000012a8       ?id@?$num_get@GV?$istreambuf_iterator@GU?$char_traits@G@std@@@std@@@std@@2V0locale@2@A 000000018003d2a8     libcpmt:wlocale.obj
 0003:000012b0       ?id@?$num_put@GV?$ostreambuf_iterator@GU?$char_traits@G@std@@@std@@@std@@2V0locale@2@A 000000018003d2b0     libcpmt:wlocale.obj
 0003:000012b8       ?id@?$numpunct@G@std@@2V0locale@2@A 000000018003d2b8     libcpmt:wlocale.obj
 0003:000012c0       ?id@?$collate@G@std@@2V0locale@2@A 000000018003d2c0     libcpmt:wlocale.obj
 0003:000012c8       ?id@?$messages@G@std@@2V0locale@2@A 000000018003d2c8     libcpmt:wlocale.obj
 0003:000012d0       ?id@?$money_get@GV?$istreambuf_iterator@GU?$char_traits@G@std@@@std@@@std@@2V0locale@2@A 000000018003d2d0     libcpmt:wlocale.obj
 0003:000012d8       ?id@?$money_put@GV?$ostreambuf_iterator@GU?$char_traits@G@std@@@std@@@std@@2V0locale@2@A 000000018003d2d8     libcpmt:wlocale.obj
 0003:000012e0       ?id@?$moneypunct@G$0A@@std@@2V0locale@2@A 000000018003d2e0     libcpmt:wlocale.obj
 0003:000012e8       ?id@?$moneypunct@G$00@std@@2V0locale@2@A 000000018003d2e8     libcpmt:wlocale.obj
 0003:000012f0       ?id@?$time_get@GV?$istreambuf_iterator@GU?$char_traits@G@std@@@std@@@std@@2V0locale@2@A 000000018003d2f0     libcpmt:wlocale.obj
 0003:000012f8       ?id@?$time_put@GV?$ostreambuf_iterator@GU?$char_traits@G@std@@@std@@@std@@2V0locale@2@A 000000018003d2f8     libcpmt:wlocale.obj
 0003:00001300       ?id@?$collate@D@std@@2V0locale@2@A 000000018003d300     libcpmt:xlocale.obj
 0003:00001308       ?id@?$messages@D@std@@2V0locale@2@A 000000018003d308     libcpmt:xlocale.obj
 0003:00001310       ?id@?$money_get@DV?$istreambuf_iterator@DU?$char_traits@D@std@@@std@@@std@@2V0locale@2@A 000000018003d310     libcpmt:xlocale.obj
 0003:00001318       ?id@?$money_put@DV?$ostreambuf_iterator@DU?$char_traits@D@std@@@std@@@std@@2V0locale@2@A 000000018003d318     libcpmt:xlocale.obj
 0003:00001320       ?id@?$moneypunct@D$0A@@std@@2V0locale@2@A 000000018003d320     libcpmt:xlocale.obj
 0003:00001328       ?id@?$moneypunct@D$00@std@@2V0locale@2@A 000000018003d328     libcpmt:xlocale.obj
 0003:00001330       ?id@?$time_get@DV?$istreambuf_iterator@DU?$char_traits@D@std@@@std@@@std@@2V0locale@2@A 000000018003d330     libcpmt:xlocale.obj
 0003:00001338       ?id@?$time_put@DV?$ostreambuf_iterator@DU?$char_traits@D@std@@@std@@@std@@2V0locale@2@A 000000018003d338     libcpmt:xlocale.obj
 0003:00001388       __scrt_current_native_startup_state 000000018003d388     LIBCMT:utility.obj
 0003:00001390       __scrt_native_startup_lock 000000018003d390     LIBCMT:utility.obj
 0003:00001940       __scrt_debugger_hook_flag  000000018003d940     LIBCMT:utility_desktop.obj
 0003:00001944       _tls_index                 000000018003d944     LIBCMT:tlssup.obj
 0003:00001948       __favor                    000000018003d948     LIBCMT:_cpu_disp_.obj
 0003:00001950       ?__type_info_root_node@@3U__type_info_node@@A 000000018003d950     LIBCMT:tncleanup.obj
 0003:00001960       ?_OptionsStorage@?1??__local_stdio_scanf_options@@9@4_KA 000000018003d960     LIBCMT:default_local_stdio_options.obj
 0003:00001968       ?g_OutOfMemoryExceptionCallback@@3P6APEAXXZEA 000000018003d968     libvcruntime:frame.obj
 0003:000019d8       __pPurecall                000000018003d9d8     libvcruntime:purevirt_data.obj
 0003:00001a88       ?pArgList@UnDecorator@@0PEAVReplicator@@EA 000000018003da88     libvcruntime:undname.obj
 0003:00001a90       ?pZNameList@UnDecorator@@0PEAVReplicator@@EA 000000018003da90     libvcruntime:undname.obj
 0003:00001a98       ?pTemplateArgList@UnDecorator@@0PEAVReplicator@@EA 000000018003da98     libvcruntime:undname.obj
 0003:00001aa0       ?gName@UnDecorator@@0PEBDEB 000000018003daa0     libvcruntime:undname.obj
 0003:00001aa8       ?name@UnDecorator@@0PEBDEB 000000018003daa8     libvcruntime:undname.obj
 0003:00001ab0       ?outputString@UnDecorator@@0PEADEA 000000018003dab0     libvcruntime:undname.obj
 0003:00001ab8       ?maxStringLength@UnDecorator@@0HA 000000018003dab8     libvcruntime:undname.obj
 0003:00001abc       ?disableFlags@UnDecorator@@0KA 000000018003dabc     libvcruntime:undname.obj
 0003:00001ac0       ?fExplicitTemplateParams@UnDecorator@@0_NA 000000018003dac0     libvcruntime:undname.obj
 0003:00001ac1       ?fGetTemplateArgumentList@UnDecorator@@0_NA 000000018003dac1     libvcruntime:undname.obj
 0003:00001ac8       ?m_pGetParameter@UnDecorator@@0P6APEADJ@ZEA 000000018003dac8     libvcruntime:undname.obj
 0003:00001af8       _nstream                   000000018003daf8     libucrt:_file.obj
 0003:00001b00       __piob                     000000018003db00     libucrt:_file.obj
 0003:00001b10       __acrt_lconv_static_null   000000018003db10     libucrt:localeconv.obj
 0003:00001b14       __acrt_lconv_static_W_null 000000018003db14     libucrt:localeconv.obj
 0003:00001e58       _environ_table             000000018003de58     libucrt:environment_initialization.obj
 0003:00001e60       _wenviron_table            000000018003de60     libucrt:environment_initialization.obj
 0003:00001e68       __dcrt_initial_wide_environment 000000018003de68     libucrt:environment_initialization.obj
 0003:00001e70       __dcrt_initial_narrow_environment 000000018003de70     libucrt:environment_initialization.obj
 0003:00001e78       __acrt_atexit_table        000000018003de78     libucrt:onexit.obj
 0003:00001e90       __acrt_at_quick_exit_table 000000018003de90     libucrt:onexit.obj
 0003:00002080       __pioinfo                  000000018003e080     libucrt:ioinit.obj
 0003:00002480       _nhandle                   000000018003e480     libucrt:ioinit.obj
 0003:00002490       __acrt_stdout_buffer       000000018003e490     libucrt:_sftbuf.obj
 0003:00002498       __acrt_stderr_buffer       000000018003e498     libucrt:_sftbuf.obj
 0003:000024a0       __acrt_locale_changed_data 000000018003e4a0     libucrt:wsetlocale.obj
 0003:000024a8       __acrt_current_locale_data 000000018003e4a8     libucrt:nlsdata.obj
 0003:000024b8       __acrt_heap                000000018003e4b8     libucrt:heap_handle.obj
 0003:000024c0       __fma3_is_available        000000018003e4c0     libucrt:fma3_available.obj
 0003:000024c4       __use_fma3_lib             000000018003e4c4     libucrt:fma3_available.obj
 0003:000024c8       ?_timezone@@3V?$dual_state_global@J@__crt_state_management@@A 000000018003e4c8     libucrt:timeset.obj
 0003:000024cc       ?_daylight@@3V?$dual_state_global@H@__crt_state_management@@A 000000018003e4cc     libucrt:timeset.obj
 0003:000024d0       ?_dstbias@@3V?$dual_state_global@J@__crt_state_management@@A 000000018003e4d0     libucrt:timeset.obj
 0003:0000259c       __mbcodepage               000000018003e59c     libucrt:mbctype.obj
 0003:000025a0       __ismbcodepage             000000018003e5a0     libucrt:mbctype.obj
 0003:000025a8       __mbulinfo                 000000018003e5a8     libucrt:mbctype.obj
 0003:000025b8       __mblocalename             000000018003e5b8     libucrt:mbctype.obj
 0003:000025c4       __argc                     000000018003e5c4     libucrt:argv_data.obj
 0003:000025c8       __argv                     000000018003e5c8     libucrt:argv_data.obj
 0003:000025d0       __wargv                    000000018003e5d0     libucrt:argv_data.obj
 0003:000025d8       _acmdln                    000000018003e5d8     libucrt:argv_data.obj
 0003:000025e0       _wcmdln                    000000018003e5e0     libucrt:argv_data.obj
 0003:000025e8       _pgmptr                    000000018003e5e8     libucrt:argv_data.obj
 0003:00002600       ?DloadKernel32@@3PEAUHINSTANCE__@@EA 000000018003e600     DelayImp:delayhlp.obj
 0003:00002608       ?DloadAcquireSRWLockExclusive@@3P6AXPEA_K@ZEA 000000018003e608     DelayImp:delayhlp.obj
 0003:00002610       ?DloadReleaseSRWLockExclusive@@3P6AXPEA_K@ZEA 000000018003e610     DelayImp:delayhlp.obj
 0003:00002618       ?DloadSrwLock@@3_KA        000000018003e618     DelayImp:delayhlp.obj
 0003:00002620       ?DloadSectionLockCount@@3KA 000000018003e620     DelayImp:delayhlp.obj
 0003:00002624       ?DloadSectionOldProtection@@3KA 000000018003e624     DelayImp:delayhlp.obj
 0003:00002628       ?DloadSectionCommitPermanent@@3KA 000000018003e628     DelayImp:delayhlp.obj
 0003:00002630       ?_Static@?1???$_Immortalize@V_Iostream_error_category@std@@@std@@YAAEAV_Iostream_error_category@1@XZ@4U?$_Immortalizer@V_Iostream_error_category@std@@@1@A 000000018003e630     tfe_utils.obj
 0003:00002640       ?$TSS0@?1???$_Immortalize@V_Iostream_error_category@std@@@std@@YAAEAV_Iostream_error_category@1@XZ@4HA 000000018003e640     tfe_utils.obj
 0003:00002648       ?_OptionsStorage@?1??__local_stdio_printf_options@@9@4_KA 000000018003e648     tfe_utils.obj
 0003:00002650       ?_Psave@?$_Facetptr@V?$numpunct@D@std@@@std@@2PEBVfacet@locale@2@EB 000000018003e650     tfe_utils.obj
 0003:00002658       ?_Psave@?$_Facetptr@V?$num_put@DV?$ostreambuf_iterator@DU?$char_traits@D@std@@@std@@@std@@@std@@2PEBVfacet@locale@2@EB 000000018003e658     tfe_utils.obj
 0003:00002660       ?_Psave@?$_Facetptr@V?$ctype@D@std@@@std@@2PEBVfacet@locale@2@EB 000000018003e660     tfe_utils.obj
 0003:00002668       ?gBackend@tfnodejs@@3PEAVTFJSBackend@1@EA 000000018003e668     tfjs_binding.obj
 0003:00002680       ?id@?$num_put@DV?$ostreambuf_iterator@DU?$char_traits@D@std@@@std@@@std@@2V0locale@2@A 000000018003e680     tfe_utils.obj
 0003:00002688       ?id@?$numpunct@D@std@@2V0locale@2@A 000000018003e688     tfe_utils.obj
 0003:00002690       __dyn_tls_init_callback    000000018003e690     <common>
 0003:00002698       __scrt_ucrt_dll_is_in_use  000000018003e698     <common>
 0006:00000000       _tls_start                 0000000180043000     LIBCMT:tlssup.obj
 0006:00000004       _Init_thread_epoch         0000000180043004     LIBCMT:thread_safe_statics.obj
 0006:00000008       _tls_end                   0000000180043008     LIBCMT:tlssup.obj

 entry point at        0001:0000be74

 Static symbols

 0000:fffba000       .debug$S                   0000000180000000     tensorflow:tensorflow.dll
 0000:fffba000       .debug$S                   0000000180000000     tfjs_binding.exp
 0000:fffba000       .debug$S                   0000000180000000     kernel32:KERNEL32.dll
 0000:fffba000       .debug$S                   0000000180000000     kernel32:KERNEL32.dll
 0000:fffba000       .debug$S                   0000000180000000     kernel32:KERNEL32.dll
 0000:fffba000       .debug$S                   0000000180000000     kernel32:KERNEL32.dll
 0000:fffba000       .debug$S                   0000000180000000     kernel32:KERNEL32.dll
 0000:fffba000       .debug$S                   0000000180000000     kernel32:KERNEL32.dll
 0000:fffba000       .debug$S                   0000000180000000     kernel32:KERNEL32.dll
 0000:fffba000       .debug$S                   0000000180000000     kernel32:KERNEL32.dll
 0000:fffba000       .debug$S                   0000000180000000     kernel32:KERNEL32.dll
 0000:fffba000       .debug$S                   0000000180000000     kernel32:KERNEL32.dll
 0000:fffba000       .debug$S                   0000000180000000     kernel32:KERNEL32.dll
 0000:fffba000       .debug$S                   0000000180000000     kernel32:KERNEL32.dll
 0000:fffba000       .debug$S                   0000000180000000     kernel32:KERNEL32.dll
 0000:fffba000       .debug$S                   0000000180000000     kernel32:KERNEL32.dll
 0000:fffba000       .debug$S                   0000000180000000     kernel32:KERNEL32.dll
 0000:fffba000       .debug$S                   0000000180000000     kernel32:KERNEL32.dll
 0000:fffba000       .debug$S                   0000000180000000     kernel32:KERNEL32.dll
 0000:fffba000       .debug$S                   0000000180000000     kernel32:KERNEL32.dll
 0000:fffba000       .debug$S                   0000000180000000     kernel32:KERNEL32.dll
 0000:fffba000       .debug$S                   0000000180000000     kernel32:KERNEL32.dll
 0000:fffba000       .debug$S                   0000000180000000     kernel32:KERNEL32.dll
 0000:fffba000       .debug$S                   0000000180000000     kernel32:KERNEL32.dll
 0000:fffba000       .debug$S                   0000000180000000     kernel32:KERNEL32.dll
 0000:fffba000       .debug$S                   0000000180000000     kernel32:KERNEL32.dll
 0000:fffba000       .debug$S                   0000000180000000     kernel32:KERNEL32.dll
 0000:fffba000       .debug$S                   0000000180000000     kernel32:KERNEL32.dll
 0000:fffba000       .debug$S                   0000000180000000     kernel32:KERNEL32.dll
 0000:fffba000       .debug$S                   0000000180000000     kernel32:KERNEL32.dll
 0000:fffba000       .debug$S                   0000000180000000     kernel32:KERNEL32.dll
 0000:fffba000       .debug$S                   0000000180000000     kernel32:KERNEL32.dll
 0000:fffba000       .debug$S                   0000000180000000     kernel32:KERNEL32.dll
 0000:fffba000       .debug$S                   0000000180000000     kernel32:KERNEL32.dll
 0000:fffba000       .debug$S                   0000000180000000     kernel32:KERNEL32.dll
 0000:fffba000       .debug$S                   0000000180000000     kernel32:KERNEL32.dll
 0000:fffba000       .debug$S                   0000000180000000     kernel32:KERNEL32.dll
 0000:fffba000       .debug$S                   0000000180000000     kernel32:KERNEL32.dll
 0000:fffba000       .debug$S                   0000000180000000     kernel32:KERNEL32.dll
 0000:fffba000       .debug$S                   0000000180000000     kernel32:KERNEL32.dll
 0000:fffba000       .debug$S                   0000000180000000     kernel32:KERNEL32.dll
 0000:fffba000       .debug$S                   0000000180000000     kernel32:KERNEL32.dll
 0000:fffba000       .debug$S                   0000000180000000     kernel32:KERNEL32.dll
 0000:fffba000       .debug$S                   0000000180000000     kernel32:KERNEL32.dll
 0000:fffba000       .debug$S                   0000000180000000     kernel32:KERNEL32.dll
 0000:fffba000       .debug$S                   0000000180000000     kernel32:KERNEL32.dll
 0000:fffba000       .debug$S                   0000000180000000     kernel32:KERNEL32.dll
 0000:fffba000       .debug$S                   0000000180000000     kernel32:KERNEL32.dll
 0000:fffba000       .debug$S                   0000000180000000     kernel32:KERNEL32.dll
 0000:fffba000       .debug$S                   0000000180000000     kernel32:KERNEL32.dll
 0000:fffba000       .debug$S                   0000000180000000     kernel32:KERNEL32.dll
 0000:fffba000       .debug$S                   0000000180000000     kernel32:KERNEL32.dll
 0000:fffba000       .debug$S                   0000000180000000     kernel32:KERNEL32.dll
 0000:fffba000       .debug$S                   0000000180000000     kernel32:KERNEL32.dll
 0000:fffba000       .debug$S                   0000000180000000     kernel32:KERNEL32.dll
 0000:fffba000       .debug$S                   0000000180000000     kernel32:KERNEL32.dll
 0000:fffba000       .debug$S                   0000000180000000     kernel32:KERNEL32.dll
 0000:fffba000       .debug$S                   0000000180000000     kernel32:KERNEL32.dll
 0000:fffba000       .debug$S                   0000000180000000     kernel32:KERNEL32.dll
 0000:fffba000       .debug$S                   0000000180000000     kernel32:KERNEL32.dll
 0000:fffba000       .debug$S                   0000000180000000     kernel32:KERNEL32.dll
 0000:fffba000       .debug$S                   0000000180000000     kernel32:KERNEL32.dll
 0000:fffba000       .debug$S                   0000000180000000     kernel32:KERNEL32.dll
 0000:fffba000       .debug$S                   0000000180000000     kernel32:KERNEL32.dll
 0000:fffba000       .debug$S                   0000000180000000     kernel32:KERNEL32.dll
 0000:fffba000       .debug$S                   0000000180000000     kernel32:KERNEL32.dll
 0000:fffba000       .debug$S                   0000000180000000     kernel32:KERNEL32.dll
 0000:fffba000       .debug$S                   0000000180000000     kernel32:KERNEL32.dll
 0000:fffba000       .debug$S                   0000000180000000     kernel32:KERNEL32.dll
 0000:fffba000       .debug$S                   0000000180000000     kernel32:KERNEL32.dll
 0000:fffba000       .debug$S                   0000000180000000     kernel32:KERNEL32.dll
 0000:fffba000       .debug$S                   0000000180000000     kernel32:KERNEL32.dll
 0000:fffba000       .debug$S                   0000000180000000     kernel32:KERNEL32.dll
 0000:fffba000       .debug$S                   0000000180000000     kernel32:KERNEL32.dll
 0000:fffba000       .debug$S                   0000000180000000     kernel32:KERNEL32.dll
 0000:fffba000       .debug$S                   0000000180000000     kernel32:KERNEL32.dll
 0000:fffba000       .debug$S                   0000000180000000     kernel32:KERNEL32.dll
 0000:fffba000       .debug$S                   0000000180000000     kernel32:KERNEL32.dll
 0000:fffba000       .debug$S                   0000000180000000     kernel32:KERNEL32.dll
 0000:fffba000       .debug$S                   0000000180000000     kernel32:KERNEL32.dll
 0000:fffba000       .debug$S                   0000000180000000     kernel32:KERNEL32.dll
 0000:fffba000       .debug$S                   0000000180000000     kernel32:KERNEL32.dll
 0000:fffba000       .debug$S                   0000000180000000     kernel32:KERNEL32.dll
 0000:fffba000       .debug$S                   0000000180000000     kernel32:KERNEL32.dll
 0000:fffba000       .debug$S                   0000000180000000     kernel32:KERNEL32.dll
 0000:fffba000       .debug$S                   0000000180000000     kernel32:KERNEL32.dll
 0000:fffba000       .debug$S                   0000000180000000     kernel32:KERNEL32.dll
 0000:fffba000       .debug$S                   0000000180000000     kernel32:KERNEL32.dll
 0000:fffba000       .debug$S                   0000000180000000     kernel32:KERNEL32.dll
 0000:fffba000       .debug$S                   0000000180000000     kernel32:KERNEL32.dll
 0000:fffba000       .debug$S                   0000000180000000     kernel32:KERNEL32.dll
 0000:fffba000       .debug$S                   0000000180000000     kernel32:KERNEL32.dll
 0000:fffba000       .debug$S                   0000000180000000     kernel32:KERNEL32.dll
 0000:fffba000       .debug$S                   0000000180000000     kernel32:KERNEL32.dll
 0000:fffba000       .debug$S                   0000000180000000     kernel32:KERNEL32.dll
 0000:fffba000       .debug$S                   0000000180000000     kernel32:KERNEL32.dll
 0000:fffba000       .debug$S                   0000000180000000     kernel32:KERNEL32.dll
 0000:fffba000       .debug$S                   0000000180000000     kernel32:KERNEL32.dll
 0000:fffba000       .debug$S                   0000000180000000     kernel32:KERNEL32.dll
 0000:fffba000       .debug$S                   0000000180000000     kernel32:KERNEL32.dll
 0000:fffba000       .debug$S                   0000000180000000     kernel32:KERNEL32.dll
 0000:fffba000       .debug$S                   0000000180000000     kernel32:KERNEL32.dll
 0000:fffba000       .debug$S                   0000000180000000     node:node.exe
 0000:fffba000       .debug$S                   0000000180000000     node:node.exe
 0000:fffba000       .debug$S                   0000000180000000     node:node.exe
 0000:fffba000       .debug$S                   0000000180000000     node:node.exe
 0000:fffba000       .debug$S                   0000000180000000     node:node.exe
 0000:fffba000       .debug$S                   0000000180000000     node:node.exe
 0000:fffba000       .debug$S                   0000000180000000     node:node.exe
 0000:fffba000       .debug$S                   0000000180000000     node:node.exe
 0000:fffba000       .debug$S                   0000000180000000     node:node.exe
 0000:fffba000       .debug$S                   0000000180000000     node:node.exe
 0000:fffba000       .debug$S                   0000000180000000     node:node.exe
 0000:fffba000       .debug$S                   0000000180000000     node:node.exe
 0000:fffba000       .debug$S                   0000000180000000     node:node.exe
 0000:fffba000       .debug$S                   0000000180000000     node:node.exe
 0000:fffba000       .debug$S                   0000000180000000     node:node.exe
 0000:fffba000       .debug$S                   0000000180000000     node:node.exe
 0000:fffba000       .debug$S                   0000000180000000     node:node.exe
 0000:fffba000       .debug$S                   0000000180000000     node:node.exe
 0000:fffba000       .debug$S                   0000000180000000     node:node.exe
 0000:fffba000       .debug$S                   0000000180000000     node:node.exe
 0000:fffba000       .debug$S                   0000000180000000     node:node.exe
 0000:fffba000       .debug$S                   0000000180000000     node:node.exe
 0000:fffba000       .debug$S                   0000000180000000     node:node.exe
 0000:fffba000       .debug$S                   0000000180000000     node:node.exe
 0000:fffba000       .debug$S                   0000000180000000     node:node.exe
 0000:fffba000       .debug$S                   0000000180000000     node:node.exe
 0000:fffba000       .debug$S                   0000000180000000     node:node.exe
 0000:fffba000       .debug$S                   0000000180000000     tensorflow:tensorflow.dll
 0000:fffba000       .debug$S                   0000000180000000     tensorflow:tensorflow.dll
 0000:fffba000       .debug$S                   0000000180000000     tensorflow:tensorflow.dll
 0000:fffba000       .debug$S                   0000000180000000     tensorflow:tensorflow.dll
 0000:fffba000       .debug$S                   0000000180000000     tensorflow:tensorflow.dll
 0000:fffba000       .debug$S                   0000000180000000     tensorflow:tensorflow.dll
 0000:fffba000       .debug$S                   0000000180000000     tensorflow:tensorflow.dll
 0000:fffba000       .debug$S                   0000000180000000     tensorflow:tensorflow.dll
 0000:fffba000       .debug$S                   0000000180000000     tensorflow:tensorflow.dll
 0000:fffba000       .debug$S                   0000000180000000     tensorflow:tensorflow.dll
 0000:fffba000       .debug$S                   0000000180000000     tensorflow:tensorflow.dll
 0000:fffba000       .debug$S                   0000000180000000     tensorflow:tensorflow.dll
 0000:fffba000       .debug$S                   0000000180000000     tensorflow:tensorflow.dll
 0000:fffba000       .debug$S                   0000000180000000     tensorflow:tensorflow.dll
 0000:fffba000       .debug$S                   0000000180000000     tensorflow:tensorflow.dll
 0000:fffba000       .debug$S                   0000000180000000     tensorflow:tensorflow.dll
 0000:fffba000       .debug$S                   0000000180000000     tensorflow:tensorflow.dll
 0000:fffba000       .debug$S                   0000000180000000     tensorflow:tensorflow.dll
 0000:fffba000       .debug$S                   0000000180000000     tensorflow:tensorflow.dll
 0000:fffba000       .debug$S                   0000000180000000     tensorflow:tensorflow.dll
 0000:fffba000       .debug$S                   0000000180000000     tensorflow:tensorflow.dll
 0000:fffba000       .debug$S                   0000000180000000     tensorflow:tensorflow.dll
 0000:fffba000       .debug$S                   0000000180000000     tensorflow:tensorflow.dll
 0000:fffba000       .debug$S                   0000000180000000     tensorflow:tensorflow.dll
 0000:fffba000       .debug$S                   0000000180000000     tensorflow:tensorflow.dll
 0000:fffba000       .debug$S                   0000000180000000     tensorflow:tensorflow.dll
 0000:fffba000       .debug$S                   0000000180000000     tensorflow:tensorflow.dll
 0000:fffba000       .debug$S                   0000000180000000     tensorflow:tensorflow.dll
 0000:fffba000       .debug$S                   0000000180000000     tensorflow:tensorflow.dll
 0000:fffba000       .debug$S                   0000000180000000     tensorflow:tensorflow.dll
 0000:fffba000       .debug$S                   0000000180000000     tensorflow:tensorflow.dll
 0000:fffba000       .debug$S                   0000000180000000     tensorflow:tensorflow.dll
 0000:fffba000       .debug$S                   0000000180000000     tensorflow:tensorflow.dll
 0000:fffba000       .debug$S                   0000000180000000     tensorflow:tensorflow.dll
 0000:fffba000       .debug$S                   0000000180000000     tensorflow:tensorflow.dll
 0000:fffba000       .debug$S                   0000000180000000     tensorflow:tensorflow.dll
 0000:fffba000       .debug$S                   0000000180000000     tensorflow:tensorflow.dll
 0000:fffba000       .debug$S                   0000000180000000     tensorflow:tensorflow.dll
 0000:fffba000       .debug$S                   0000000180000000     tensorflow:tensorflow.dll
 0001:00000000       ??__EATTR_NAME_SET@tfnodejs@@YAXXZ 0000000180001000 f   tfe_utils.obj
 0001:00000060       ??__Einitlocks@std@@YAXXZ  0000000180001060 f   libcpmt:xlock.obj
 0001:00000080       ??__E_Fac_tidy_reg@std@@YAXXZ 0000000180001080 f   libcpmt:locale0.obj
 0001:0000008c       ??__Eclassic_locale@std@@YAXXZ 000000018000108c f   libcpmt:locale0.obj
 0001:00000098       ??__Einit_atexit@@YAXXZ    0000000180001098 f   libcpmt:iosptrs.obj
 0001:000000a4       ??__Einitlocks@std@@YAXXZ  00000001800010a4 f   libcpmt:iosptrs.obj
 0001:0000230c       $LN942                     000000018000330c     tfe_utils.obj
 0001:000030a0       no_op_initialize           00000001800040a0 f i libucrt:wsetlocale.obj
 0001:000092d0       ?AssignIntProperty@tfnodejs@@YAXPEAUnapi_env__@@PEAUnapi_value__@@PEBDH@Z 000000018000a2d0 f   tfjs_binding.obj
 0001:00009370       ?CreateTensor@tfnodejs@@YAPEAUnapi_value__@@PEAUnapi_env__@@PEAUnapi_callback_info__@@@Z 000000018000a370 f   tfjs_binding.obj
 0001:000094c0       ?DeleteTensor@tfnodejs@@YAPEAUnapi_value__@@PEAUnapi_env__@@PEAUnapi_callback_info__@@@Z 000000018000a4c0 f   tfjs_binding.obj
 0001:00009590       ?TensorDataSync@tfnodejs@@YAPEAUnapi_value__@@PEAUnapi_env__@@PEAUnapi_callback_info__@@@Z 000000018000a590 f   tfjs_binding.obj
 0001:00009650       ?ExecuteOp@tfnodejs@@YAPEAUnapi_value__@@PEAUnapi_env__@@PEAUnapi_callback_info__@@@Z 000000018000a650 f   tfjs_binding.obj
 0001:000097b0       ?InitTFNodeJSBinding@tfnodejs@@YAPEAUnapi_value__@@PEAUnapi_env__@@PEAU2@@Z 000000018000a7b0 f   tfjs_binding.obj
 0001:00009a70       _register_tfe_binding      000000018000aa70 f   tfjs_binding.obj
 0001:00009a80       ?load_exe_hook@@YAP6A_JXZIPEAUDelayLoadInfo@@@Z 000000018000aa80 f   win_delay_load_hook.obj
 0001:0000a228       tidy_global                000000018000b228 f   libcpmt:locale0.obj
 0001:0000acbc       ?initialize_pointers@@YAHXZ 000000018000bcbc f   libcpmt:winapisupp.obj
 0001:0000b3c0       $$000000                   000000018000c3c0     LIBCMT:_amdsecgs_.obj
 0001:0000b3f4       ?__scrt_initialize_thread_safe_statics@@YAHXZ 000000018000c3f4 f   LIBCMT:thread_safe_statics.obj
 0001:0000b514       ?__scrt_uninitialize_thread_safe_statics@@YAXXZ 000000018000c514 f   LIBCMT:thread_safe_statics.obj
 0001:0000bb28       ?dllmain_crt_dispatch@@YAHQEAUHINSTANCE__@@KQEAX@Z 000000018000cb28 f   LIBCMT:dll_dllmain.obj
 0001:0000bb78       ?dllmain_crt_process_attach@@YAHQEAUHINSTANCE__@@QEAX@Z 000000018000cb78 f   LIBCMT:dll_dllmain.obj
 0001:0000bca4       ?dllmain_crt_process_detach@@YAH_N@Z 000000018000cca4 f   LIBCMT:dll_dllmain.obj
 0001:0000bd28       ?dllmain_dispatch@@YAHQEAUHINSTANCE__@@KQEAX@Z 000000018000cd28 f   LIBCMT:dll_dllmain.obj
 0001:0000be20       ?dllmain_raw@@YAHQEAUHINSTANCE__@@KQEAX@Z 000000018000ce20 f   LIBCMT:dll_dllmain.obj
 0001:0000bf70       $$000000                   000000018000cf70     LIBCMT:_chkstk_.obj
 0001:0000c18c       capture_current_context    000000018000d18c f   LIBCMT:gs_report.obj
 0001:0000c1fc       capture_previous_context   000000018000d1fc f   LIBCMT:gs_report.obj
 0001:0000c7d0       $$000000                   000000018000d7d0     libvcruntime:memcpy.obj
 0001:0000c877       MoveSmall                  000000018000d877     libvcruntime:memcpy.obj
 0001:0000cd80       ?CatchIt@@YAXPEAUEHExceptionRecord@@PEA_KPEAU_CONTEXT@@PEAU_xDISPATCHER_CONTEXT@@PEBU_s_FuncInfo@@PEBU_s_HandlerType@@PEBU_s_CatchableType@@PEBU_s_TryBlockMapEntry@@H1EE@Z 000000018000dd80 f   libvcruntime:frame.obj
 0001:0000ce44       ?ExFilterRethrow@@YAHPEAU_EXCEPTION_POINTERS@@PEAUEHExceptionRecord@@PEAH@Z 000000018000de44 f   libvcruntime:frame.obj
 0001:0000cecc       ?FindHandler@@YAXPEAUEHExceptionRecord@@PEA_KPEAU_CONTEXT@@PEAU_xDISPATCHER_CONTEXT@@PEBU_s_FuncInfo@@EH1@Z 000000018000decc f   libvcruntime:frame.obj
 0001:0000d39c       ?FindHandlerForForeignException@@YAXPEAUEHExceptionRecord@@PEA_KPEAU_CONTEXT@@PEAU_xDISPATCHER_CONTEXT@@PEBU_s_FuncInfo@@HH1@Z 000000018000e39c f   libvcruntime:frame.obj
 0001:0000d608       ?IsInExceptionSpec@@YAEPEAUEHExceptionRecord@@PEBU_s_ESTypeList@@@Z 000000018000e608 f   libvcruntime:frame.obj
 0001:0000e980       $$000000                   000000018000f980     libvcruntime:memset.obj
 0001:0000ea6c       MsetTab                    000000018000fa6c     libvcruntime:memset.obj
 0001:0000eb30       $$000000                   000000018000fb30     libvcruntime:memcmp.obj
 0001:0000ec08       ?try_get_function@@YAPEAXW4function_id@?A0x679b24ab@@QEBDQEBW4module_id@2@2@Z 000000018000fc08 f   libvcruntime:winapi_downlevel.obj
 0001:0000f5f0       $$000000                   00000001800105f0     libvcruntime:handlers.obj
 0001:0000f640       $$000000                   0000000180010640     libvcruntime:_jmpuwind_.obj
 0001:0000fc6c       ??$common_vsprintf@Vformat_validation_base@__crt_stdio_output@@D@@YAH_KQEAD0QEBDQEAU__crt_locale_pointers@@1@Z 0000000180010c6c f   libucrt:output.obj
 0001:0001153c       call_wsetlocale            000000018001253c f   libucrt:setlocale.obj
 0001:000121b8       ?x_ismbbtype_l@@YAHPEAU__crt_locale_pointers@@IHH@Z 00000001800131b8 f   libucrt:ismbbyte.obj
 0001:00012800       $$000000                   0000000180013800     libucrt:pow.obj
 0001:00013ea0       $$000000                   0000000180014ea0     libucrt:powf.obj
 0001:00014dc0       ?internal_isupper_l@@YA_NHQEAU__crt_locale_pointers@@@Z 0000000180015dc0 f   libucrt:tolower_toupper.obj
 0001:00015550       ?atexit_exception_filter@@YAHK@Z 0000000180016550 f   libucrt:exit.obj
 0001:0001555c       ?common_exit@@YAXHW4_crt_exit_cleanup_mode@@W4_crt_exit_return_mode@@@Z 000000018001655c f   libucrt:exit.obj
 0001:000156c8       ?exit_or_terminate_process@@YAXI@Z 00000001800166c8 f   libucrt:exit.obj
 0001:00015714       ?try_cor_exit_process@@YAXI@Z 0000000180016714 f   libucrt:exit.obj
 0001:000157ac       ??$parse_command_line@D@@YAXPEADPEAPEAD0PEA_K2@Z 00000001800167ac f   libucrt:argv_parsing.obj
 0001:00015b44       ??$common_initialize_environment_nolock@D@@YAHXZ 0000000180016b44 f   libucrt:environment_initialization.obj
 0001:00015bb0       ??$create_environment@D@@YAQEAPEADQEAD@Z 0000000180016bb0 f   libucrt:environment_initialization.obj
 0001:00015cac       ??$free_environment@_W@@YAXQEAPEA_W@Z 0000000180016cac f   libucrt:environment_initialization.obj
 0001:00015cac       ??$free_environment@D@@YAXQEAPEAD@Z 0000000180016cac f   libucrt:environment_initialization.obj
 0001:00015cf0       ??$uninitialize_environment_internal@D@@YAXAEAPEAPEAD@Z 0000000180016cf0 f   libucrt:environment_initialization.obj
 0001:00015d0c       ??$uninitialize_environment_internal@_W@@YAXAEAPEAPEA_W@Z 0000000180016d0c f   libucrt:environment_initialization.obj
 0001:00015f44       ??R<lambda_4e60a939b0d047cfe11ddc22648dfba9>@@QEBAHXZ 0000000180016f44 f   libucrt:onexit.obj
 0001:000161f4       initialize_global_variables 00000001800171f4 f   libucrt:initialization.obj
 0001:00016208       initialize_c               0000000180017208 f   libucrt:initialization.obj
 0001:0001622c       uninitialize_environment   000000018001722c f   libucrt:initialization.obj
 0001:0001623c       initialize_pointers        000000018001723c f   libucrt:initialization.obj
 0001:00016290       uninitialize_vcruntime     0000000180017290 f   libucrt:initialization.obj
 0001:00016298       uninitialize_allocated_memory 0000000180017298 f   libucrt:initialization.obj
 0001:00016328       initialize_global_state_isolation 0000000180017328 f   libucrt:initialization.obj
 0001:00016328       uninitialize_global_state_isolation 0000000180017328 f   libucrt:initialization.obj
 0001:00016328       initialize_environment     0000000180017328 f   libucrt:initialization.obj
 0001:00016328       uninitialize_c             0000000180017328 f   libucrt:initialization.obj
 0001:00016328       report_memory_leaks        0000000180017328 f   libucrt:initialization.obj
 0001:0001725c       ?<helper_func_cdecl>@<lambda_e2bb8337c48846e80c921ea5ddadc92d>@@CAHPEA_W@Z 000000018001825c f   libucrt:winapi_thunks.obj
 0001:00017338       ?try_get_function@@YAPEAXW4function_id@?A0x63058377@@QEBDQEBW4module_id@2@2@Z 0000000180018338 f   libucrt:winapi_thunks.obj
 0001:00017d78       common_flush_all           0000000180018d78 f   libucrt:fflush.obj
 0001:00017e9c       ?initialize_inherited_file_handles_nolock@@YAXXZ 0000000180018e9c f   libucrt:ioinit.obj
 0001:00017f88       ?initialize_stdio_handles_nolock@@YAXXZ 0000000180018f88 f   libucrt:ioinit.obj
 0001:00018228       ?construct_ptd_array@@YAXQEAU__acrt_ptd@@@Z 0000000180019228 f   libucrt:per_thread_data.obj
 0001:000182f8       ?destroy_fls@@YAXPEAX@Z    00000001800192f8 f   libucrt:per_thread_data.obj
 0001:00018318       ?destroy_ptd_array@@YAXQEAU__acrt_ptd@@@Z 0000000180019318 f   libucrt:per_thread_data.obj
 0001:00018410       ?replace_current_thread_locale_nolock@@YAXQEAU__acrt_ptd@@QEAU__crt_locale_data@@@Z 0000000180019410 f   libucrt:per_thread_data.obj
 0001:00018a38       ?fp_format_a@@YAHQEBNPEAD_KQEAD2H_NIQEAU__crt_locale_pointers@@@Z 0000000180019a38 f   libucrt:cvt.obj
 0001:00018d98       ?fp_format_e@@YAHQEBNQEAD_K12H_NIQEAU__crt_locale_pointers@@@Z 0000000180019d98 f   libucrt:cvt.obj
 0001:00018e68       ?fp_format_e_internal@@YAHQEAD_KH_NIQEAU_strflt@@2QEAU__crt_locale_pointers@@@Z 0000000180019e68 f   libucrt:cvt.obj
 0001:00019044       ?fp_format_f_internal@@YAHQEAD_KHQEAU_strflt@@_NQEAU__crt_locale_pointers@@@Z 000000018001a044 f   libucrt:cvt.obj
 0001:0001918c       ?fp_format_g@@YAHQEBNQEAD_K12H_NIQEAU__crt_locale_pointers@@@Z 000000018001a18c f   libucrt:cvt.obj
 0001:000192c4       ?fp_format_nan_or_infinity@@YAHW4__acrt_fp_class@@_NPEAD_K1@Z 000000018001a2c4 f   libucrt:cvt.obj
 0001:000197f4       ??R<lambda_2af78c5f5901b1372d98f9ab3177dfa6>@@QEBAXXZ 000000018001a7f4 f   libucrt:wsetlocale.obj
 0001:00019bb8       _copytlocinfo_nolock       000000018001abb8 f   libucrt:wsetlocale.obj
 0001:0001a178       _wsetlocale_get_all        000000018001b178 f   libucrt:wsetlocale.obj
 0001:0001a360       _wsetlocale_nolock         000000018001b360 f   libucrt:wsetlocale.obj
 0001:0001a5e8       _wsetlocale_set_cat        000000018001b5e8 f   libucrt:wsetlocale.obj
 0001:0001b3b8       ?_mbstowcs_l_helper@@YA_KPEA_WPEBD_KPEAU__crt_locale_pointers@@@Z 000000018001c3b8 f   libucrt:mbstowcs.obj
 0001:0001b6e4       ?_wcstombs_l_helper@@YA_KPEADPEB_W_KPEAU__crt_locale_pointers@@@Z 000000018001c6e4 f   libucrt:wcstombs.obj
 0001:0001bc44       ?InternalGetLocaleInfoA@@YAHQEAU__crt_locale_pointers@@QEB_WKQEADH@Z 000000018001cc44 f   libucrt:getlocaleinfoa.obj
 0001:0001c160       ?__acrt_LCMapStringA_stat@@YAHPEAU__crt_locale_pointers@@PEB_WKPEBDHPEADHHH@Z 000000018001d160 f   libucrt:lcmapstringa.obj
 0001:0001cad8       ?<helper_func_cdecl>@<lambda_2feae5270eb4d0d5532525f423405775>@@CAHPEBX0@Z 000000018001dad8 f   libucrt:argv_wildcards.obj
 0001:0001caec       ??$common_expand_argv_wildcards@D@@YAHQEAPEADQEAPEAPEAD@Z 000000018001daec f   libucrt:argv_wildcards.obj
 0001:0001ccf8       ??$copy_and_add_argument_to_buffer@D@@YAHQEBD0_KAEAV?$argument_list@D@?A0xca0879c4@@@Z 000000018001dcf8 f   libucrt:argv_wildcards.obj
 0001:0001ce08       ??$expand_argument_wildcards@D@@YAHQEAD0AEAV?$argument_list@D@?A0xca0879c4@@@Z 000000018001de08 f   libucrt:argv_wildcards.obj
 0001:0001d0bc       ??R<lambda_ad1ced32f4ac17aa236e5ef05d6b3b7c>@@QEBAXXZ 000000018001e0bc f   libucrt:mbctype.obj
 0001:0001d2d4       ?getSystemCP@@YAHH@Z       000000018001e2d4 f   libucrt:mbctype.obj
 0001:0001d354       ?setSBCS@@YAXPEAU__crt_multibyte_data@@@Z 000000018001e354 f   libucrt:mbctype.obj
 0001:0001d3e4       ?setSBUpLow@@YAXPEAU__crt_multibyte_data@@@Z 000000018001e3e4 f   libucrt:mbctype.obj
 0001:0001d5c8       ?setmbcp_internal@@YAHH_N@Z 000000018001e5c8 f   libucrt:mbctype.obj
 0001:0001de30       ?GetTableIndexFromLocaleName@@YAHPEB_W@Z 000000018001ee30 f   libucrt:lcidtoname_downlevel.obj
 0001:0001e220       ?write_double_translated_ansi_nolock@@YA?AUwrite_result@?A0x9c548279@@HQEBDI@Z 000000018001f220 f   libucrt:write.obj
 0001:0001e428       ?write_text_ansi_nolock@@YA?AUwrite_result@?A0x9c548279@@HQEBDI@Z 000000018001f428 f   libucrt:write.obj
 0001:0001e530       ?write_text_utf16le_nolock@@YA?AUwrite_result@?A0x9c548279@@HQEBDI@Z 000000018001f530 f   libucrt:write.obj
 0001:0001e64c       ?write_text_utf8_nolock@@YA?AUwrite_result@?A0x9c548279@@HQEBDI@Z 000000018001f64c f   libucrt:write.obj
 0001:000206e4       memcpy_s                   00000001800216e4 f   libucrt:cfout.obj
 0001:000206e4       memcpy_s                   00000001800216e4 f   libucrt:strtod.obj
 0001:0002115c       ?free_crt_array_internal@@YAXQEAPEBX_K@Z 000000018002215c f   libucrt:inittime.obj
 0001:000211b4       ?initialize_lc_time@@YA_NQEAU__crt_lc_time_data@@QEAU__crt_locale_data@@@Z 00000001800221b4 f   libucrt:inittime.obj
 0001:000218a4       GetLocaleNameFromDefault   00000001800228a4 f   libucrt:get_qualified_locale.obj
 0001:0002194c       GetLocaleNameFromLangCountry 000000018002294c f   libucrt:get_qualified_locale.obj
 0001:00021a1c       GetLocaleNameFromLanguage  0000000180022a1c f   libucrt:get_qualified_locale.obj
 0001:00021ab8       LangCountryEnumProcEx      0000000180022ab8 f   libucrt:get_qualified_locale.obj
 0001:00021e6c       LanguageEnumProcEx         0000000180022e6c f   libucrt:get_qualified_locale.obj
 0001:00021f58       ProcessCodePage            0000000180022f58 f   libucrt:get_qualified_locale.obj
 0001:0002200c       TestDefaultCountry         000000018002300c f   libucrt:get_qualified_locale.obj
 0001:00022074       TranslateName              0000000180023074 f   libucrt:get_qualified_locale.obj
 0001:00022330       CountryEnumProc            0000000180023330 f   libucrt:getqloc_downlevel.obj
 0001:0002241c       GetLcidFromLangCountry     000000018002341c f   libucrt:getqloc_downlevel.obj
 0001:000224ec       GetLcidFromLanguage        00000001800234ec f   libucrt:getqloc_downlevel.obj
 0001:00022584       LangCountryEnumProc        0000000180023584 f   libucrt:getqloc_downlevel.obj
 0001:000227c8       LanguageEnumProc           00000001800237c8 f   libucrt:getqloc_downlevel.obj
 0001:000228c4       LcidFromHexString          00000001800238c4 f   libucrt:getqloc_downlevel.obj
 0001:00022914       ProcessCodePage            0000000180023914 f   libucrt:getqloc_downlevel.obj
 0001:000229c4       TestDefaultLanguage        00000001800239c4 f   libucrt:getqloc_downlevel.obj
 0001:00022a70       TranslateName              0000000180023a70 f   libucrt:getqloc_downlevel.obj
 0001:00022d90       $$000000                   0000000180023d90     libucrt:fpsr.obj
 0001:00022f4c       _call_matherr              0000000180023f4c f   libucrt:libm_error.obj
 0001:00022fb4       _exception_enabled         0000000180023fb4 f   libucrt:libm_error.obj
 0001:000233c0       ?shortsort@@YAXPEAD0_KP6AHPEBX2@Z@Z 00000001800243c0 f   libucrt:qsort.obj
 0001:00023904       ?initialize_multibyte@@YAHXZ 0000000180024904 f   libucrt:multibyte_initializer.obj
 0001:00023b70       ??$common_lseek_nolock@_J@@YA_JH_JH@Z 0000000180024b70 f   libucrt:lseek.obj
 0001:00023e00       $$000000                   0000000180024e00     libucrt:log10.obj
 0001:000243ac       ??$common_xtox@K_W@@YAHKQEA_W_KI_N@Z 00000001800253ac f   libucrt:xtoa.obj
 0001:00024458       ??$common_xtox_s@K_W@@YAHKQEA_W_KI_N@Z 0000000180025458 f   libucrt:xtoa.obj
 0001:00024788       common_control87           0000000180025788 f   libucrt:ieee.obj
 0001:00024b30       _log_special_common        0000000180025b30 f   libucrt:log_special.obj
 0001:00025540       $$000000                   0000000180026540     LIBCMT:_guard_dispatch_.obj
 0001:00025560       ?dtor$0@?0??_Locimp_dtor@_Locimp@locale@std@@CAXPEAV123@@Z@4HA 0000000180026560 f   libcpmt:locale0.obj
 0001:00025560       ?dtor$0@?0??_Init@locale@std@@CAPEAV_Locimp@12@_N@Z@4HA 0000000180026560 f   libcpmt:locale0.obj
 0001:0002556c       __scrt_is_nonwritable_in_current_image$filt$0 000000018002656c f   LIBCMT:utility.obj
 0001:00025584       ?fin$0@?0??dllmain_crt_process_attach@@YAHQEAUHINSTANCE__@@QEAX@Z@4HA 0000000180026584 f   LIBCMT:dll_dllmain.obj
 0001:0002559b       ?fin$0@?0??dllmain_crt_process_detach@@YAH_N@Z@4HA 000000018002659b f   LIBCMT:dll_dllmain.obj
 0001:000255b7       ?filt$0@?0??dllmain_dispatch@@YAHQEAUHINSTANCE__@@KQEAX@Z@4HA 00000001800265b7 f   LIBCMT:dll_dllmain.obj
 0001:000255ed       __CxxCallCatchBlock$filt$0 00000001800265ed f   libvcruntime:frame.obj
 0001:00025612       __CxxCallCatchBlock$fin$1  0000000180026612 f   libvcruntime:frame.obj
 0001:0002568a       __DestructExceptionObject$filt$0 000000018002668a f   libvcruntime:frame.obj
 0001:000256a2       __FrameUnwindToState$filt$0 00000001800266a2 f   libvcruntime:frame.obj
 0001:000256b8       __FrameUnwindToState$fin$1 00000001800266b8 f   libvcruntime:frame.obj
 0001:000256db       _CallSETranslator$filt$0   00000001800266db f   libvcruntime:trnsctrl.obj
 0001:00025727       setlocale$fin$0            0000000180026727 f   libucrt:setlocale.obj
 0001:00025742       _query_new_handler$fin$0   0000000180026742 f   libucrt:new_handler.obj
 0001:00025758       ?filt$0@?0??common_exit@@YAXHW4_crt_exit_cleanup_mode@@W4_crt_exit_return_mode@@@Z@4HA 0000000180026758 f   libucrt:exit.obj
 0001:00025773       ?fin$1@?0??common_exit@@YAXHW4_crt_exit_cleanup_mode@@W4_crt_exit_return_mode@@@Z@4HA 0000000180026773 f   libucrt:exit.obj
 0001:0002578c       ?fin$0@?0???$?RV<lambda_e24bbb7b643b32fcea6fa61b31d4c984>@@AEAV<lambda_275893d493268fdec8709772e3fcec0e>@@V<lambda_9d71df4d7cf3f480f8d633942495c3b0>@@@?$__crt_seh_guarded_call@H@@QEAAH$$QEAV<lambda_e24bbb7b643b32fcea6fa61b31d4c984>@@AEAV<lambda_275893d493268fdec8709772e3fcec0e>@@$$QEAV<lambda_9d71df4d7cf3f480f8d633942495c3b0>@@@Z@4HA 000000018002678c f   libucrt:onexit.obj
 0001:000257a9       raise$fin$0                00000001800267a9 f   libucrt:signal.obj
 0001:000257cd       _fcloseall$fin$0           00000001800267cd f   libucrt:closeall.obj
 0001:000257e6       common_flush_all$fin$0     00000001800267e6 f   libucrt:fflush.obj
 0001:00025800       common_flush_all$fin$1     0000000180026800 f   libucrt:fflush.obj
 0001:00025819       ?fin$0@?0???$?RV<lambda_b8c45f8f788dd370798f47cfe8ac3a86>@@AEAV<lambda_4e60a939b0d047cfe11ddc22648dfba9>@@V<lambda_332c3edc96d0294ec56c57d38c1cdfd5>@@@?$__crt_seh_guarded_call@H@@QEAAH$$QEAV<lambda_b8c45f8f788dd370798f47cfe8ac3a86>@@AEAV<lambda_4e60a939b0d047cfe11ddc22648dfba9>@@$$QEAV<lambda_332c3edc96d0294ec56c57d38c1cdfd5>@@@Z@4HA 0000000180026819 f   libucrt:onexit.obj
 0001:00025819       ?fin$0@?0???$?RV<lambda_c36588078e9f5dfd39652860aa6b3aaf>@@AEAV<lambda_ec61778202f4f5fc7e7711acc23c3bca>@@V<lambda_dc9d2797ccde5d239b4a0efae8ebd7db>@@@?$__crt_seh_guarded_call@P6AXH@Z@@QEAAP6AXH@Z$$QEAV<lambda_c36588078e9f5dfd39652860aa6b3aaf>@@AEAV<lambda_ec61778202f4f5fc7e7711acc23c3bca>@@$$QEAV<lambda_dc9d2797ccde5d239b4a0efae8ebd7db>@@@Z@4HA 0000000180026819 f   libucrt:signal.obj
 0001:00025819       ?fin$0@?0???$?RV<lambda_630b2aca97f6d20d5b5ea6529ea6b6af>@@AEAV<lambda_af91936f1d075d609f72d9d8cba980af>@@V<lambda_e82fa975f615b5c7c7b0e4d178fdae67>@@@?$__crt_seh_guarded_call@H@@QEAAH$$QEAV<lambda_630b2aca97f6d20d5b5ea6529ea6b6af>@@AEAV<lambda_af91936f1d075d609f72d9d8cba980af>@@$$QEAV<lambda_e82fa975f615b5c7c7b0e4d178fdae67>@@@Z@4HA 0000000180026819 f   libucrt:winapi_thunks.obj
 0001:00025819       ?fin$0@?0???$?RV<lambda_fb3a7dec4e47f37f22dae91bb15c9095>@@AEAV<lambda_698284760c8add0bfb0756c19673e34b>@@V<lambda_dfb8eca1e75fef3034a8fb18dd509707>@@@?$__crt_seh_guarded_call@X@@QEAAX$$QEAV<lambda_fb3a7dec4e47f37f22dae91bb15c9095>@@AEAV<lambda_698284760c8add0bfb0756c19673e34b>@@$$QEAV<lambda_dfb8eca1e75fef3034a8fb18dd509707>@@@Z@4HA 0000000180026819 f   libucrt:per_thread_data.obj
 0001:00025819       ?fin$0@?0???$?RV<lambda_72d1df2b273a38828b1ce30cbf4cdab5>@@AEAV<lambda_876a65b173b8412d3a47c70a915b0cf4>@@V<lambda_41932305e351933ebe8f8be3ed8bb5dc>@@@?$__crt_seh_guarded_call@X@@QEAAX$$QEAV<lambda_72d1df2b273a38828b1ce30cbf4cdab5>@@AEAV<lambda_876a65b173b8412d3a47c70a915b0cf4>@@$$QEAV<lambda_41932305e351933ebe8f8be3ed8bb5dc>@@@Z@4HA 0000000180026819 f   libucrt:per_thread_data.obj
 0001:00025819       ?fin$0@?0???$?RV<lambda_99476a1ad63dd22509b5d3e65b0ffc95>@@AEAV<lambda_ad1ced32f4ac17aa236e5ef05d6b3b7c>@@V<lambda_f7424dd8d45958661754dc4f2697e9c3>@@@?$__crt_seh_guarded_call@X@@QEAAX$$QEAV<lambda_99476a1ad63dd22509b5d3e65b0ffc95>@@AEAV<lambda_ad1ced32f4ac17aa236e5ef05d6b3b7c>@@$$QEAV<lambda_f7424dd8d45958661754dc4f2697e9c3>@@@Z@4HA 0000000180026819 f   libucrt:mbctype.obj
 0001:00025819       ?fin$0@?0???$?RV<lambda_46352004c1216016012b18bd6f87e700>@@AEAV<lambda_3bd07e1a1191394380780325891bf33f>@@V<lambda_334532d3f185bcaa59b5be82d7d22bff>@@@?$__crt_seh_guarded_call@X@@QEAAX$$QEAV<lambda_46352004c1216016012b18bd6f87e700>@@AEAV<lambda_3bd07e1a1191394380780325891bf33f>@@$$QEAV<lambda_334532d3f185bcaa59b5be82d7d22bff>@@@Z@4HA 0000000180026819 f   libucrt:per_thread_data.obj
 0001:00025819       ?fin$0@?0???$?RV<lambda_5e887d1dcbef67a5eb4283622ba103bf>@@AEAV<lambda_4466841279450cc726390878d4a41900>@@V<lambda_341c25c0346d94847f1f3c463c57e077>@@@?$__crt_seh_guarded_call@X@@QEAAX$$QEAV<lambda_5e887d1dcbef67a5eb4283622ba103bf>@@AEAV<lambda_4466841279450cc726390878d4a41900>@@$$QEAV<lambda_341c25c0346d94847f1f3c463c57e077>@@@Z@4HA 0000000180026819 f   libucrt:per_thread_data.obj
 0001:00025819       ?fin$0@?0???$?RV<lambda_d67e8342c384adda8f857579ab50b2ae>@@AEAV<lambda_30712929f77e709619002f448b6a9510>@@V<lambda_4525336fd7e478d965fb7ca7a337cad8>@@@?$__crt_seh_guarded_call@X@@QEAAX$$QEAV<lambda_d67e8342c384adda8f857579ab50b2ae>@@AEAV<lambda_30712929f77e709619002f448b6a9510>@@$$QEAV<lambda_4525336fd7e478d965fb7ca7a337cad8>@@@Z@4HA 0000000180026819 f   libucrt:wsetlocale.obj
 0001:00025833       ?fin$0@?0???$?RV<lambda_5df02c53a8f32f81fd64e5bbb78039f1>@@AEAV<lambda_2af78c5f5901b1372d98f9ab3177dfa6>@@AEAV<lambda_f51fe5fd7c79a33db34fc9310f277369>@@@?$__crt_seh_guarded_call@X@@QEAAX$$QEAV<lambda_5df02c53a8f32f81fd64e5bbb78039f1>@@AEAV<lambda_2af78c5f5901b1372d98f9ab3177dfa6>@@AEAV<lambda_f51fe5fd7c79a33db34fc9310f277369>@@@Z@4HA 0000000180026833 f   libucrt:wsetlocale.obj
 0001:00025854       common_control87$filt$0    0000000180026854 f   libucrt:ieee.obj
 0001:00025854       _ctrlfp$filt$0             0000000180026854 f   libucrt:fpctrl.obj
 0001:00025880       __acrt_update_thread_multibyte_data$fin$0 0000000180026880 f   libucrt:mbctype.obj
 0001:00025899       fclose$fin$0               0000000180026899 f   libucrt:fclose.obj
 0001:000258b1       _write$fin$0               00000001800268b1 f   libucrt:write.obj
 0001:000258c8       __acrt_lowio_ensure_fh_exists$fin$0 00000001800268c8 f   libucrt:osfinfo.obj
 0001:000258c8       __acrt_initialize_lowio$fin$0 00000001800268c8 f   libucrt:ioinit.obj
 0001:000258e1       __acrt_update_thread_locale_data$fin$0 00000001800268e1 f   libucrt:locale_refcounting.obj
 0001:000258e1       __acrt_uninitialize_locale$fin$0 00000001800268e1 f   libucrt:wsetlocale.obj
 0001:000258fa       ?fin$0@?0???$?RV<lambda_b521505b218e5242e90febf6bfebc422>@@AEAV<lambda_6978c1fb23f02e42e1d9e99668cc68aa>@@V<lambda_314360699dd331753a4119843814e9a7>@@@?$__crt_seh_guarded_call@H@@QEAAH$$QEAV<lambda_b521505b218e5242e90febf6bfebc422>@@AEAV<lambda_6978c1fb23f02e42e1d9e99668cc68aa>@@$$QEAV<lambda_314360699dd331753a4119843814e9a7>@@@Z@4HA 00000001800268fa f   libucrt:commit.obj
 0001:000258fa       ?fin$0@?0???$?RV<lambda_bfedae4ebbf01fab1bb6dcc6a9e276e0>@@AEAV<lambda_2fe9b910cf3cbf4a0ab98a02ba45b3ec>@@V<lambda_237c231691f317818eb88cc1d5d642d6>@@@?$__crt_seh_guarded_call@H@@QEAAH$$QEAV<lambda_bfedae4ebbf01fab1bb6dcc6a9e276e0>@@AEAV<lambda_2fe9b910cf3cbf4a0ab98a02ba45b3ec>@@$$QEAV<lambda_237c231691f317818eb88cc1d5d642d6>@@@Z@4HA 00000001800268fa f   libucrt:close.obj
 0001:00025920       _IsNonwritableInCurrentImage$filt$0 0000000180026920 f   LIBCMT:pesect.obj
 0001:00025940       ??__FATTR_NAME_SET@tfnodejs@@YAXXZ 0000000180026940 f   tfe_utils.obj
 0001:00025984       ??__Finitlocks@std@@YAXXZ  0000000180026984 f   libcpmt:xlock.obj
 0001:00025990       ??__F_Fac_tidy_reg@std@@YAXXZ 0000000180026990 f   libcpmt:locale0.obj
 0001:000259bc       ??__Fclassic_locale@std@@YAXXZ 00000001800269bc f   libcpmt:locale0.obj
 0001:00025a1c       ??__Finit_atexit@@YAXXZ    0000000180026a1c f   libcpmt:iosptrs.obj
 0001:00025a70       ??__Finitlocks@std@@YAXXZ  0000000180026a70 f   libcpmt:iosptrs.obj
 0002:000003f0       ?initlocks$initializer$@std@@3P6AXXZEA 00000001800273f0     libcpmt:xlock.obj
 0002:000003f8       ?initlocks$initializer$@std@@3P6AXXZEA 00000001800273f8     libcpmt:iosptrs.obj
 0002:00000400       ?init_atexit$initializer$@@3P6AXXZEA 0000000180027400     libcpmt:iosptrs.obj
 0002:00000408       ?_Fac_tidy_reg$initializer$@std@@3P6AXXZEA 0000000180027408     libcpmt:locale0.obj
 0002:00000410       ?classic_locale$initializer$@std@@3P6AXXZEA 0000000180027410     libcpmt:locale0.obj
 0002:00000418       ?ATTR_NAME_SET$initializer$@tfnodejs@@3P6AXXZEA 0000000180027418     tfe_utils.obj
 0002:00000438       ?pinit@@3P6AHXZEA          0000000180027438     libcpmt:winapisupp.obj
 0002:00000440       ?__scrt_initialize_tss_var@@3P6AHXZEA 0000000180027440     LIBCMT:thread_safe_statics.obj
 0002:000004d0       $cppxdata$??_G_Fac_node@std@@QEAAPEAXI@Z 00000001800274d0     libcpmt:locale0.obj
 0002:000004f8       $cppxdata$?_Locimp_dtor@_Locimp@locale@std@@CAXPEAV123@@Z 00000001800274f8     libcpmt:locale0.obj
 0002:00000520       $cppxdata$??_G_Locimp@locale@std@@MEAAPEAXI@Z 0000000180027520     libcpmt:locale0.obj
 0002:00000548       $cppxdata$?_Init@locale@std@@CAPEAV_Locimp@12@_N@Z 0000000180027548     libcpmt:locale0.obj
 0002:00000570       $cppxdata$??__Fclassic_locale@std@@YAXXZ 0000000180027570     libcpmt:locale0.obj
 0002:000006a0       ?_Win_errtab@std@@3QBU_Win_errtab_t@1@B 00000001800276a0     libcpmt:syserror.obj
 0002:000008f0       ?_Sys_errtab@std@@3QBU_Sys_errtab_t@1@B 00000001800278f0     libcpmt:syserror.obj
 0002:00001490       $cppxdata$??__Finit_atexit@@YAXXZ 0000000180028490     libcpmt:iosptrs.obj
 0002:000019d0       digits                     00000001800289d0     libcpmt:xstoul.obj
 0002:000019f8       ndigs                      00000001800289f8     libcpmt:xstoul.obj
 0002:00001a20       digits                     0000000180028a20     libcpmt:xstoull.obj
 0002:00001a48       ndigs                      0000000180028a48     libcpmt:xstoull.obj
 0002:000020a0       ?LcidToLocaleNameTable@@3QBULcidToLocaleName@@B 00000001800290a0     libcpmt:winapinls.obj
 0002:00002ee0       ?LocaleNameToIndexTable@@3QBULocaleNameIndex@@B 0000000180029ee0     libcpmt:winapinls.obj
 0002:00004dc8       GS_ExceptionPointers       000000018002bdc8     LIBCMT:gs_report.obj
 0002:00004e40       ?ExceptionTemplate@?1??_UnwindNestedFrames@@9@4U_EXCEPTION_RECORD@@B 000000018002be40     libvcruntime:trnsctrl.obj
 0002:00004ee0       ?ExceptionTemplate@?1??_CxxThrowException@@9@4UEHExceptionRecord@@B 000000018002bee0     libvcruntime:throw.obj
 0002:00004f20       ?module_names@?A0x679b24ab@@3QBQEB_WB 000000018002bf20     libvcruntime:winapi_downlevel.obj
 0002:00004ff0       ?candidate_modules@?1??try_get_FlsAlloc@@YAP6AKP6AXPEAX@Z@ZXZ@4QBW4module_id@?A0x679b24ab@@B 000000018002bff0     libvcruntime:winapi_downlevel.obj
 0002:00004ff8       ?candidate_modules@?1??try_get_FlsFree@@YAP6AHK@ZXZ@4QBW4module_id@?A0x679b24ab@@B 000000018002bff8     libvcruntime:winapi_downlevel.obj
 0002:00005000       ?candidate_modules@?1??try_get_FlsGetValue@@YAP6APEAXK@ZXZ@4QBW4module_id@?A0x679b24ab@@B 000000018002c000     libvcruntime:winapi_downlevel.obj
 0002:00005008       ?candidate_modules@?1??try_get_FlsSetValue@@YAP6AHKPEAX@ZXZ@4QBW4module_id@?A0x679b24ab@@B 000000018002c008     libvcruntime:winapi_downlevel.obj
 0002:00005010       ?candidate_modules@?1??try_get_InitializeCriticalSectionEx@@YAP6AHPEAU_RTL_CRITICAL_SECTION@@KK@ZXZ@4QBW4module_id@?A0x679b24ab@@B 000000018002c010     libvcruntime:winapi_downlevel.obj
 0002:00005020       ?tokenTable@@3QBQEBDB      000000018002c020     libvcruntime:undname.obj
 0002:00005090       ?nameTable@@3QBQEBDB       000000018002c090     libvcruntime:undname.obj
 0002:00005318       ?rttiTable@@3QBQEBDB       000000018002c318     libvcruntime:undname.obj
 0002:00006230       errtable                   000000018002d230     libucrt:errno.obj
 0002:00006d70       __flag_x_one_y_snan        000000018002dd70     libucrt:pow.obj
 0002:00006d74       __flag_x_zero_z_inf        000000018002dd74     libucrt:pow.obj
 0002:00006d78       __flag_x_nan               000000018002dd78     libucrt:pow.obj
 0002:00006d7c       __flag_y_nan               000000018002dd7c     libucrt:pow.obj
 0002:00006d80       __flag_x_nan_y_nan         000000018002dd80     libucrt:pow.obj
 0002:00006d84       __flag_x_neg_y_notint      000000018002dd84     libucrt:pow.obj
 0002:00006d88       __flag_z_zero              000000018002dd88     libucrt:pow.obj
 0002:00006d8c       __flag_z_denormal          000000018002dd8c     libucrt:pow.obj
 0002:00006d90       __flag_z_inf               000000018002dd90     libucrt:pow.obj
 0002:00006da0       __ay_max_bound             000000018002dda0     libucrt:pow.obj
 0002:00006da8       __ay_min_bound             000000018002dda8     libucrt:pow.obj
 0002:00006db0       __sign_mask                000000018002ddb0     libucrt:pow.obj
 0002:00006db8       __sign_and_exp_mask        000000018002ddb8     libucrt:pow.obj
 0002:00006dc0       __exp_mask                 000000018002ddc0     libucrt:pow.obj
 0002:00006dc8       __neg_inf                  000000018002ddc8     libucrt:pow.obj
 0002:00006dd0       __pos_inf                  000000018002ddd0     libucrt:pow.obj
 0002:00006dd8       __pos_one                  000000018002ddd8     libucrt:pow.obj
 0002:00006de0       __pos_zero                 000000018002dde0     libucrt:pow.obj
 0002:00006de8       __exp_mant_mask            000000018002dde8     libucrt:pow.obj
 0002:00006df0       __mant_mask                000000018002ddf0     libucrt:pow.obj
 0002:00006df8       __ind_pattern              000000018002ddf8     libucrt:pow.obj
 0002:00006e00       __neg_qnan                 000000018002de00     libucrt:pow.obj
 0002:00006e08       __qnan                     000000018002de08     libucrt:pow.obj
 0002:00006e10       __qnan_set                 000000018002de10     libucrt:pow.obj
 0002:00006e18       __neg_one                  000000018002de18     libucrt:pow.obj
 0002:00006e20       __neg_zero                 000000018002de20     libucrt:pow.obj
 0002:00006e28       __exp_shift                000000018002de28     libucrt:pow.obj
 0002:00006e30       __exp_bias                 000000018002de30     libucrt:pow.obj
 0002:00006e38       __exp_bias_m1              000000018002de38     libucrt:pow.obj
 0002:00006e40       __yexp_53                  000000018002de40     libucrt:pow.obj
 0002:00006e48       __mant_full                000000018002de48     libucrt:pow.obj
 0002:00006e50       __1_before_mant            000000018002de50     libucrt:pow.obj
 0002:00006e58       __mask_mant_all8           000000018002de58     libucrt:pow.obj
 0002:00006e60       __mask_mant9               000000018002de60     libucrt:pow.obj
 0002:00006e70       __real_fffffffff8000000    000000018002de70     libucrt:pow.obj
 0002:00006e80       __mask_8000000000000000    000000018002de80     libucrt:pow.obj
 0002:00006e90       __real_4090040000000000    000000018002de90     libucrt:pow.obj
 0002:00006ea0       __real_C090C80000000000    000000018002dea0     libucrt:pow.obj
 0002:00006eb0       __real_ninf                000000018002deb0     libucrt:pow.obj
 0002:00006ec0       __real_inf                 000000018002dec0     libucrt:pow.obj
 0002:00006ed0       __real_nan                 000000018002ded0     libucrt:pow.obj
 0002:00006ee0       __real_mant                000000018002dee0     libucrt:pow.obj
 0002:00006ef0       __mask_1023                000000018002def0     libucrt:pow.obj
 0002:00006f00       __mask_001                 000000018002df00     libucrt:pow.obj
 0002:00006f10       __real_log2_lead           000000018002df10     libucrt:pow.obj
 0002:00006f20       __real_log2_tail           000000018002df20     libucrt:pow.obj
 0002:00006f30       __real_two                 000000018002df30     libucrt:pow.obj
 0002:00006f40       __real_one                 000000018002df40     libucrt:pow.obj
 0002:00006f50       __real_half                000000018002df50     libucrt:pow.obj
 0002:00006f60       __mask_100                 000000018002df60     libucrt:pow.obj
 0002:00006f70       __real_1_over_2            000000018002df70     libucrt:pow.obj
 0002:00006f80       __real_1_over_3            000000018002df80     libucrt:pow.obj
 0002:00006f90       __real_1_over_4            000000018002df90     libucrt:pow.obj
 0002:00006fa0       __real_1_over_5            000000018002dfa0     libucrt:pow.obj
 0002:00006fb0       __real_1_over_6            000000018002dfb0     libucrt:pow.obj
 0002:00006fc0       __real_1_over_7            000000018002dfc0     libucrt:pow.obj
 0002:00006fd0       __mask_1023_f              000000018002dfd0     libucrt:pow.obj
 0002:00006fe0       __mask_2045                000000018002dfe0     libucrt:pow.obj
 0002:00006ff0       __real_threshold           000000018002dff0     libucrt:pow.obj
 0002:00007000       __real_notsign             000000018002e000     libucrt:pow.obj
 0002:00007010       __log_F_inv_head           000000018002e010     libucrt:pow.obj
 0002:00007820       __log_F_inv_tail           000000018002e820     libucrt:pow.obj
 0002:00008030       __denormal_threshold       000000018002f030     libucrt:pow.obj
 0002:00008040       __enable_almost_inf        000000018002f040     libucrt:pow.obj
 0002:00008050       __real_zero                000000018002f050     libucrt:pow.obj
 0002:00008060       __real_smallest_denormal   000000018002f060     libucrt:pow.obj
 0002:00008070       __denormal_tiny_threshold  000000018002f070     libucrt:pow.obj
 0002:00008080       __real_p65536              000000018002f080     libucrt:pow.obj
 0002:00008090       __real_m68800              000000018002f090     libucrt:pow.obj
 0002:000080a0       __real_64_by_log2          000000018002f0a0     libucrt:pow.obj
 0002:000080b0       __real_log2_by_64_head     000000018002f0b0     libucrt:pow.obj
 0002:000080c0       __real_log2_by_64_tail     000000018002f0c0     libucrt:pow.obj
 0002:000080d0       __real_1_by_720            000000018002f0d0     libucrt:pow.obj
 0002:000080e0       __real_1_by_120            000000018002f0e0     libucrt:pow.obj
 0002:000080f0       __real_1_by_24             000000018002f0f0     libucrt:pow.obj
 0002:00008100       __real_1_by_6              000000018002f100     libucrt:pow.obj
 0002:00008110       __real_1_by_2              000000018002f110     libucrt:pow.obj
 0002:00008120       __flag_x_one_y_snan        000000018002f120     libucrt:powf.obj
 0002:00008124       __flag_x_zero_z_inf        000000018002f124     libucrt:powf.obj
 0002:00008128       __flag_x_nan               000000018002f128     libucrt:powf.obj
 0002:0000812c       __flag_y_nan               000000018002f12c     libucrt:powf.obj
 0002:00008130       __flag_x_nan_y_nan         000000018002f130     libucrt:powf.obj
 0002:00008134       __flag_x_neg_y_notint      000000018002f134     libucrt:powf.obj
 0002:00008138       __flag_z_zero              000000018002f138     libucrt:powf.obj
 0002:0000813c       __flag_z_denormal          000000018002f13c     libucrt:powf.obj
 0002:00008140       __flag_z_inf               000000018002f140     libucrt:powf.obj
 0002:00008144       L__1_by_3                  000000018002f144     libucrt:powf.obj
 0002:0000814c       L__log2                    000000018002f14c     libucrt:powf.obj
 0002:00008154       L__max_exp_arg             000000018002f154     libucrt:powf.obj
 0002:0000815c       L__min_exp_arg             000000018002f15c     libucrt:powf.obj
 0002:00008164       L__real_log2_by_64         000000018002f164     libucrt:powf.obj
 0002:0000816c       L__1_by_6                  000000018002f16c     libucrt:powf.obj
 0002:00008174       L__real_threshold          000000018002f174     libucrt:powf.obj
 0002:0000817c       L__real_one                000000018002f17c     libucrt:powf.obj
 0002:00008184       L__real_two                000000018002f184     libucrt:powf.obj
 0002:0000818c       L__neg_zero                000000018002f18c     libucrt:powf.obj
 0002:000081a0       L__real_ca42               000000018002f1a0     libucrt:powf.obj
 0002:000081a8       L__real_ca4                000000018002f1a8     libucrt:powf.obj
 0002:000081b0       L__real_ca31               000000018002f1b0     libucrt:powf.obj
 0002:000081b8       L__real_ca3                000000018002f1b8     libucrt:powf.obj
 0002:000081c0       L__clear_sign              000000018002f1c0     libucrt:powf.obj
 0002:000081d0       L__real_64_by_log2         000000018002f1d0     libucrt:powf.obj
 0002:000081e0       L__1_by_2                  000000018002f1e0     libucrt:powf.obj
 0002:000081f0       L__1023                    000000018002f1f0     libucrt:powf.obj
 0002:00008200       L__xexp_bits_xmantissa_bits 000000018002f200     libucrt:powf.obj
 0002:00008b20       __acrt_initializers        000000018002fb20     libucrt:initialization.obj
 0002:00008c10       module_names               000000018002fc10     libucrt:winapi_thunks.obj
 0002:00009140       ?candidate_modules@?1??try_get_CompareStringEx@@YAP6AHPEB_WK0H0HPEAU_nlsversioninfo@@PEAX_J@ZXZ@4QBW4module_id@?A0x63058377@@B 0000000180030140     libucrt:winapi_thunks.obj
 0002:00009148       ?candidate_modules@?1??try_get_EnumSystemLocalesEx@@YAP6AHP6AHPEA_WK_J@ZK1PEAX@ZXZ@4QBW4module_id@?A0x63058377@@B 0000000180030148     libucrt:winapi_thunks.obj
 0002:00009168       ?candidate_modules@?1??try_get_FlsAlloc@@YAP6AKP6AXPEAX@Z@ZXZ@4QBW4module_id@?A0x63058377@@B 0000000180030168     libucrt:winapi_thunks.obj
 0002:00009170       ?candidate_modules@?1??try_get_FlsFree@@YAP6AHK@ZXZ@4QBW4module_id@?A0x63058377@@B 0000000180030170     libucrt:winapi_thunks.obj
 0002:00009178       ?candidate_modules@?1??try_get_FlsGetValue@@YAP6APEAXK@ZXZ@4QBW4module_id@?A0x63058377@@B 0000000180030178     libucrt:winapi_thunks.obj
 0002:00009180       ?candidate_modules@?1??try_get_FlsSetValue@@YAP6AHKPEAX@ZXZ@4QBW4module_id@?A0x63058377@@B 0000000180030180     libucrt:winapi_thunks.obj
 0002:00009188       ?candidate_modules@?1??try_get_GetCurrentPackageId@@YAP6AJPEAIPEAE@ZXZ@4QBW4module_id@?A0x63058377@@B 0000000180030188     libucrt:winapi_thunks.obj
 0002:00009190       ?candidate_modules@?1??try_get_GetLocaleInfoEx@@YAP6AHPEB_WKPEA_WH@ZXZ@4QBW4module_id@?A0x63058377@@B 0000000180030190     libucrt:winapi_thunks.obj
 0002:00009198       ?candidate_modules@?1??try_get_GetUserDefaultLocaleName@@YAP6AHPEA_WH@ZXZ@4QBW4module_id@?A0x63058377@@B 0000000180030198     libucrt:winapi_thunks.obj
 0002:000091c0       ?candidate_modules@?1??try_get_InitializeCriticalSectionEx@@YAP6AHPEAU_RTL_CRITICAL_SECTION@@KK@ZXZ@4QBW4module_id@?A0x63058377@@B 00000001800301c0     libucrt:winapi_thunks.obj
 0002:000091c8       ?candidate_modules@?1??try_get_IsValidLocaleName@@YAP6AHPEB_W@ZXZ@4QBW4module_id@?A0x63058377@@B 00000001800301c8     libucrt:winapi_thunks.obj
 0002:000091e8       ?candidate_modules@?1??try_get_LCMapStringEx@@YAP6AHPEB_WK0HPEA_WHPEAU_nlsversioninfo@@PEAX_J@ZXZ@4QBW4module_id@?A0x63058377@@B 00000001800301e8     libucrt:winapi_thunks.obj
 0002:000091f0       ?candidate_modules@?1??try_get_LCIDToLocaleName@@YAP6AHKPEA_WHK@ZXZ@4QBW4module_id@?A0x63058377@@B 00000001800301f0     libucrt:winapi_thunks.obj
 0002:00009210       ?candidate_modules@?1??try_get_LocaleNameToLCID@@YAP6AKPEB_WK@ZXZ@4QBW4module_id@?A0x63058377@@B 0000000180030210     libucrt:winapi_thunks.obj
 0002:000093a0       _first_127char             00000001800303a0     libucrt:wsetlocale.obj
 0002:00009ac0       ?_names@?1??_get_fname@@9@9 0000000180030ac0     libucrt:fpexcept.obj
 0002:0000bbb0       _mb_locale_names           0000000180032bb0     libucrt:mbctype.obj
 0002:0000bbd0       LcidToLocaleNameTable      0000000180032bd0     libucrt:lcidtoname_downlevel.obj
 0002:0000ca10       LocaleNameToIndexTable     0000000180033a10     libucrt:lcidtoname_downlevel.obj
 0002:0000e850       __real@433fffffffffffff    0000000180035850     libucrt:fpsr.obj
 0002:0000e858       __real@c33fffffffffffff    0000000180035858     libucrt:fpsr.obj
 0002:0000e860       __real_ninf                0000000180035860     libucrt:log10.obj
 0002:0000e870       __real_inf                 0000000180035870     libucrt:log10.obj
 0002:0000e880       __real_neg_qnan            0000000180035880     libucrt:log10.obj
 0002:0000e890       __real_qnanbit             0000000180035890     libucrt:log10.obj
 0002:0000e8a0       __int_1023                 00000001800358a0     libucrt:log10.obj
 0002:0000e8b0       __mask_001                 00000001800358b0     libucrt:log10.obj
 0002:0000e8c0       __mask_mant                00000001800358c0     libucrt:log10.obj
 0002:0000e8d0       __mask_mant_top8           00000001800358d0     libucrt:log10.obj
 0002:0000e8e0       __mask_mant9               00000001800358e0     libucrt:log10.obj
 0002:0000e8f0       __real_log10_e             00000001800358f0     libucrt:log10.obj
 0002:0000e900       __real_log10_e_lead        0000000180035900     libucrt:log10.obj
 0002:0000e910       __real_log10_e_tail        0000000180035910     libucrt:log10.obj
 0002:0000e920       __real_log10_2_lead        0000000180035920     libucrt:log10.obj
 0002:0000e930       __real_log10_2_tail        0000000180035930     libucrt:log10.obj
 0002:0000e940       __real_two                 0000000180035940     libucrt:log10.obj
 0002:0000e950       __real_one                 0000000180035950     libucrt:log10.obj
 0002:0000e960       __real_half                0000000180035960     libucrt:log10.obj
 0002:0000e970       __mask_100                 0000000180035970     libucrt:log10.obj
 0002:0000e980       __real_1_over_512          0000000180035980     libucrt:log10.obj
 0002:0000e990       __real_1_over_2            0000000180035990     libucrt:log10.obj
 0002:0000e9a0       __real_1_over_3            00000001800359a0     libucrt:log10.obj
 0002:0000e9b0       __real_1_over_4            00000001800359b0     libucrt:log10.obj
 0002:0000e9c0       __real_1_over_5            00000001800359c0     libucrt:log10.obj
 0002:0000e9d0       __real_1_over_6            00000001800359d0     libucrt:log10.obj
 0002:0000e9e0       __real_neg_1023            00000001800359e0     libucrt:log10.obj
 0002:0000e9f0       __mask_2045                00000001800359f0     libucrt:log10.obj
 0002:0000ea00       __real_threshold           0000000180035a00     libucrt:log10.obj
 0002:0000ea10       __real_near_one_lt         0000000180035a10     libucrt:log10.obj
 0002:0000ea20       __real_near_one_gt         0000000180035a20     libucrt:log10.obj
 0002:0000ea30       __real_min_norm            0000000180035a30     libucrt:log10.obj
 0002:0000ea40       __real_notsign             0000000180035a40     libucrt:log10.obj
 0002:0000ea50       __real_ca1                 0000000180035a50     libucrt:log10.obj
 0002:0000ea60       __real_ca2                 0000000180035a60     libucrt:log10.obj
 0002:0000ea70       __real_ca3                 0000000180035a70     libucrt:log10.obj
 0002:0000ea80       __real_ca4                 0000000180035a80     libucrt:log10.obj
 0002:0000ea90       __mask_lower               0000000180035a90     libucrt:log10.obj
 0002:0000eaa0       __flag_x_zero              0000000180035aa0     libucrt:log10.obj
 0002:0000eaa4       __flag_x_neg               0000000180035aa4     libucrt:log10.obj
 0002:0000eaa8       __flag_x_nan               0000000180035aa8     libucrt:log10.obj
 0002:00011160       $unwind$?flush@?$basic_ostream@DU?$char_traits@D@std@@@std@@QEAAAEAV12@XZ 0000000180038160     tfe_utils.obj
 0002:00011160       $unwind$??0out_of_range@std@@QEAA@PEBD@Z 0000000180038160     libcpmt:xthrow.obj
 0002:00011160       $unwind$__stdio_common_vsprintf_s 0000000180038160     libucrt:output.obj
 0002:00011160       $unwind$??$common_xtox_s@K_W@@YAHKQEA_W_KI_N@Z 0000000180038160     libucrt:xtoa.obj
 0002:00011160       $unwind$?_Raise@exception@stdext@@QEBAXXZ 0000000180038160     tfe_utils.obj
 0002:00011160       $unwind$?equivalent@error_category@std@@UEBA_NHAEBVerror_condition@2@@Z 0000000180038160     tfe_utils.obj
 0002:00011160       $unwind$strtol             0000000180038160     libucrt:strtox.obj
 0002:00011160       $unwind$??0length_error@std@@QEAA@PEBD@Z 0000000180038160     libcpmt:xthrow.obj
 0002:00011168       $unwind$??_G_Iostream_error_category@std@@UEAAPEAXI@Z 0000000180038168     tfe_utils.obj
 0002:00011168       $unwind$?DloadReleaseSectionWriteAccess@@YAXXZ 0000000180038168     DelayImp:delayhlp.obj
 0002:00011168       $unwind$_SetThrowImageBase 0000000180038168     libvcruntime:trnsctrl.obj
 0002:00011168       $unwind$?message@_Iostream_error_category@std@@UEBA?AV?$basic_string@DU?$char_traits@D@std@@V?$allocator@D@2@@2@H@Z 0000000180038168     tfe_utils.obj
 0002:00011168       $unwind$__acrt_update_multibyte_info 0000000180038168     libucrt:locale_update.obj
 0002:00011168       $unwind$_set_statfp        0000000180038168     libucrt:fpctrl.obj
 0002:00011168       $unwind$??0_Lockit@std@@QEAA@H@Z 0000000180038168     libcpmt:xlock.obj
 0002:00011168       $unwind$_purecall          0000000180038168     libvcruntime:purevirt.obj
 0002:00011168       $unwind$__scrt_uninitialize_crt 0000000180038168     LIBCMT:utility.obj
 0002:00011168       $unwind$strcpy_s           0000000180038168     libucrt:strcpy_s.obj
 0002:00011168       $unwind$??_G_System_error@std@@UEAAPEAXI@Z 0000000180038168     tfe_utils.obj
 0002:00011168       $unwind$__acrt_uninitialize_winapi_thunks 0000000180038168     libucrt:winapi_thunks.obj
 0002:00011168       $unwind$__acrt_stdio_free_buffer_nolock 0000000180038168     libucrt:_freebuf.obj
 0002:00011168       $unwind$?load_exe_hook@@YAP6A_JXZIPEAUDelayLoadInfo@@@Z 0000000180038168     win_delay_load_hook.obj
 0002:00011168       $unwind$_malloc_base       0000000180038168     libucrt:malloc_base.obj
 0002:00011168       $unwind$??0bad_array_new_length@std@@QEAA@AEBV01@@Z 0000000180038168     LIBCMT:throw_bad_alloc.obj
 0002:00011168       $unwind$?initialize_pointers@@YAHXZ 0000000180038168     libcpmt:winapisupp.obj
 0002:00011168       $unwind$__scrt_initialize_crt 0000000180038168     LIBCMT:utility.obj
 0002:00011168       $unwind$?uflow@?$basic_streambuf@DU?$char_traits@D@std@@@std@@MEAAHXZ 0000000180038168     tfe_utils.obj
 0002:00011168       $unwind$??0?$output_processor@DV?$string_output_adapter@D@__crt_stdio_output@@V?$format_validation_base@DV?$string_output_adapter@D@__crt_stdio_output@@@2@@__crt_stdio_output@@QEAA@AEBV?$string_output_adapter@D@1@_KQEBDQEAU__crt_locale_pointers@@QEAD@Z 0000000180038168     libucrt:output.obj
 0002:00011168       $unwind$??0out_of_range@std@@QEAA@AEBV01@@Z 0000000180038168     libcpmt:xthrow.obj
 0002:00011168       $unwind$_SetImageBase      0000000180038168     libvcruntime:trnsctrl.obj
 0002:00011168       $unwind$uninitialize_allocated_memory 0000000180038168     libucrt:initialization.obj
 0002:00011168       $unwind$?_Tidy@?$basic_stringbuf@DU?$char_traits@D@std@@V?$allocator@D@2@@std@@IEAAXXZ 0000000180038168     tfe_utils.obj
 0002:00011168       $unwind$??_Gerror_category@std@@UEAAPEAXI@Z 0000000180038168     tfe_utils.obj
 0002:00011168       $unwind$??_G?$num_put@DV?$ostreambuf_iterator@DU?$char_traits@D@std@@@std@@@std@@MEAAPEAXI@Z 0000000180038168     tfe_utils.obj
 0002:00011168       $unwind$_fflush_nolock     0000000180038168     libucrt:fflush.obj
 0002:00011168       $unwind$_setfpstatusword   0000000180038168     libucrt:_fenvutils.obj
 0002:00011168       $unwind$?do_narrow@?$ctype@D@std@@MEBAPEBDPEBD0DPEAD@Z 0000000180038168     tfe_utils.obj
 0002:00011168       $unwind$?do_widen@?$ctype@D@std@@MEBAPEBDPEBD0PEAD@Z 0000000180038168     tfe_utils.obj
 0002:00011168       $unwind$__acrt_uninitialize_locks 0000000180038168     libucrt:locks.obj
 0002:00011168       $unwind$?__GetUnwindTryBlock@@YAHPEA_KPEAU_xDISPATCHER_CONTEXT@@PEBU_s_FuncInfo@@@Z 0000000180038168     libvcruntime:ehstate.obj
 0002:00011168       $unwind$??_Gexception@stdext@@UEAAPEAXI@Z 0000000180038168     tfe_utils.obj
 0002:00011168       $unwind$wcscat_s           0000000180038168     libucrt:wcscat_s.obj
 0002:00011168       $unwind$??_Gruntime_error@std@@UEAAPEAXI@Z 0000000180038168     tfe_utils.obj
 0002:00011168       $unwind$__acrt_allocate_buffer_for_argv 0000000180038168     libucrt:argv_parsing.obj
 0002:00011168       $unwind$__scrt_release_startup_lock 0000000180038168     LIBCMT:utility.obj
 0002:00011168       $unwind$_clearfp           0000000180038168     libucrt:ieee.obj
 0002:00011168       $unwind$?__StateFromIp@@YAHPEBU_s_FuncInfo@@PEAU_xDISPATCHER_CONTEXT@@_J@Z 0000000180038168     libvcruntime:ehstate.obj
 0002:00011168       $unwind$??$_Insert_at@AEAU?$pair@$$CBHPEAUTFE_TensorHandle@@@std@@PEAU?$_Tree_node@U?$pair@$$CBHPEAUTFE_TensorHandle@@@std@@PEAX@2@@?$_Tree@V?$_Tmap_traits@HPEAUTFE_TensorHandle@@U?$less@H@std@@V?$allocator@U?$pair@$$CBHPEAUTFE_TensorHandle@@@std@@@3@$0A@@std@@@std@@IEAA?AV?$_Tree_iterator@V?$_Tree_val@U?$_Tree_simple_types@U?$pair@$$CBHPEAUTFE_TensorHandle@@@std@@@std@@@std@@@1@_NPEAU?$_Tree_node@U?$pair@$$CBHPEAUTFE_TensorHandle@@@std@@PEAX@1@AEAU?$pair@$$CBHPEAUTFE_TensorHandle@@@1@1@Z 0000000180038168     tfjs_backend.obj
 0002:00011168       $unwind$_IsExceptionObjectToBeDestroyed 0000000180038168     libvcruntime:trnsctrl.obj
 0002:00011168       $unwind$_onexit            0000000180038168     LIBCMT:utility.obj
 0002:00011168       $unwind$??0length_error@std@@QEAA@AEBV01@@Z 0000000180038168     libcpmt:xthrow.obj
 0002:00011168       $unwind$?type_case_integer@?$output_processor@DV?$string_output_adapter@D@__crt_stdio_output@@V?$format_validation_base@DV?$string_output_adapter@D@__crt_stdio_output@@@2@@__crt_stdio_output@@AEAA_NI_N@Z 0000000180038168     libucrt:output.obj
 0002:00011168       $unwind$__acrt_freeptd     0000000180038168     libucrt:per_thread_data.obj
 0002:00011168       $unwind$_Init_thread_header 0000000180038168     LIBCMT:thread_safe_statics.obj
 0002:00011168       $unwind$?do_falsename@?$numpunct@D@std@@MEBA?AV?$basic_string@DU?$char_traits@D@std@@V?$allocator@D@2@@2@XZ 0000000180038168     tfe_utils.obj
 0002:00011168       $unwind$?exit_or_terminate_process@@YAXI@Z 0000000180038168     libucrt:exit.obj
 0002:00011168       $unwind$__vcrt_freeptd     0000000180038168     libvcruntime:per_thread_data.obj
 0002:00011168       $unwind$_Getctype          0000000180038168     libcpmt:_tolower.obj
 0002:00011168       $unwind$?_Facet_Register@std@@YAXPEAV_Facet_base@1@@Z 0000000180038168     libcpmt:locale0.obj
 0002:00011168       $unwind$_Init_thread_footer 0000000180038168     LIBCMT:thread_safe_statics.obj
 0002:00011168       $unwind$__std_exception_destroy 0000000180038168     libvcruntime:std_exception.obj
 0002:00011168       $unwind$__acrt_update_locale_info 0000000180038168     libucrt:locale_update.obj
 0002:00011168       $unwind$__std_type_info_destroy_list 0000000180038168     libvcruntime:std_type_info.obj
 0002:00011168       $unwind$??0exception@std@@QEAA@AEBV01@@Z 0000000180038168     libcpmt:xthrow.obj
 0002:00011168       $unwind$??1?$basic_string@DU?$char_traits@D@std@@V?$allocator@D@2@@std@@QEAA@XZ 0000000180038168     tfe_utils.obj
 0002:00011168       $unwind$?state_case_normal@?$output_processor@DV?$string_output_adapter@D@__crt_stdio_output@@V?$format_validation_base@DV?$string_output_adapter@D@__crt_stdio_output@@@2@@__crt_stdio_output@@AEAA_NXZ 0000000180038168     libucrt:output.obj
 0002:00011168       $unwind$??2@YAPEAX_K@Z     0000000180038168     LIBCMT:new_scalar.obj
 0002:00011168       $unwind$??0logic_error@std@@QEAA@AEBV01@@Z 0000000180038168     libcpmt:xthrow.obj
 0002:00011168       $unwind$_Init_thread_notify 0000000180038168     LIBCMT:thread_safe_statics.obj
 0002:00011168       $unwind$__acrt_fp_strflt_to_string 0000000180038168     libucrt:_fptostr.obj
 0002:00011168       $unwind$??1?$vector@_JV?$allocator@_J@std@@@std@@QEAA@XZ 0000000180038168     tfe_utils.obj
 0002:00011168       $unwind$__raise_securityfailure 0000000180038168     LIBCMT:gs_report.obj
 0002:00011168       $unwind$initialize_pointers 0000000180038168     libucrt:initialization.obj
 0002:00011168       $unwind$fesetenv           0000000180038168     libucrt:fesetenv.obj
 0002:00011168       $unwind$__acrt_initialize_locks 0000000180038168     libucrt:locks.obj
 0002:00011168       $unwind$??_G_Facet_base@std@@UEAAPEAXI@Z 0000000180038168     tfe_utils.obj
 0002:00011168       $unwind$_clrfp             0000000180038168     libucrt:fpctrl.obj
 0002:00011168       $unwind$?do_grouping@?$numpunct@D@std@@MEBA?AV?$basic_string@DU?$char_traits@D@std@@V?$allocator@D@2@@2@XZ 0000000180038168     tfe_utils.obj
 0002:00011168       $unwind$??_Gfailure@ios_base@std@@UEAAPEAXI@Z 0000000180038168     tfe_utils.obj
 0002:00011168       $unwind$_CreateFrameInfo   0000000180038168     libvcruntime:trnsctrl.obj
 0002:00011168       $unwind$_calloc_base       0000000180038168     libucrt:calloc_base.obj
 0002:00011168       $unwind$feholdexcept       0000000180038168     libucrt:feholdexcept.obj
 0002:00011168       $unwind$??0bad_exception@std@@QEAA@AEBV01@@Z 0000000180038168     libvcruntime:frame.obj
 0002:00011168       $unwind$?_Ios_base_dtor@ios_base@std@@CAXPEAV12@@Z 0000000180038168     libcpmt:ios.obj
 0002:00011168       $unwind$?_Setgloballocale@locale@std@@CAXPEAX@Z 0000000180038168     libcpmt:locale0.obj
 0002:00011168       $unwind$__acrt_uninitialize_stdio 0000000180038168     libucrt:_file.obj
 0002:00011168       $unwind$??0bad_alloc@std@@QEAA@AEBV01@@Z 0000000180038168     libcpmt:xthrow.obj
 0002:00011168       $unwind$wcscpy_s           0000000180038168     libucrt:wcscpy_s.obj
 0002:00011168       $unwind$__vcrt_uninitialize_locks 0000000180038168     libvcruntime:locks.obj
 0002:00011168       $unwind$?do_truename@?$numpunct@D@std@@MEBA?AV?$basic_string@DU?$char_traits@D@std@@V?$allocator@D@2@@2@XZ 0000000180038168     tfe_utils.obj
 0002:00011168       $unwind$??_Gtype_info@@UEAAPEAXI@Z 0000000180038168     LIBCMT:std_type_info_static.obj
 0002:00011168       $unwind$fegetenv           0000000180038168     libucrt:fegetenv.obj
 0002:00011168       $unwind$__vcrt_initialize_locks 0000000180038168     libvcruntime:locks.obj
 0002:00011170       $unwind$sprintf_s          0000000180038170     tfe_utils.obj
 0002:00011180       $unwind$_log10_special     0000000180038180     libucrt:log_special.obj
 0002:00011180       $unwind$?_Doraise@runtime_error@std@@MEBAXXZ 0000000180038180     tfe_utils.obj
 0002:00011180       $unwind$?_Doraise@failure@ios_base@std@@MEBAXXZ 0000000180038180     tfe_utils.obj
 0002:00011180       $unwind$_invalid_parameter_noinfo_noreturn 0000000180038180     libucrt:invalid_parameter.obj
 0002:00011180       $unwind$_invalid_parameter_noinfo 0000000180038180     libucrt:invalid_parameter.obj
 0002:00011180       $unwind$_itow_s            0000000180038180     libucrt:xtoa.obj
 0002:00011180       $unwind$wctomb_s           0000000180038180     libucrt:wctomb.obj
 0002:00011180       $unwind$_wtol              0000000180038180     libucrt:atox.obj
 0002:00011180       $unwind$mbstowcs_s         0000000180038180     libucrt:mbstowcs.obj
 0002:00011188       $unwind$??0_Locinfo@std@@QEAA@PEBD@Z 0000000180038188     tfe_utils.obj
 0002:00011188       $unwind$_stricmp_l         0000000180038188     libucrt:stricmp.obj
 0002:00011188       $unwind$?InsertHandle@TFJSBackend@tfnodejs@@AEAAHPEAUTFE_TensorHandle@@@Z 0000000180038188     tfjs_backend.obj
 0002:00011188       $unwind$?x_ismbbtype_l@@YAHPEAU__crt_locale_pointers@@IHH@Z 0000000180038188     libucrt:ismbbyte.obj
 0002:00011198       $unwind$_close_nolock      0000000180038198     libucrt:close.obj
 0002:00011198       $unwind$??0_LocaleUpdate@@QEAA@QEAU__crt_locale_pointers@@@Z 0000000180038198     libucrt:output.obj
 0002:00011198       $unwind$?force_decimal_point@__crt_stdio_output@@YAXPEADQEAU__crt_locale_pointers@@@Z 0000000180038198     libucrt:output.obj
 0002:00011198       $unwind$__acrt_FlsGetValue 0000000180038198     libucrt:winapi_thunks.obj
 0002:00011198       $unwind$?internal_isupper_l@@YA_NHQEAU__crt_locale_pointers@@@Z 0000000180038198     libucrt:tolower_toupper.obj
 0002:00011198       $unwind$?clear@?$_Tree@V?$_Tset_traits@V?$basic_string@DU?$char_traits@D@std@@V?$allocator@D@2@@std@@U?$less@V?$basic_string@DU?$char_traits@D@std@@V?$allocator@D@2@@std@@@2@V?$allocator@V?$basic_string@DU?$char_traits@D@std@@V?$allocator@D@2@@std@@@2@$0A@@std@@@std@@QEAAXXZ 0000000180038198     tfe_utils.obj
 0002:00011198       $unwind$??$common_initialize_environment_nolock@D@@YAHXZ 0000000180038198     libucrt:environment_initialization.obj
 0002:00011198       $unwind$??$common_xtox@K_W@@YAHKQEA_W_KI_N@Z 0000000180038198     libucrt:xtoa.obj
 0002:00011198       $unwind$__acrt_getptd      0000000180038198     libucrt:per_thread_data.obj
 0002:00011198       $unwind$__acrt_FlsAlloc    0000000180038198     libucrt:winapi_thunks.obj
 0002:00011198       $unwind$?<helper_func_cdecl>@<lambda_e2bb8337c48846e80c921ea5ddadc92d>@@CAHPEA_W@Z 0000000180038198     libucrt:winapi_thunks.obj
 0002:00011198       $unwind$??_Glogic_error@std@@UEAAPEAXI@Z 0000000180038198     libcpmt:xthrow.obj
 0002:00011198       $unwind$wcsncpy_s          0000000180038198     libucrt:wcsncpy_s.obj
 0002:00011198       $unwind$??_Gbad_alloc@std@@UEAAPEAXI@Z 0000000180038198     libcpmt:xthrow.obj
 0002:00011198       $unwind$__vcrt_FlsAlloc    0000000180038198     libvcruntime:winapi_downlevel.obj
 0002:00011198       $unwind$__acrt_locale_initialize_time 0000000180038198     libucrt:inittime.obj
 0002:00011198       $unwind$__vcrt_FlsFree     0000000180038198     libvcruntime:winapi_downlevel.obj
 0002:00011198       $unwind$__acrt_FlsFree     0000000180038198     libucrt:winapi_thunks.obj
 0002:00011198       $unwind$??_Glength_error@std@@UEAAPEAXI@Z 0000000180038198     libcpmt:xthrow.obj
 0002:00011198       $unwind$??0sentry@?$basic_ostream@DU?$char_traits@D@std@@@std@@QEAA@AEAV12@@Z 0000000180038198     tfe_utils.obj
 0002:00011198       $unwind$?_Assign_rv@?$basic_string@DU?$char_traits@D@std@@V?$allocator@D@2@@std@@QEAAX$$QEAV12@@Z 0000000180038198     tfe_utils.obj
 0002:00011198       $unwind$??_G?$basic_ios@DU?$char_traits@D@std@@@std@@UEAAPEAXI@Z 0000000180038198     tfe_utils.obj
 0002:00011198       $unwind$??_Glocale@std@@QEAAPEAXI@Z 0000000180038198     tfe_utils.obj
 0002:00011198       $unwind$?_Locinfo_ctor@_Locinfo@std@@SAXPEAV12@PEBD@Z 0000000180038198     libcpmt:locale0.obj
 0002:00011198       $unwind$??_G?$basic_ostream@DU?$char_traits@D@std@@@std@@UEAAPEAXI@Z 0000000180038198     tfe_utils.obj
 0002:00011198       $unwind$??1_Init_locks@std@@QEAA@XZ 0000000180038198     libcpmt:xlock.obj
 0002:00011198       $unwind$_updatetlocinfoEx_nolock 0000000180038198     libucrt:locale_refcounting.obj
 0002:00011198       $unwind$??_G?$basic_ostringstream@DU?$char_traits@D@std@@V?$allocator@D@2@@std@@UEAAPEAXI@Z 0000000180038198     tfe_utils.obj
 0002:00011198       $unwind$__acrt_errno_map_os_error 0000000180038198     libucrt:errno.obj
 0002:00011198       $unwind$?_New_Locimp@_Locimp@locale@std@@CAPEAV123@_N@Z 0000000180038198     libcpmt:locale0.obj
 0002:00011198       $unwind$??_Gout_of_range@std@@UEAAPEAXI@Z 0000000180038198     libcpmt:xthrow.obj
 0002:00011198       $unwind$??_G?$numpunct@D@std@@MEAAPEAXI@Z 0000000180038198     tfe_utils.obj
 0002:00011198       $unwind$?__SetUnwindTryBlock@@YAXPEA_KPEAU_xDISPATCHER_CONTEXT@@PEBU_s_FuncInfo@@H@Z 0000000180038198     libvcruntime:ehstate.obj
 0002:00011198       $unwind$??0?$basic_streambuf@DU?$char_traits@D@std@@@std@@IEAA@XZ 0000000180038198     tfe_utils.obj
 0002:00011198       $unwind$_callnewh          0000000180038198     libucrt:new_handler.obj
 0002:00011198       $unwind$??0?$basic_ostringstream@DU?$char_traits@D@std@@V?$allocator@D@2@@std@@QEAA@H@Z 0000000180038198     tfe_utils.obj
 0002:00011198       $unwind$?ExFilterRethrow@@YAHPEAU_EXCEPTION_POINTERS@@PEAUEHExceptionRecord@@PEAH@Z 0000000180038198     libvcruntime:frame.obj
 0002:00011198       $unwind$__vcrt_FlsGetValue 0000000180038198     libvcruntime:winapi_downlevel.obj
 0002:00011198       $unwind$??1?$basic_ostringstream@DU?$char_traits@D@std@@V?$allocator@D@2@@std@@UEAA@XZ 0000000180038198     tfe_utils.obj
 0002:00011198       $unwind$?DloadAcquireSectionWriteAccess@@YAXXZ 0000000180038198     DelayImp:delayhlp.obj
 0002:00011198       $unwind$??0?$basic_string@DU?$char_traits@D@std@@V?$allocator@D@2@@std@@QEAA@$$QEAV01@@Z 0000000180038198     tfe_utils.obj
 0002:00011198       $unwind$?replace_current_thread_locale_nolock@@YAXQEAU__acrt_ptd@@QEAU__crt_locale_data@@@Z 0000000180038198     libucrt:per_thread_data.obj
 0002:00011198       $unwind$?DloadGetSRWLockFunctionPointers@@YAEXZ 0000000180038198     DelayImp:delayhlp.obj
 0002:00011198       $unwind$?push_back@?$vector@_JV?$allocator@_J@std@@@std@@QEAAXAEB_J@Z 0000000180038198     tfe_utils.obj
 0002:00011198       $unwind$?type_case_c_tchar@?$output_processor@DV?$string_output_adapter@D@__crt_stdio_output@@V?$format_validation_base@DV?$string_output_adapter@D@__crt_stdio_output@@@2@@__crt_stdio_output@@AEAA_ND@Z 0000000180038198     libucrt:output.obj
 0002:00011198       $unwind$GetLocaleNameFromLangCountry 0000000180038198     libucrt:get_qualified_locale.obj
 0002:00011198       $unwind$GetLocaleNameFromLanguage 0000000180038198     libucrt:get_qualified_locale.obj
 0002:00011198       $unwind$_FindAndUnlinkFrame 0000000180038198     libvcruntime:trnsctrl.obj
 0002:00011198       $unwind$?try_cor_exit_process@@YAXI@Z 0000000180038198     libucrt:exit.obj
 0002:00011198       $unwind$_Deletegloballocale 0000000180038198     libcpmt:locale0.obj
 0002:00011198       $unwind$strncpy_s          0000000180038198     libucrt:strncpy_s.obj
 0002:00011198       $unwind$??_Gbad_array_new_length@std@@UEAAPEAXI@Z 0000000180038198     LIBCMT:throw_bad_alloc.obj
 0002:00011198       $unwind$??_GTF_AutoStatus@tfnodejs@@UEAAPEAXI@Z 0000000180038198     tfe_utils.obj
 0002:00011198       $unwind$??_Gios_base@std@@UEAAPEAXI@Z 0000000180038198     tfe_utils.obj
 0002:00011198       $unwind$_realloc_base      0000000180038198     libucrt:realloc_base.obj
 0002:00011198       $unwind$??_G?$ctype@D@std@@MEAAPEAXI@Z 0000000180038198     tfe_utils.obj
 0002:00011198       $unwind$GetLcidFromLangCountry 0000000180038198     libucrt:getqloc_downlevel.obj
 0002:00011198       $unwind$GetLcidFromLanguage 0000000180038198     libucrt:getqloc_downlevel.obj
 0002:00011198       $unwind$??_Gbad_exception@std@@UEAAPEAXI@Z 0000000180038198     libvcruntime:frame.obj
 0002:00011198       $unwind$__acrt_invoke_user_matherr 0000000180038198     libucrt:matherr.obj
 0002:00011198       $unwind$?erase@?$basic_string@DU?$char_traits@D@std@@V?$allocator@D@2@@std@@QEAAAEAV12@_K0@Z 0000000180038198     tfe_utils.obj
 0002:00011198       $unwind$??1_Locinfo@std@@QEAA@XZ 0000000180038198     tfe_utils.obj
 0002:00011198       $unwind$_fclose_nolock     0000000180038198     libucrt:fclose.obj
 0002:00011198       $unwind$??_Gexception@std@@UEAAPEAXI@Z 0000000180038198     libcpmt:xthrow.obj
 0002:00011198       $unwind$__acrt_IsValidLocaleName 0000000180038198     libucrt:winapi_thunks.obj
 0002:00011198       $unwind$__acrt_uninitialize_lowio 0000000180038198     libucrt:ioinit.obj
 0002:000111a4       $unwind$?_Getcat@?$ctype@D@std@@SA_KPEAPEBVfacet@locale@2@PEBV42@@Z 00000001800381a4     tfe_utils.obj
 0002:000111b4       $chain$0$?_Getcat@?$ctype@D@std@@SA_KPEAPEBVfacet@locale@2@PEBV42@@Z 00000001800381b4     tfe_utils.obj
 0002:000111c8       $chain$1$?_Getcat@?$ctype@D@std@@SA_KPEAPEBVfacet@locale@2@PEBV42@@Z 00000001800381c8     tfe_utils.obj
 0002:000111d8       $unwind$ProcessCodePage    00000001800381d8     libucrt:getqloc_downlevel.obj
 0002:000111d8       $unwind$?do_tolower@?$ctype@D@std@@MEBAPEBDPEADPEBD@Z 00000001800381d8     tfe_utils.obj
 0002:000111d8       $unwind$ProcessCodePage    00000001800381d8     libucrt:get_qualified_locale.obj
 0002:000111d8       $unwind$?do_toupper@?$ctype@D@std@@MEBAPEBDPEADPEBD@Z 00000001800381d8     tfe_utils.obj
 0002:000111d8       $unwind$TestDefaultLanguage 00000001800381d8     libucrt:getqloc_downlevel.obj
 0002:000111e8       $chain$0$?do_tolower@?$ctype@D@std@@MEBAPEBDPEADPEBD@Z 00000001800381e8     tfe_utils.obj
 0002:000111fc       $chain$1$?do_tolower@?$ctype@D@std@@MEBAPEBDPEADPEBD@Z 00000001800381fc     tfe_utils.obj
 0002:0001120c       $chain$0$?do_toupper@?$ctype@D@std@@MEBAPEBDPEADPEBD@Z 000000018003820c     tfe_utils.obj
 0002:00011220       $chain$1$?do_toupper@?$ctype@D@std@@MEBAPEBDPEADPEBD@Z 0000000180038220     tfe_utils.obj
 0002:00011230       $unwind$??0_System_error@std@@IEAA@Verror_code@1@AEBV?$basic_string@DU?$char_traits@D@std@@V?$allocator@D@2@@1@@Z 0000000180038230     tfe_utils.obj
 0002:00011248       $unwind$??0failure@ios_base@std@@QEAA@PEBDAEBVerror_code@2@@Z 0000000180038248     tfe_utils.obj
 0002:0001125c       $unwind$?clear@ios_base@std@@QEAAXH_N@Z 000000018003825c     tfe_utils.obj
 0002:00011270       $unwind$?EnsureNapiOK@tfnodejs@@YA_NPEAUnapi_env__@@W4napi_status@@PEBD_K@Z 0000000180038270     tfe_utils.obj
 0002:00011288       $unwind$?EnsureTFOK@tfnodejs@@YA_NPEAUnapi_env__@@AEAVTF_AutoStatus@1@PEBD_K@Z 0000000180038288     tfe_utils.obj
 0002:000112a0       $chain$0$?EnsureTFOK@tfnodejs@@YA_NPEAUnapi_env__@@AEAVTF_AutoStatus@1@PEBD_K@Z 00000001800382a0     tfe_utils.obj
 0002:000112b4       $chain$1$?EnsureTFOK@tfnodejs@@YA_NPEAUnapi_env__@@AEAVTF_AutoStatus@1@PEBD_K@Z 00000001800382b4     tfe_utils.obj
 0002:000112c4       $unwind$?ReportUnknownTypedArrayType@tfnodejs@@YAXPEAUnapi_env__@@W4napi_typedarray_type@@PEBD_K@Z 00000001800382c4     tfe_utils.obj
 0002:000112c4       $unwind$?ReportUnknownTFAttrType@tfnodejs@@YAXPEAUnapi_env__@@W4TF_AttrType@@PEBD_K@Z 00000001800382c4     tfe_utils.obj
 0002:000112c4       $unwind$?ReportUnknownTFDataType@tfnodejs@@YAXPEAUnapi_env__@@W4TF_DataType@@PEBD_K@Z 00000001800382c4     tfe_utils.obj
 0002:000112e0       $unwind$?ExtractArrayShape@tfnodejs@@YAXPEAUnapi_env__@@PEAUnapi_value__@@PEAV?$vector@_JV?$allocator@_J@std@@@std@@@Z 00000001800382e0     tfe_utils.obj
 0002:000112f0       $chain$0$?ExtractArrayShape@tfnodejs@@YAXPEAUnapi_env__@@PEAUnapi_value__@@PEAV?$vector@_JV?$allocator@_J@std@@@std@@@Z 00000001800382f0     tfe_utils.obj
 0002:00011304       $chain$1$?ExtractArrayShape@tfnodejs@@YAXPEAUnapi_env__@@PEAUnapi_value__@@PEAV?$vector@_JV?$allocator@_J@std@@@std@@@Z 0000000180038304     tfe_utils.obj
 0002:00011314       $unwind$?GetStringParam@tfnodejs@@YA?AW4napi_status@@PEAUnapi_env__@@PEAUnapi_value__@@AEAV?$basic_string@DU?$char_traits@D@std@@V?$allocator@D@2@@std@@@Z 0000000180038314     tfe_utils.obj
 0002:00011324       $chain$0$?GetStringParam@tfnodejs@@YA?AW4napi_status@@PEAUnapi_env__@@PEAUnapi_value__@@AEAV?$basic_string@DU?$char_traits@D@std@@V?$allocator@D@2@@std@@@Z 0000000180038324     tfe_utils.obj
 0002:00011338       $chain$2$?GetStringParam@tfnodejs@@YA?AW4napi_status@@PEAUnapi_env__@@PEAUnapi_value__@@AEAV?$basic_string@DU?$char_traits@D@std@@V?$allocator@D@2@@std@@@Z 0000000180038338     tfe_utils.obj
 0002:0001134c       $unwind$??$uninitialize_environment_internal@D@@YAXAEAPEAPEAD@Z 000000018003834c     libucrt:environment_initialization.obj
 0002:0001134c       $unwind$__acrt_DownlevelLocaleNameToLCID 000000018003834c     libucrt:lcidtoname_downlevel.obj
 0002:0001134c       $unwind$_fileno            000000018003834c     libucrt:fileno.obj
 0002:0001134c       $unwind$__crtDownlevelLocaleNameToLCID 000000018003834c     libcpmt:winapinls.obj
 0002:0001134c       $unwind$__vcrt_initialize_ptd 000000018003834c     libvcruntime:per_thread_data.obj
 0002:0001134c       $unwind$__vcrt_uninitialize_ptd 000000018003834c     libvcruntime:per_thread_data.obj
 0002:0001134c       $unwind$__acrt_initialize_ptd 000000018003834c     libucrt:per_thread_data.obj
 0002:0001134c       $unwind$__acrt_uninitialize_ptd 000000018003834c     libucrt:per_thread_data.obj
 0002:0001134c       $unwind$__dcrt_uninitialize_environments_nolock 000000018003834c     libucrt:environment_initialization.obj
 0002:0001134c       $unwind$__vcrt_getptd      000000018003834c     libvcruntime:per_thread_data.obj
 0002:0001134c       $unwind$_copytlocinfo_nolock 000000018003834c     libucrt:wsetlocale.obj
 0002:0001134c       $unwind$atexit             000000018003834c     LIBCMT:utility.obj
 0002:0001134c       $unwind$__vcrt_freefls     000000018003834c     libvcruntime:per_thread_data.obj
 0002:0001134c       $unwind$__pctype_func      000000018003834c     libucrt:ctype.obj
 0002:0001134c       $unwind$__acrt_uninitialize_critical 000000018003834c     libucrt:initialization.obj
 0002:0001134c       $unwind$_set_errno_from_matherr 000000018003834c     libucrt:fpexcept.obj
 0002:0001134c       $unwind$_statfp            000000018003834c     libucrt:fpctrl.obj
 0002:0001134c       $unwind$__scrt_acquire_startup_lock 000000018003834c     LIBCMT:utility.obj
 0002:0001134c       $unwind$__acrt_initialize_multibyte 000000018003834c     libucrt:mbctype.obj
 0002:0001134c       $unwind$__acrt_thread_attach 000000018003834c     libucrt:initialization.obj
 0002:0001134c       $unwind$__acrt_thread_detach 000000018003834c     libucrt:initialization.obj
 0002:0001134c       $unwind$__doserrno         000000018003834c     libucrt:errno.obj
 0002:0001134c       $unwind$___mb_cur_max_func 000000018003834c     libucrt:initctype.obj
 0002:0001134c       $unwind$_errno             000000018003834c     libucrt:errno.obj
 0002:0001134c       $unwind$?__GetCurrentState@@YAHPEA_KPEAU_xDISPATCHER_CONTEXT@@PEBU_s_FuncInfo@@@Z 000000018003834c     libvcruntime:ehstate.obj
 0002:0001134c       $unwind$initialize_c       000000018003834c     libucrt:initialization.obj
 0002:0001134c       $unwind$_wcsnicmp          000000018003834c     libucrt:wcsnicmp.obj
 0002:0001134c       $unwind$___lc_locale_name_func 000000018003834c     libucrt:initctype.obj
 0002:0001134c       $unwind$?state_case_size@?$output_processor@DV?$string_output_adapter@D@__crt_stdio_output@@V?$format_validation_base@DV?$string_output_adapter@D@__crt_stdio_output@@@2@@__crt_stdio_output@@AEAA_NXZ 000000018003834c     libucrt:output.obj
 0002:0001134c       $unwind$___lc_codepage_func 000000018003834c     libucrt:initctype.obj
 0002:0001134c       $unwind$_invoke_watson     000000018003834c     libucrt:invalid_parameter.obj
 0002:0001134c       $unwind$_GetImageBase      000000018003834c     libvcruntime:trnsctrl.obj
 0002:0001134c       $unwind$tolower            000000018003834c     libucrt:tolower_toupper.obj
 0002:0001134c       $unwind$_GetThrowImageBase 000000018003834c     libvcruntime:trnsctrl.obj
 0002:0001134c       $unwind$__vcrt_uninitialize_critical 000000018003834c     libvcruntime:initialization.obj
 0002:0001134c       $unwind$__acrt_can_use_vista_locale_apis 000000018003834c     libucrt:winapi_thunks.obj
 0002:0001134c       $unwind$?__scrt_uninitialize_thread_safe_statics@@YAXXZ 000000018003834c     LIBCMT:thread_safe_statics.obj
 0002:0001134c       $unwind$?_Atexit@@YAXP6AXXZ@Z 000000018003834c     libcpmt:iosptrs.obj
 0002:0001134c       $unwind$??$uninitialize_environment_internal@_W@@YAXAEAPEAPEA_W@Z 000000018003834c     libucrt:environment_initialization.obj
 0002:0001134c       $unwind$??$_Immortalize@V_Iostream_error_category@std@@@std@@YAAEAV_Iostream_error_category@0@XZ 000000018003834c     tfe_utils.obj
 0002:0001134c       $unwind$__vcrt_uninitialize 000000018003834c     libvcruntime:initialization.obj
 0002:0001134c       $unwind$__vcrt_initialize  000000018003834c     libvcruntime:initialization.obj
 0002:0001134c       $unwind$_msize             000000018003834c     libucrt:msize.obj
 0002:0001134c       $unwind$__scrt_dllmain_crt_thread_detach 000000018003834c     LIBCMT:utility.obj
 0002:0001134c       $unwind$??__Einitlocks@std@@YAXXZ 000000018003834c     libcpmt:xlock.obj
 0002:0001134c       $unwind$__scrt_dllmain_crt_thread_attach 000000018003834c     LIBCMT:utility.obj
 0002:0001134c       $unwind$__std_terminate    000000018003834c     libvcruntime:frame.obj
 0002:0001134c       $unwind$??__F_Fac_tidy_reg@std@@YAXXZ 000000018003834c     libcpmt:locale0.obj
 0002:0001134c       $unwind$__scrt_dllmain_uninitialize_critical 000000018003834c     LIBCMT:utility.obj
 0002:0001134c       $unwind$?initialize_multibyte@@YAHXZ 000000018003834c     libucrt:multibyte_initializer.obj
 0002:0001134c       $unwind$?_Locinfo_dtor@_Locinfo@std@@SAXPEAV12@@Z 000000018003834c     libcpmt:locale0.obj
 0002:0001134c       $unwind$__GSHandlerCheck   000000018003834c     LIBCMT:_gshandler_.obj
 0002:0001134c       $unwind$_wcsicmp           000000018003834c     libucrt:wcsicmp.obj
 0002:0001134c       $unwind$abort              000000018003834c     libucrt:abort.obj
 0002:0001134c       $unwind$localeconv         000000018003834c     libucrt:localeconv.obj
 0002:0001134c       $unwind$__dcrt_terminate_console_output 000000018003834c     libucrt:initcon.obj
 0002:0001134c       $unwind$__acrt_release_locale_ref 000000018003834c     libucrt:locale_refcounting.obj
 0002:0001134c       $unwind$__scrt_dllmain_uninitialize_c 000000018003834c     LIBCMT:utility.obj
 0002:0001134c       $unwind$__scrt_dllmain_after_initialize_c 000000018003834c     LIBCMT:utility.obj
 0002:0001134c       $unwind$_isatty            000000018003834c     libucrt:isatty.obj
 0002:0001134c       $unwind$__report_rangecheckfailure 000000018003834c     LIBCMT:gs_report.obj
 0002:0001134c       $unwind$__acrt_initialize_command_line 000000018003834c     libucrt:argv_data.obj
 0002:0001134c       $unwind$_get_osfhandle     000000018003834c     libucrt:osfinfo.obj
 0002:0001134c       $unwind$??1_Lockit@std@@QEAA@XZ 000000018003834c     libcpmt:xlock.obj
 0002:0001134c       $unwind$?dllmain_crt_dispatch@@YAHQEAUHINSTANCE__@@KQEAX@Z 000000018003834c     LIBCMT:dll_dllmain.obj
 0002:0001134c       $unwind$__FrameUnwindFilter 000000018003834c     libvcruntime:frame.obj
 0002:0001134c       $unwind$__scrt_dllmain_before_initialize_c 000000018003834c     LIBCMT:utility.obj
 0002:0001134c       $unwind$?deallocate@?$allocator@D@std@@QEAAXPEAD_K@Z 000000018003834c     tfe_utils.obj
 0002:0001134c       $unwind$_stricmp           000000018003834c     libucrt:stricmp.obj
 0002:0001134c       $unwind$_getfpcontrolword  000000018003834c     libucrt:_fenvutils.obj
 0002:0001134c       $unwind$tidy_global        000000018003834c     libcpmt:locale0.obj
 0002:0001134c       $unwind$__acrt_initialize_heap 000000018003834c     libucrt:heap_handle.obj
 0002:0001134c       $unwind$_getfpstatusword   000000018003834c     libucrt:_fenvutils.obj
 0002:0001134c       $unwind$??__Einitlocks@std@@YAXXZ 000000018003834c     libcpmt:iosptrs.obj
 0002:0001134c       $unwind$??__FATTR_NAME_SET@tfnodejs@@YAXXZ 000000018003834c     tfe_utils.obj
 0002:0001134c       $unwind$??__EATTR_NAME_SET@tfnodejs@@YAXXZ 000000018003834c     tfe_utils.obj
 0002:0001134c       $unwind$__vcrt_thread_detach 000000018003834c     libvcruntime:initialization.obj
 0002:0001134c       $unwind$?state_case_normal_tchar@?$output_processor@DV?$string_output_adapter@D@__crt_stdio_output@@V?$format_validation_base@DV?$string_output_adapter@D@__crt_stdio_output@@@2@@__crt_stdio_output@@AEAA_ND@Z 000000018003834c     libucrt:output.obj
 0002:0001134c       $unwind$__scrt_initialize_default_local_stdio_options 000000018003834c     LIBCMT:default_local_stdio_options.obj
 0002:0001134c       $unwind$__vcrt_thread_attach 000000018003834c     libvcruntime:initialization.obj
 0002:0001134c       $unwind$?allocate@?$allocator@D@std@@QEAAPEAD_K@Z 000000018003834c     tfe_utils.obj
 0002:0001134c       $unwind$uninitialize_environment 000000018003834c     libucrt:initialization.obj
 0002:00011354       $unwind$?CreateTFE_TensorHandleFromTypedArray@tfnodejs@@YAPEAUTFE_TensorHandle@@PEAUnapi_env__@@PEA_JIW4TF_DataType@@PEAUnapi_value__@@@Z 0000000180038354     tfe_utils.obj
 0002:00011368       $chain$1$?CreateTFE_TensorHandleFromTypedArray@tfnodejs@@YAPEAUTFE_TensorHandle@@PEAUnapi_env__@@PEA_JIW4TF_DataType@@PEAUnapi_value__@@@Z 0000000180038368     tfe_utils.obj
 0002:00011380       $chain$2$?CreateTFE_TensorHandleFromTypedArray@tfnodejs@@YAPEAUTFE_TensorHandle@@PEAUnapi_env__@@PEA_JIW4TF_DataType@@PEAUnapi_value__@@@Z 0000000180038380     tfe_utils.obj
 0002:00011390       $unwind$?CopyTFE_TensorHandleToDevice@tfnodejs@@YAPEAUTFE_TensorHandle@@PEAUnapi_env__@@PEBDPEAU2@PEAUTFE_Context@@@Z 0000000180038390     tfe_utils.obj
 0002:00011390       $unwind$_wcsdup            0000000180038390     libucrt:wcsdup.obj
 0002:00011390       $unwind$__lc_lctowcs       0000000180038390     libucrt:wsetlocale.obj
 0002:00011390       $unwind$__acrt_DownlevelLCIDToLocaleName 0000000180038390     libucrt:lcidtoname_downlevel.obj
 0002:00011390       $unwind$?init@?$basic_ios@DU?$char_traits@D@std@@@std@@IEAAXPEAV?$basic_streambuf@DU?$char_traits@D@std@@@2@_N@Z 0000000180038390     tfe_utils.obj
 0002:000113a4       $unwind$?CopyTFE_TensorHandleDataToTypedArray@tfnodejs@@YAXPEAUnapi_env__@@PEAUTFE_Context@@PEAUTFE_TensorHandle@@PEAPEAUnapi_value__@@@Z 00000001800383a4     tfe_utils.obj
 0002:000113b8       $chain$2$?CopyTFE_TensorHandleDataToTypedArray@tfnodejs@@YAXPEAUnapi_env__@@PEAUTFE_Context@@PEAUTFE_TensorHandle@@PEAPEAUnapi_value__@@@Z 00000001800383b8     tfe_utils.obj
 0002:000113cc       $chain$4$?CopyTFE_TensorHandleDataToTypedArray@tfnodejs@@YAXPEAUnapi_env__@@PEAUTFE_Context@@PEAUTFE_TensorHandle@@PEAPEAUnapi_value__@@@Z 00000001800383cc     tfe_utils.obj
 0002:000113e4       $chain$5$?CopyTFE_TensorHandleDataToTypedArray@tfnodejs@@YAXPEAUnapi_env__@@PEAUTFE_Context@@PEAUTFE_TensorHandle@@PEAPEAUnapi_value__@@@Z 00000001800383e4     tfe_utils.obj
 0002:000113f8       $chain$6$?CopyTFE_TensorHandleDataToTypedArray@tfnodejs@@YAXPEAUnapi_env__@@PEAUTFE_Context@@PEAUTFE_TensorHandle@@PEAPEAUnapi_value__@@@Z 00000001800383f8     tfe_utils.obj
 0002:00011408       $chain$7$?CopyTFE_TensorHandleDataToTypedArray@tfnodejs@@YAXPEAUnapi_env__@@PEAUTFE_Context@@PEAUTFE_TensorHandle@@PEAPEAUnapi_value__@@@Z 0000000180038408     tfe_utils.obj
 0002:00011418       $unwind$?GetTFE_TensorHandleShape@tfnodejs@@YAXPEAUnapi_env__@@PEAUTFE_TensorHandle@@PEAPEAUnapi_value__@@@Z 0000000180038418     tfe_utils.obj
 0002:00011428       $chain$0$?GetTFE_TensorHandleShape@tfnodejs@@YAXPEAUnapi_env__@@PEAUTFE_TensorHandle@@PEAPEAUnapi_value__@@@Z 0000000180038428     tfe_utils.obj
 0002:0001143c       $chain$1$?GetTFE_TensorHandleShape@tfnodejs@@YAXPEAUnapi_env__@@PEAUTFE_TensorHandle@@PEAPEAUnapi_value__@@@Z 000000018003843c     tfe_utils.obj
 0002:00011450       $chain$2$?GetTFE_TensorHandleShape@tfnodejs@@YAXPEAUnapi_env__@@PEAUTFE_TensorHandle@@PEAPEAUnapi_value__@@@Z 0000000180038450     tfe_utils.obj
 0002:00011460       $chain$3$?GetTFE_TensorHandleShape@tfnodejs@@YAXPEAUnapi_env__@@PEAUTFE_TensorHandle@@PEAPEAUnapi_value__@@@Z 0000000180038460     tfe_utils.obj
 0002:00011470       $unwind$?AssignOpAttr@tfnodejs@@YAXPEAUnapi_env__@@PEAUTFE_Op@@PEAUnapi_value__@@@Z 0000000180038470     tfe_utils.obj
 0002:00011488       $chain$2$?AssignOpAttr@tfnodejs@@YAXPEAUnapi_env__@@PEAUTFE_Op@@PEAUnapi_value__@@@Z 0000000180038488     tfe_utils.obj
 0002:000114a4       $chain$3$?AssignOpAttr@tfnodejs@@YAXPEAUnapi_env__@@PEAUTFE_Op@@PEAUnapi_value__@@@Z 00000001800384a4     tfe_utils.obj
 0002:000114b4       $chain$4$?AssignOpAttr@tfnodejs@@YAXPEAUnapi_env__@@PEAUTFE_Op@@PEAUnapi_value__@@@Z 00000001800384b4     tfe_utils.obj
 0002:000114d0       $unwind$__acrt_LocaleNameToLCID 00000001800384d0     libucrt:winapi_thunks.obj
 0002:000114d0       $unwind$memcpy_s           00000001800384d0     libucrt:cfout.obj
 0002:000114d0       $unwind$__acrt_stdio_flush_nolock 00000001800384d0     libucrt:fflush.obj
 0002:000114d0       $unwind$?__scrt_initialize_thread_safe_statics@@YAHXZ 00000001800384d0     LIBCMT:thread_safe_statics.obj
 0002:000114d0       $unwind$?assign@?$basic_string@DU?$char_traits@D@std@@V?$allocator@D@2@@std@@QEAAAEAV12@PEBD_K@Z 00000001800384d0     tfe_utils.obj
 0002:000114d0       $unwind$_RTC_Initialize    00000001800384d0     LIBCMT:_initsect_.obj
 0002:000114d0       $unwind$__acrt_GetUserDefaultLocaleName 00000001800384d0     libucrt:winapi_thunks.obj
 0002:000114d0       $unwind$memcpy_s           00000001800384d0     libucrt:strtod.obj
 0002:000114d0       $unwind$?type_case_Z@?$output_processor@DV?$string_output_adapter@D@__crt_stdio_output@@V?$format_validation_base@DV?$string_output_adapter@D@__crt_stdio_output@@@2@@__crt_stdio_output@@AEAA_NXZ 00000001800384d0     libucrt:output.obj
 0002:000114d0       $unwind$_RTC_Terminate     00000001800384d0     LIBCMT:_initsect_.obj
 0002:000114d0       $unwind$??_G?$basic_streambuf@DU?$char_traits@D@std@@@std@@UEAAPEAXI@Z 00000001800384d0     tfe_utils.obj
 0002:000114d0       $unwind$?type_case_s@?$output_processor@DV?$string_output_adapter@D@__crt_stdio_output@@V?$format_validation_base@DV?$string_output_adapter@D@__crt_stdio_output@@@2@@__crt_stdio_output@@AEAA_NXZ 00000001800384d0     libucrt:output.obj
 0002:000114d0       $unwind$?free_crt_array_internal@@YAXQEAPEBX_K@Z 00000001800384d0     libucrt:inittime.obj
 0002:000114d0       $unwind$__vcrt_FlsSetValue 00000001800384d0     libvcruntime:winapi_downlevel.obj
 0002:000114d0       $unwind$??R<lambda_ad1ced32f4ac17aa236e5ef05d6b3b7c>@@QEBAXXZ 00000001800384d0     libucrt:mbctype.obj
 0002:000114d0       $unwind$_Init_thread_wait  00000001800384d0     LIBCMT:thread_safe_statics.obj
 0002:000114d0       $unwind$?put@?$basic_ostream@DU?$char_traits@D@std@@@std@@QEAAAEAV12@D@Z 00000001800384d0     tfe_utils.obj
 0002:000114d0       $unwind$_exception_enabled 00000001800384d0     libucrt:libm_error.obj
 0002:000114d0       $unwind$?type_case_n@?$output_processor@DV?$string_output_adapter@D@__crt_stdio_output@@V?$format_validation_base@DV?$string_output_adapter@D@__crt_stdio_output@@@2@@__crt_stdio_output@@AEAA_NXZ 00000001800384d0     libucrt:output.obj
 0002:000114d0       $unwind$__acrt_getptd_noexit 00000001800384d0     libucrt:per_thread_data.obj
 0002:000114d0       $unwind$__acrt_FlsSetValue 00000001800384d0     libucrt:winapi_thunks.obj
 0002:000114d0       $unwind$__vcrt_getptd_noexit 00000001800384d0     libvcruntime:per_thread_data.obj
 0002:000114d0       $unwind$??$common_lseek_nolock@_J@@YA_JH_JH@Z 00000001800384d0     libucrt:lseek.obj
 0002:000114d0       $unwind$_Getcvt            00000001800384d0     libcpmt:xwctomb.obj
 0002:000114d0       $unwind$?_Tidy@ios_base@std@@AEAAXXZ 00000001800384d0     libcpmt:ios.obj
 0002:000114d0       $unwind$?assign@?$basic_string@DU?$char_traits@D@std@@V?$allocator@D@2@@std@@QEAAAEAV12@_KD@Z 00000001800384d0     tfe_utils.obj
 0002:000114d0       $unwind$?_Erase@?$_Tree@V?$_Tset_traits@V?$basic_string@DU?$char_traits@D@std@@V?$allocator@D@2@@std@@U?$less@V?$basic_string@DU?$char_traits@D@std@@V?$allocator@D@2@@std@@@2@V?$allocator@V?$basic_string@DU?$char_traits@D@std@@V?$allocator@D@2@@std@@@2@$0A@@std@@@std@@IEAAXPEAU?$_Tree_node@V?$basic_string@DU?$char_traits@D@std@@V?$allocator@D@2@@std@@PEAX@2@@Z 00000001800384d0     tfe_utils.obj
 0002:000114d0       $unwind$_DllMainCRTStartup 00000001800384d0     LIBCMT:dll_dllmain.obj
 0002:000114d0       $unwind$??0_Init_locks@std@@QEAA@XZ 00000001800384d0     libcpmt:xlock.obj
 0002:000114d0       $unwind$??4?$_Yarn@D@std@@QEAAAEAV01@PEBD@Z 00000001800384d0     libcpmt:locale0.obj
 0002:000114d0       $unwind$_initterm_e        00000001800384d0     libucrt:initterm.obj
 0002:000114d0       $unwind$__acrt_execute_uninitializers 00000001800384d0     libucrt:shared_initialization.obj
 0002:000114d0       $unwind$??_G?$basic_stringbuf@DU?$char_traits@D@std@@V?$allocator@D@2@@std@@UEAAPEAXI@Z 00000001800384d0     tfe_utils.obj
 0002:000114e0       $unwind$?seekpos@?$basic_stringbuf@DU?$char_traits@D@std@@V?$allocator@D@2@@std@@MEAA?AV?$fpos@U_Mbstatet@@@2@V32@H@Z 00000001800384e0     tfe_utils.obj
 0002:000114ec       $unwind$?seekoff@?$basic_stringbuf@DU?$char_traits@D@std@@V?$allocator@D@2@@std@@MEAA?AV?$fpos@U_Mbstatet@@@2@_JHH@Z 00000001800384ec     tfe_utils.obj
 0002:000114fc       $unwind$__CxxCallCatchBlock$fin$1 00000001800384fc     libvcruntime:frame.obj
 0002:000114fc       $unwind$?overflow@?$basic_stringbuf@DU?$char_traits@D@std@@V?$allocator@D@2@@std@@MEAAHH@Z 00000001800384fc     tfe_utils.obj
 0002:00011508       $chain$0$?overflow@?$basic_stringbuf@DU?$char_traits@D@std@@V?$allocator@D@2@@std@@MEAAHH@Z 0000000180038508     tfe_utils.obj
 0002:0001151c       $chain$6$?overflow@?$basic_stringbuf@DU?$char_traits@D@std@@V?$allocator@D@2@@std@@MEAAHH@Z 000000018003851c     tfe_utils.obj
 0002:00011540       $chain$7$?overflow@?$basic_stringbuf@DU?$char_traits@D@std@@V?$allocator@D@2@@std@@MEAAHH@Z 0000000180038540     tfe_utils.obj
 0002:0001155c       $unwind$??6?$basic_ostream@DU?$char_traits@D@std@@@std@@QEAAAEAV01@H@Z 000000018003855c     tfe_utils.obj
 0002:00011564       $chain$1$??6?$basic_ostream@DU?$char_traits@D@std@@@std@@QEAAAEAV01@H@Z 0000000180038564     tfe_utils.obj
 0002:0001157c       $chain$3$??6?$basic_ostream@DU?$char_traits@D@std@@@std@@QEAAAEAV01@H@Z 000000018003857c     tfe_utils.obj
 0002:00011594       $chain$4$??6?$basic_ostream@DU?$char_traits@D@std@@@std@@QEAAAEAV01@H@Z 0000000180038594     tfe_utils.obj
 0002:000115a8       $chain$5$??6?$basic_ostream@DU?$char_traits@D@std@@@std@@QEAAAEAV01@H@Z 00000001800385a8     tfe_utils.obj
 0002:000115b8       $chain$6$??6?$basic_ostream@DU?$char_traits@D@std@@@std@@QEAAAEAV01@H@Z 00000001800385b8     tfe_utils.obj
 0002:000115cc       $chain$7$??6?$basic_ostream@DU?$char_traits@D@std@@@std@@QEAAAEAV01@H@Z 00000001800385cc     tfe_utils.obj
 0002:000115dc       $unwind$?xsputn@?$basic_streambuf@DU?$char_traits@D@std@@@std@@MEAA_JPEBD_J@Z 00000001800385dc     tfe_utils.obj
 0002:000115dc       $unwind$?xsgetn@?$basic_streambuf@DU?$char_traits@D@std@@@std@@MEAA_JPEAD_J@Z 00000001800385dc     tfe_utils.obj
 0002:000115f0       $chain$0$?xsputn@?$basic_streambuf@DU?$char_traits@D@std@@@std@@MEAA_JPEBD_J@Z 00000001800385f0     tfe_utils.obj
 0002:00011604       $chain$1$?xsputn@?$basic_streambuf@DU?$char_traits@D@std@@@std@@MEAA_JPEBD_J@Z 0000000180038604     tfe_utils.obj
 0002:00011614       $chain$0$?xsgetn@?$basic_streambuf@DU?$char_traits@D@std@@@std@@MEAA_JPEAD_J@Z 0000000180038614     tfe_utils.obj
 0002:00011628       $chain$1$?xsgetn@?$basic_streambuf@DU?$char_traits@D@std@@@std@@MEAA_JPEAD_J@Z 0000000180038628     tfe_utils.obj
 0002:00011638       $unwind$?do_put@?$num_put@DV?$ostreambuf_iterator@DU?$char_traits@D@std@@@std@@@std@@MEBA?AV?$ostreambuf_iterator@DU?$char_traits@D@std@@@2@V32@AEAVios_base@2@DPEBX@Z 0000000180038638     tfe_utils.obj
 0002:00011650       $unwind$?do_put@?$num_put@DV?$ostreambuf_iterator@DU?$char_traits@D@std@@@std@@@std@@MEBA?AV?$ostreambuf_iterator@DU?$char_traits@D@std@@@2@V32@AEAVios_base@2@DN@Z 0000000180038650     tfe_utils.obj
 0002:00011650       $unwind$?do_put@?$num_put@DV?$ostreambuf_iterator@DU?$char_traits@D@std@@@std@@@std@@MEBA?AV?$ostreambuf_iterator@DU?$char_traits@D@std@@@2@V32@AEAVios_base@2@DO@Z 0000000180038650     tfe_utils.obj
 0002:00011674       $unwind$?do_put@?$num_put@DV?$ostreambuf_iterator@DU?$char_traits@D@std@@@std@@@std@@MEBA?AV?$ostreambuf_iterator@DU?$char_traits@D@std@@@2@V32@AEAVios_base@2@DK@Z 0000000180038674     tfe_utils.obj
 0002:00011674       $unwind$?do_put@?$num_put@DV?$ostreambuf_iterator@DU?$char_traits@D@std@@@std@@@std@@MEBA?AV?$ostreambuf_iterator@DU?$char_traits@D@std@@@2@V32@AEAVios_base@2@D_K@Z 0000000180038674     tfe_utils.obj
 0002:00011674       $unwind$?do_put@?$num_put@DV?$ostreambuf_iterator@DU?$char_traits@D@std@@@std@@@std@@MEBA?AV?$ostreambuf_iterator@DU?$char_traits@D@std@@@2@V32@AEAVios_base@2@DJ@Z 0000000180038674     tfe_utils.obj
 0002:00011674       $unwind$?do_put@?$num_put@DV?$ostreambuf_iterator@DU?$char_traits@D@std@@@std@@@std@@MEBA?AV?$ostreambuf_iterator@DU?$char_traits@D@std@@@2@V32@AEAVios_base@2@D_J@Z 0000000180038674     tfe_utils.obj
 0002:0001168c       $unwind$?do_put@?$num_put@DV?$ostreambuf_iterator@DU?$char_traits@D@std@@@std@@@std@@MEBA?AV?$ostreambuf_iterator@DU?$char_traits@D@std@@@2@V32@AEAVios_base@2@D_N@Z 000000018003868c     tfe_utils.obj
 0002:000116a8       $chain$1$?do_put@?$num_put@DV?$ostreambuf_iterator@DU?$char_traits@D@std@@@std@@@std@@MEBA?AV?$ostreambuf_iterator@DU?$char_traits@D@std@@@2@V32@AEAVios_base@2@D_N@Z 00000001800386a8     tfe_utils.obj
 0002:000116c0       $chain$2$?do_put@?$num_put@DV?$ostreambuf_iterator@DU?$char_traits@D@std@@@std@@@std@@MEBA?AV?$ostreambuf_iterator@DU?$char_traits@D@std@@@2@V32@AEAVios_base@2@D_N@Z 00000001800386c0     tfe_utils.obj
 0002:000116d4       $chain$3$?do_put@?$num_put@DV?$ostreambuf_iterator@DU?$char_traits@D@std@@@std@@@std@@MEBA?AV?$ostreambuf_iterator@DU?$char_traits@D@std@@@2@V32@AEAVios_base@2@D_N@Z 00000001800386d4     tfe_utils.obj
 0002:000116e4       $chain$4$?do_put@?$num_put@DV?$ostreambuf_iterator@DU?$char_traits@D@std@@@std@@@std@@MEBA?AV?$ostreambuf_iterator@DU?$char_traits@D@std@@@2@V32@AEAVios_base@2@D_N@Z 00000001800386e4     tfe_utils.obj
 0002:000116f4       $chain$5$?do_put@?$num_put@DV?$ostreambuf_iterator@DU?$char_traits@D@std@@@std@@@std@@MEBA?AV?$ostreambuf_iterator@DU?$char_traits@D@std@@@2@V32@AEAVios_base@2@D_N@Z 00000001800386f4     tfe_utils.obj
 0002:0001170c       $unwind$?assign@?$basic_string@DU?$char_traits@D@std@@V?$allocator@D@2@@std@@QEAAAEAV12@AEBV12@_K1@Z 000000018003870c     tfe_utils.obj
 0002:0001170c       $unwind$_free_osfhnd       000000018003870c     libucrt:osfinfo.obj
 0002:0001170c       $unwind$__std_exception_copy 000000018003870c     libvcruntime:std_exception.obj
 0002:0001170c       $unwind$?initialize_stdio_handles_nolock@@YAXXZ 000000018003870c     libucrt:ioinit.obj
 0002:0001170c       $unwind$_wcstombs_s_l      000000018003870c     libucrt:wcstombs.obj
 0002:00011720       $unwind$?append@?$basic_string@DU?$char_traits@D@std@@V?$allocator@D@2@@std@@QEAAAEAV12@_KD@Z 0000000180038720     tfe_utils.obj
 0002:00011720       $unwind$?append@?$basic_string@DU?$char_traits@D@std@@V?$allocator@D@2@@std@@QEAAAEAV12@PEBD_K@Z 0000000180038720     tfe_utils.obj
 0002:00011730       $chain$0$?append@?$basic_string@DU?$char_traits@D@std@@V?$allocator@D@2@@std@@QEAAAEAV12@PEBD_K@Z 0000000180038730     tfe_utils.obj
 0002:00011744       $chain$1$?append@?$basic_string@DU?$char_traits@D@std@@V?$allocator@D@2@@std@@QEAAAEAV12@PEBD_K@Z 0000000180038744     tfe_utils.obj
 0002:00011754       $chain$2$?append@?$basic_string@DU?$char_traits@D@std@@V?$allocator@D@2@@std@@QEAAAEAV12@PEBD_K@Z 0000000180038754     tfe_utils.obj
 0002:00011768       $unwind$?append@?$basic_string@DU?$char_traits@D@std@@V?$allocator@D@2@@std@@QEAAAEAV12@AEBV12@_K1@Z 0000000180038768     tfe_utils.obj
 0002:0001177c       $chain$0$?append@?$basic_string@DU?$char_traits@D@std@@V?$allocator@D@2@@std@@QEAAAEAV12@AEBV12@_K1@Z 000000018003877c     tfe_utils.obj
 0002:00011790       $chain$1$?append@?$basic_string@DU?$char_traits@D@std@@V?$allocator@D@2@@std@@QEAAAEAV12@AEBV12@_K1@Z 0000000180038790     tfe_utils.obj
 0002:000117a0       $chain$2$?append@?$basic_string@DU?$char_traits@D@std@@V?$allocator@D@2@@std@@QEAAAEAV12@AEBV12@_K1@Z 00000001800387a0     tfe_utils.obj
 0002:000117b4       $unwind$?str@?$basic_stringbuf@DU?$char_traits@D@std@@V?$allocator@D@2@@std@@QEBA?AV?$basic_string@DU?$char_traits@D@std@@V?$allocator@D@2@@2@XZ 00000001800387b4     tfe_utils.obj
 0002:000117cc       $unwind$?erase@?$_Tree@V?$_Tset_traits@V?$basic_string@DU?$char_traits@D@std@@V?$allocator@D@2@@std@@U?$less@V?$basic_string@DU?$char_traits@D@std@@V?$allocator@D@2@@std@@@2@V?$allocator@V?$basic_string@DU?$char_traits@D@std@@V?$allocator@D@2@@std@@@2@$0A@@std@@@std@@QEAA?AV?$_Tree_const_iterator@V?$_Tree_val@U?$_Tree_simple_types@V?$basic_string@DU?$char_traits@D@std@@V?$allocator@D@2@@std@@@std@@@std@@@2@V32@0@Z 00000001800387cc     tfe_utils.obj
 0002:000117d4       $unwind$?_Reallocate@?$vector@_JV?$allocator@_J@std@@@std@@IEAAX_K@Z 00000001800387d4     tfe_utils.obj
 0002:000117e8       $chain$0$?_Reallocate@?$vector@_JV?$allocator@_J@std@@@std@@IEAAX_K@Z 00000001800387e8     tfe_utils.obj
 0002:000117fc       $chain$1$?_Reallocate@?$vector@_JV?$allocator@_J@std@@@std@@IEAAX_K@Z 00000001800387fc     tfe_utils.obj
 0002:0001180c       $chain$2$?_Reallocate@?$vector@_JV?$allocator@_J@std@@@std@@IEAAX_K@Z 000000018003880c     tfe_utils.obj
 0002:00011820       $unwind$?_Iput@?$num_put@DV?$ostreambuf_iterator@DU?$char_traits@D@std@@@std@@@std@@AEBA?AV?$ostreambuf_iterator@DU?$char_traits@D@std@@@2@V32@AEAVios_base@2@DPEAD_K@Z 0000000180038820     tfe_utils.obj
 0002:00011844       $unwind$?_Fput@?$num_put@DV?$ostreambuf_iterator@DU?$char_traits@D@std@@@std@@@std@@AEBA?AV?$ostreambuf_iterator@DU?$char_traits@D@std@@@2@V32@AEAVios_base@2@DPEBD_K@Z 0000000180038844     tfe_utils.obj
 0002:00011868       $unwind$?_Copy@?$basic_string@DU?$char_traits@D@std@@V?$allocator@D@2@@std@@QEAAX_K0@Z 0000000180038868     tfe_utils.obj
 0002:0001187c       $chain$0$?append@?$basic_string@DU?$char_traits@D@std@@V?$allocator@D@2@@std@@QEAAAEAV12@_KD@Z 000000018003887c     tfe_utils.obj
 0002:00011890       $chain$1$?append@?$basic_string@DU?$char_traits@D@std@@V?$allocator@D@2@@std@@QEAAAEAV12@_KD@Z 0000000180038890     tfe_utils.obj
 0002:000118a0       $chain$2$?append@?$basic_string@DU?$char_traits@D@std@@V?$allocator@D@2@@std@@QEAAAEAV12@_KD@Z 00000001800388a0     tfe_utils.obj
 0002:000118b4       $chain$0$?flush@?$basic_ostream@DU?$char_traits@D@std@@@std@@QEAAAEAV12@XZ 00000001800388b4     tfe_utils.obj
 0002:000118c8       $chain$1$?flush@?$basic_ostream@DU?$char_traits@D@std@@@std@@QEAAAEAV12@XZ 00000001800388c8     tfe_utils.obj
 0002:000118d8       $unwind$??$free_environment@D@@YAXQEAPEAD@Z 00000001800388d8     libucrt:environment_initialization.obj
 0002:000118d8       $unwind$??$free_environment@_W@@YAXQEAPEA_W@Z 00000001800388d8     libucrt:environment_initialization.obj
 0002:000118d8       $unwind$?erase@?$_Tree@V?$_Tset_traits@V?$basic_string@DU?$char_traits@D@std@@V?$allocator@D@2@@std@@U?$less@V?$basic_string@DU?$char_traits@D@std@@V?$allocator@D@2@@std@@@2@V?$allocator@V?$basic_string@DU?$char_traits@D@std@@V?$allocator@D@2@@std@@@2@$0A@@std@@@std@@QEAA?AV?$_Tree_const_iterator@V?$_Tree_val@U?$_Tree_simple_types@V?$basic_string@DU?$char_traits@D@std@@V?$allocator@D@2@@std@@@std@@@std@@@2@V32@@Z 00000001800388d8     tfe_utils.obj
 0002:000118e4       $unwind$??$use_facet@V?$ctype@D@std@@@std@@YAAEBV?$ctype@D@0@AEBVlocale@0@@Z 00000001800388e4     tfe_utils.obj
 0002:000118e4       $unwind$??$use_facet@V?$numpunct@D@std@@@std@@YAAEBV?$numpunct@D@0@AEBVlocale@0@@Z 00000001800388e4     tfe_utils.obj
 0002:000118f4       $unwind$??$?6U?$char_traits@D@std@@@std@@YAAEAV?$basic_ostream@DU?$char_traits@D@std@@@0@AEAV10@PEBD@Z 00000001800388f4     tfe_utils.obj
 0002:000118fc       $chain$3$??$?6U?$char_traits@D@std@@@std@@YAAEAV?$basic_ostream@DU?$char_traits@D@std@@@0@AEAV10@PEBD@Z 00000001800388fc     tfe_utils.obj
 0002:0001191c       $chain$4$??$?6U?$char_traits@D@std@@@std@@YAAEAV?$basic_ostream@DU?$char_traits@D@std@@@0@AEAV10@PEBD@Z 000000018003891c     tfe_utils.obj
 0002:00011930       $chain$5$??$?6U?$char_traits@D@std@@@std@@YAAEAV?$basic_ostream@DU?$char_traits@D@std@@@0@AEAV10@PEBD@Z 0000000180038930     tfe_utils.obj
 0002:00011940       $unwind$__acrt_copy_locale_name 0000000180038940     libucrt:wsetlocale.obj
 0002:00011940       $unwind$??$endl@DU?$char_traits@D@std@@@std@@YAAEAV?$basic_ostream@DU?$char_traits@D@std@@@0@AEAV10@@Z 0000000180038940     tfe_utils.obj
 0002:00011950       $unwind$??$use_facet@V?$num_put@DV?$ostreambuf_iterator@DU?$char_traits@D@std@@@std@@@std@@@std@@YAAEBV?$num_put@DV?$ostreambuf_iterator@DU?$char_traits@D@std@@@std@@@0@AEBVlocale@0@@Z 0000000180038950     tfe_utils.obj
 0002:00011964       $unwind$?_Getcat@?$numpunct@D@std@@SA_KPEAPEBVfacet@locale@2@PEBV42@@Z 0000000180038964     tfe_utils.obj
 0002:00011974       $chain$0$?_Getcat@?$numpunct@D@std@@SA_KPEAPEBVfacet@locale@2@PEBV42@@Z 0000000180038974     tfe_utils.obj
 0002:00011988       $chain$1$?_Getcat@?$numpunct@D@std@@SA_KPEAPEBVfacet@locale@2@PEBV42@@Z 0000000180038988     tfe_utils.obj
 0002:00011998       $unwind$?_Init@?$numpunct@D@std@@IEAAXAEBV_Locinfo@2@_N@Z 0000000180038998     tfe_utils.obj
 0002:000119b0       $unwind$??$_Insert_nohint@V?$basic_string@DU?$char_traits@D@std@@V?$allocator@D@2@@std@@U_Nil@2@@?$_Tree@V?$_Tset_traits@V?$basic_string@DU?$char_traits@D@std@@V?$allocator@D@2@@std@@U?$less@V?$basic_string@DU?$char_traits@D@std@@V?$allocator@D@2@@std@@@2@V?$allocator@V?$basic_string@DU?$char_traits@D@std@@V?$allocator@D@2@@std@@@2@$0A@@std@@@std@@IEAA?AU?$pair@V?$_Tree_const_iterator@V?$_Tree_val@U?$_Tree_simple_types@V?$basic_string@DU?$char_traits@D@std@@V?$allocator@D@2@@std@@@std@@@std@@@std@@_N@1@_N$$QEAV?$basic_string@DU?$char_traits@D@std@@V?$allocator@D@2@@1@U_Nil@1@@Z 00000001800389b0     tfe_utils.obj
 0002:000119c8       $chain$0$??$_Insert_nohint@V?$basic_string@DU?$char_traits@D@std@@V?$allocator@D@2@@std@@U_Nil@2@@?$_Tree@V?$_Tset_traits@V?$basic_string@DU?$char_traits@D@std@@V?$allocator@D@2@@std@@U?$less@V?$basic_string@DU?$char_traits@D@std@@V?$allocator@D@2@@std@@@2@V?$allocator@V?$basic_string@DU?$char_traits@D@std@@V?$allocator@D@2@@std@@@2@$0A@@std@@@std@@IEAA?AU?$pair@V?$_Tree_const_iterator@V?$_Tree_val@U?$_Tree_simple_types@V?$basic_string@DU?$char_traits@D@std@@V?$allocator@D@2@@std@@@std@@@std@@@std@@_N@1@_N$$QEAV?$basic_string@DU?$char_traits@D@std@@V?$allocator@D@2@@1@U_Nil@1@@Z 00000001800389c8     tfe_utils.obj
 0002:000119dc       $chain$1$??$_Insert_nohint@V?$basic_string@DU?$char_traits@D@std@@V?$allocator@D@2@@std@@U_Nil@2@@?$_Tree@V?$_Tset_traits@V?$basic_string@DU?$char_traits@D@std@@V?$allocator@D@2@@std@@U?$less@V?$basic_string@DU?$char_traits@D@std@@V?$allocator@D@2@@std@@@2@V?$allocator@V?$basic_string@DU?$char_traits@D@std@@V?$allocator@D@2@@std@@@2@$0A@@std@@@std@@IEAA?AU?$pair@V?$_Tree_const_iterator@V?$_Tree_val@U?$_Tree_simple_types@V?$basic_string@DU?$char_traits@D@std@@V?$allocator@D@2@@std@@@std@@@std@@@std@@_N@1@_N$$QEAV?$basic_string@DU?$char_traits@D@std@@V?$allocator@D@2@@1@U_Nil@1@@Z 00000001800389dc     tfe_utils.obj
 0002:000119ec       $unwind$??$_Insert_at@V?$basic_string@DU?$char_traits@D@std@@V?$allocator@D@2@@std@@U_Nil@2@@?$_Tree@V?$_Tset_traits@V?$basic_string@DU?$char_traits@D@std@@V?$allocator@D@2@@std@@U?$less@V?$basic_string@DU?$char_traits@D@std@@V?$allocator@D@2@@std@@@2@V?$allocator@V?$basic_string@DU?$char_traits@D@std@@V?$allocator@D@2@@std@@@2@$0A@@std@@@std@@IEAA?AV?$_Tree_const_iterator@V?$_Tree_val@U?$_Tree_simple_types@V?$basic_string@DU?$char_traits@D@std@@V?$allocator@D@2@@std@@@std@@@std@@@1@_NPEAU?$_Tree_node@V?$basic_string@DU?$char_traits@D@std@@V?$allocator@D@2@@std@@PEAX@1@$$QEAV?$basic_string@DU?$char_traits@D@std@@V?$allocator@D@2@@1@U_Nil@1@@Z 00000001800389ec     tfe_utils.obj
 0002:000119fc       $chain$0$??$_Insert_at@V?$basic_string@DU?$char_traits@D@std@@V?$allocator@D@2@@std@@U_Nil@2@@?$_Tree@V?$_Tset_traits@V?$basic_string@DU?$char_traits@D@std@@V?$allocator@D@2@@std@@U?$less@V?$basic_string@DU?$char_traits@D@std@@V?$allocator@D@2@@std@@@2@V?$allocator@V?$basic_string@DU?$char_traits@D@std@@V?$allocator@D@2@@std@@@2@$0A@@std@@@std@@IEAA?AV?$_Tree_const_iterator@V?$_Tree_val@U?$_Tree_simple_types@V?$basic_string@DU?$char_traits@D@std@@V?$allocator@D@2@@std@@@std@@@std@@@1@_NPEAU?$_Tree_node@V?$basic_string@DU?$char_traits@D@std@@V?$allocator@D@2@@std@@PEAX@1@$$QEAV?$basic_string@DU?$char_traits@D@std@@V?$allocator@D@2@@1@U_Nil@1@@Z 00000001800389fc     tfe_utils.obj
 0002:00011a10       $chain$1$??$_Insert_at@V?$basic_string@DU?$char_traits@D@std@@V?$allocator@D@2@@std@@U_Nil@2@@?$_Tree@V?$_Tset_traits@V?$basic_string@DU?$char_traits@D@std@@V?$allocator@D@2@@std@@U?$less@V?$basic_string@DU?$char_traits@D@std@@V?$allocator@D@2@@std@@@2@V?$allocator@V?$basic_string@DU?$char_traits@D@std@@V?$allocator@D@2@@std@@@2@$0A@@std@@@std@@IEAA?AV?$_Tree_const_iterator@V?$_Tree_val@U?$_Tree_simple_types@V?$basic_string@DU?$char_traits@D@std@@V?$allocator@D@2@@std@@@std@@@std@@@1@_NPEAU?$_Tree_node@V?$basic_string@DU?$char_traits@D@std@@V?$allocator@D@2@@std@@PEAX@1@$$QEAV?$basic_string@DU?$char_traits@D@std@@V?$allocator@D@2@@1@U_Nil@1@@Z 0000000180038a10     tfe_utils.obj
 0002:00011a24       $chain$2$??$_Insert_at@V?$basic_string@DU?$char_traits@D@std@@V?$allocator@D@2@@std@@U_Nil@2@@?$_Tree@V?$_Tset_traits@V?$basic_string@DU?$char_traits@D@std@@V?$allocator@D@2@@std@@U?$less@V?$basic_string@DU?$char_traits@D@std@@V?$allocator@D@2@@std@@@2@V?$allocator@V?$basic_string@DU?$char_traits@D@std@@V?$allocator@D@2@@std@@@2@$0A@@std@@@std@@IEAA?AV?$_Tree_const_iterator@V?$_Tree_val@U?$_Tree_simple_types@V?$basic_string@DU?$char_traits@D@std@@V?$allocator@D@2@@std@@@std@@@std@@@1@_NPEAU?$_Tree_node@V?$basic_string@DU?$char_traits@D@std@@V?$allocator@D@2@@std@@PEAX@1@$$QEAV?$basic_string@DU?$char_traits@D@std@@V?$allocator@D@2@@1@U_Nil@1@@Z 0000000180038a24     tfe_utils.obj
 0002:00011a34       $chain$3$??$_Insert_at@V?$basic_string@DU?$char_traits@D@std@@V?$allocator@D@2@@std@@U_Nil@2@@?$_Tree@V?$_Tset_traits@V?$basic_string@DU?$char_traits@D@std@@V?$allocator@D@2@@std@@U?$less@V?$basic_string@DU?$char_traits@D@std@@V?$allocator@D@2@@std@@@2@V?$allocator@V?$basic_string@DU?$char_traits@D@std@@V?$allocator@D@2@@std@@@2@$0A@@std@@@std@@IEAA?AV?$_Tree_const_iterator@V?$_Tree_val@U?$_Tree_simple_types@V?$basic_string@DU?$char_traits@D@std@@V?$allocator@D@2@@std@@@std@@@std@@@1@_NPEAU?$_Tree_node@V?$basic_string@DU?$char_traits@D@std@@V?$allocator@D@2@@std@@PEAX@1@$$QEAV?$basic_string@DU?$char_traits@D@std@@V?$allocator@D@2@@1@U_Nil@1@@Z 0000000180038a34     tfe_utils.obj
 0002:00011a44       $unwind$??$construct@V?$basic_string@DU?$char_traits@D@std@@V?$allocator@D@2@@std@@V12@@?$_Wrap_alloc@V?$allocator@U?$_Tree_node@V?$basic_string@DU?$char_traits@D@std@@V?$allocator@D@2@@std@@PEAX@std@@@std@@@std@@QEAAXPEAV?$basic_string@DU?$char_traits@D@std@@V?$allocator@D@2@@1@$$QEAV21@@Z 0000000180038a44     tfe_utils.obj
 0002:00011a50       $unwind$??0TFJSBackend@tfnodejs@@AEAA@PEAUnapi_env__@@@Z 0000000180038a50     tfjs_backend.obj
 0002:00011a70       $unwind$?CreateTensor@TFJSBackend@tfnodejs@@QEAAPEAUnapi_value__@@PEAUnapi_env__@@PEAU3@11@Z 0000000180038a70     tfjs_backend.obj
 0002:00011a80       $chain$3$?CreateTensor@TFJSBackend@tfnodejs@@QEAAPEAUnapi_value__@@PEAUnapi_env__@@PEAU3@11@Z 0000000180038a80     tfjs_backend.obj
 0002:00011aa0       $chain$4$?CreateTensor@TFJSBackend@tfnodejs@@QEAAPEAUnapi_value__@@PEAUnapi_env__@@PEAU3@11@Z 0000000180038aa0     tfjs_backend.obj
 0002:00011ab0       $unwind$?DeleteTensor@TFJSBackend@tfnodejs@@QEAAXPEAUnapi_env__@@PEAUnapi_value__@@@Z 0000000180038ab0     tfjs_backend.obj
 0002:00011abc       $chain$0$?DeleteTensor@TFJSBackend@tfnodejs@@QEAAXPEAUnapi_env__@@PEAUnapi_value__@@@Z 0000000180038abc     tfjs_backend.obj
 0002:00011ad0       $chain$2$?DeleteTensor@TFJSBackend@tfnodejs@@QEAAXPEAUnapi_env__@@PEAUnapi_value__@@@Z 0000000180038ad0     tfjs_backend.obj
 0002:00011ae4       $chain$3$?DeleteTensor@TFJSBackend@tfnodejs@@QEAAXPEAUnapi_env__@@PEAUnapi_value__@@@Z 0000000180038ae4     tfjs_backend.obj
 0002:00011af4       $unwind$?GetTensorData@TFJSBackend@tfnodejs@@QEAAPEAUnapi_value__@@PEAUnapi_env__@@PEAU3@@Z 0000000180038af4     tfjs_backend.obj
 0002:00011b00       $unwind$?ExecuteOp@TFJSBackend@tfnodejs@@QEAAPEAUnapi_value__@@PEAUnapi_env__@@PEAU3@111@Z 0000000180038b00     tfjs_backend.obj
 0002:00011b24       $unwind$?erase@?$_Tree@V?$_Tmap_traits@HPEAUTFE_TensorHandle@@U?$less@H@std@@V?$allocator@U?$pair@$$CBHPEAUTFE_TensorHandle@@@std@@@3@$0A@@std@@@std@@QEAA?AV?$_Tree_iterator@V?$_Tree_val@U?$_Tree_simple_types@U?$pair@$$CBHPEAUTFE_TensorHandle@@@std@@@std@@@std@@@2@V?$_Tree_const_iterator@V?$_Tree_val@U?$_Tree_simple_types@U?$pair@$$CBHPEAUTFE_TensorHandle@@@std@@@std@@@std@@@2@@Z 0000000180038b24     tfjs_backend.obj
 0002:00011b30       $chain$1$?erase@?$_Tree@V?$_Tmap_traits@HPEAUTFE_TensorHandle@@U?$less@H@std@@V?$allocator@U?$pair@$$CBHPEAUTFE_TensorHandle@@@std@@@3@$0A@@std@@@std@@QEAA?AV?$_Tree_iterator@V?$_Tree_val@U?$_Tree_simple_types@U?$pair@$$CBHPEAUTFE_TensorHandle@@@std@@@std@@@std@@@2@V?$_Tree_const_iterator@V?$_Tree_val@U?$_Tree_simple_types@U?$pair@$$CBHPEAUTFE_TensorHandle@@@std@@@std@@@std@@@2@@Z 0000000180038b30     tfjs_backend.obj
 0002:00011b48       $chain$2$?erase@?$_Tree@V?$_Tmap_traits@HPEAUTFE_TensorHandle@@U?$less@H@std@@V?$allocator@U?$pair@$$CBHPEAUTFE_TensorHandle@@@std@@@3@$0A@@std@@@std@@QEAA?AV?$_Tree_iterator@V?$_Tree_val@U?$_Tree_simple_types@U?$pair@$$CBHPEAUTFE_TensorHandle@@@std@@@std@@@std@@@2@V?$_Tree_const_iterator@V?$_Tree_val@U?$_Tree_simple_types@U?$pair@$$CBHPEAUTFE_TensorHandle@@@std@@@std@@@std@@@2@@Z 0000000180038b48     tfjs_backend.obj
 0002:00011b58       $unwind$?_Construct_n@?$vector@PEAUTFE_TensorHandle@@V?$allocator@PEAUTFE_TensorHandle@@@std@@@std@@QEAAX_KPEBQEAUTFE_TensorHandle@@@Z 0000000180038b58     tfjs_backend.obj
 0002:00011b68       $chain$0$?_Construct_n@?$vector@PEAUTFE_TensorHandle@@V?$allocator@PEAUTFE_TensorHandle@@@std@@@std@@QEAAX_KPEBQEAUTFE_TensorHandle@@@Z 0000000180038b68     tfjs_backend.obj
 0002:00011b7c       $chain$1$?_Construct_n@?$vector@PEAUTFE_TensorHandle@@V?$allocator@PEAUTFE_TensorHandle@@@std@@@std@@QEAAX_KPEBQEAUTFE_TensorHandle@@@Z 0000000180038b7c     tfjs_backend.obj
 0002:00011b8c       $chain$2$?_Construct_n@?$vector@PEAUTFE_TensorHandle@@V?$allocator@PEAUTFE_TensorHandle@@@std@@@std@@QEAAX_KPEBQEAUTFE_TensorHandle@@@Z 0000000180038b8c     tfjs_backend.obj
 0002:00011ba0       $unwind$??$_Insert_nohint@AEAU?$pair@$$CBHPEAUTFE_TensorHandle@@@std@@PEAU?$_Tree_node@U?$pair@$$CBHPEAUTFE_TensorHandle@@@std@@PEAX@2@@?$_Tree@V?$_Tmap_traits@HPEAUTFE_TensorHandle@@U?$less@H@std@@V?$allocator@U?$pair@$$CBHPEAUTFE_TensorHandle@@@std@@@3@$0A@@std@@@std@@IEAA?AU?$pair@V?$_Tree_iterator@V?$_Tree_val@U?$_Tree_simple_types@U?$pair@$$CBHPEAUTFE_TensorHandle@@@std@@@std@@@std@@@std@@_N@1@_NAEAU?$pair@$$CBHPEAUTFE_TensorHandle@@@1@PEAU?$_Tree_node@U?$pair@$$CBHPEAUTFE_TensorHandle@@@std@@PEAX@1@@Z 0000000180038ba0     tfjs_backend.obj
 0002:00011bac       $unwind$?EnsureValueIsNumber@tfnodejs@@YA_NPEAUnapi_env__@@PEAUnapi_value__@@PEBD_K@Z 0000000180038bac     tfjs_binding.obj
 0002:00011bb8       $unwind$?EnsureValueIsArray@tfnodejs@@YA_NPEAUnapi_env__@@PEAUnapi_value__@@PEBD_K@Z 0000000180038bb8     tfjs_binding.obj
 0002:00011bb8       $unwind$__acrt_locale_free_numeric 0000000180038bb8     libucrt:initnum.obj
 0002:00011bb8       $unwind$?destroy_fls@@YAXPEAX@Z 0000000180038bb8     libucrt:per_thread_data.obj
 0002:00011bb8       $unwind$__acrt_locale_free_lc_time_if_unreferenced 0000000180038bb8     libucrt:locale_refcounting.obj
 0002:00011bb8       $unwind$_free_base         0000000180038bb8     libucrt:free_base.obj
 0002:00011bc0       $unwind$__acrt_LCMapStringA 0000000180038bc0     libucrt:lcmapstringa.obj
 0002:00011bc0       $unwind$?AssignIntProperty@tfnodejs@@YAXPEAUnapi_env__@@PEAUnapi_value__@@PEBDH@Z 0000000180038bc0     tfjs_binding.obj
 0002:00011bd0       $unwind$?CreateTensor@tfnodejs@@YAPEAUnapi_value__@@PEAUnapi_env__@@PEAUnapi_callback_info__@@@Z 0000000180038bd0     tfjs_binding.obj
 0002:00011be0       $unwind$islower            0000000180038be0     libucrt:_ctype.obj
 0002:00011be0       $unwind$isdigit            0000000180038be0     libucrt:_ctype.obj
 0002:00011be0       $unwind$?getSystemCP@@YAHH@Z 0000000180038be0     libucrt:mbctype.obj
 0002:00011be0       $unwind$_isleadbyte_l      0000000180038be0     libucrt:_wctype.obj
 0002:00011be0       $unwind$?TensorDataSync@tfnodejs@@YAPEAUnapi_value__@@PEAUnapi_env__@@PEAUnapi_callback_info__@@@Z 0000000180038be0     tfjs_binding.obj
 0002:00011be0       $unwind$isupper            0000000180038be0     libucrt:_ctype.obj
 0002:00011be0       $unwind$?DeleteTensor@tfnodejs@@YAPEAUnapi_value__@@PEAUnapi_env__@@PEAUnapi_callback_info__@@@Z 0000000180038be0     tfjs_binding.obj
 0002:00011be8       $unwind$?ExecuteOp@tfnodejs@@YAPEAUnapi_value__@@PEAUnapi_env__@@PEAUnapi_callback_info__@@@Z 0000000180038be8     tfjs_binding.obj
 0002:00011bf8       $unwind$?InitTFNodeJSBinding@tfnodejs@@YAPEAUnapi_value__@@PEAUnapi_env__@@PEAU2@@Z 0000000180038bf8     tfjs_binding.obj
 0002:00011c14       xdata                      0000000180038c14     node:node.exe
 0002:00011c1c       $unwind$??_G_Fac_node@std@@QEAAPEAXI@Z 0000000180038c1c     libcpmt:locale0.obj
 0002:00011c38       $ip2state$??_G_Fac_node@std@@QEAAPEAXI@Z 0000000180038c38     libcpmt:locale0.obj
 0002:00011c50       $unwind$?_Locimp_dtor@_Locimp@locale@std@@CAXPEAV123@@Z 0000000180038c50     libcpmt:locale0.obj
 0002:00011c6c       $stateUnwindMap$?_Locimp_dtor@_Locimp@locale@std@@CAXPEAV123@@Z 0000000180038c6c     libcpmt:locale0.obj
 0002:00011c6c       $stateUnwindMap$?_Init@locale@std@@CAPEAV_Locimp@12@_N@Z 0000000180038c6c     libcpmt:locale0.obj
 0002:00011c78       $ip2state$?_Locimp_dtor@_Locimp@locale@std@@CAXPEAV123@@Z 0000000180038c78     libcpmt:locale0.obj
 0002:00011c90       $unwind$??_G_Locimp@locale@std@@MEAAPEAXI@Z 0000000180038c90     libcpmt:locale0.obj
 0002:00011ca8       $ip2state$??_G_Locimp@locale@std@@MEAAPEAXI@Z 0000000180038ca8     libcpmt:locale0.obj
 0002:00011cc0       $unwind$?_Init@locale@std@@CAPEAV_Locimp@12@_N@Z 0000000180038cc0     libcpmt:locale0.obj
 0002:00011cd8       $ip2state$?_Init@locale@std@@CAPEAV_Locimp@12@_N@Z 0000000180038cd8     libcpmt:locale0.obj
 0002:00011cf0       $unwind$??__Fclassic_locale@std@@YAXXZ 0000000180038cf0     libcpmt:locale0.obj
 0002:00011d04       $stateUnwindMap$??_G_Fac_node@std@@QEAAPEAXI@Z 0000000180038d04     libcpmt:locale0.obj
 0002:00011d04       $stateUnwindMap$??__Fclassic_locale@std@@YAXXZ 0000000180038d04     libcpmt:locale0.obj
 0002:00011d04       $stateUnwindMap$??_G_Locimp@locale@std@@MEAAPEAXI@Z 0000000180038d04     libcpmt:locale0.obj
 0002:00011d04       $stateUnwindMap$??__Finit_atexit@@YAXXZ 0000000180038d04     libcpmt:iosptrs.obj
 0002:00011d10       $ip2state$??__Fclassic_locale@std@@YAXXZ 0000000180038d10     libcpmt:locale0.obj
 0002:00011d28       $unwind$_Tolower           0000000180038d28     libcpmt:_tolower.obj
 0002:00011d38       $unwind$_Toupper           0000000180038d38     libcpmt:_toupper.obj
 0002:00011d4c       $unwind$??__Finit_atexit@@YAXXZ 0000000180038d4c     libcpmt:iosptrs.obj
 0002:00011d60       $ip2state$??__Finit_atexit@@YAXXZ 0000000180038d60     libcpmt:iosptrs.obj
 0002:00011d78       $unwind$__crtLCMapStringA  0000000180038d78     libcpmt:StlLCMapStringA.obj
 0002:00011da0       $unwind$__acrt_LCMapStringEx 0000000180038da0     libucrt:winapi_thunks.obj
 0002:00011da0       $unwind$__crtLCMapStringEx 0000000180038da0     libcpmt:winapinls.obj
 0002:00011da0       $unwind$_mbtowc_l          0000000180038da0     libucrt:mbtowc.obj
 0002:00011db8       $unwind$_initterm          0000000180038db8     libucrt:initterm.obj
 0002:00011db8       $unwind$__acrt_LCIDToLocaleName 0000000180038db8     libucrt:winapi_thunks.obj
 0002:00011db8       $unwind$TranslateName      0000000180038db8     libucrt:getqloc_downlevel.obj
 0002:00011db8       $unwind$GetTableIndexFromLocaleName 0000000180038db8     libcpmt:winapinls.obj
 0002:00011db8       $unwind$__acrt_initialize_stdio 0000000180038db8     libucrt:_file.obj
 0002:00011db8       $unwind$__acrt_GetLocaleInfoEx 0000000180038db8     libucrt:winapi_thunks.obj
 0002:00011db8       $unwind$__TypeMatch        0000000180038db8     libvcruntime:frame.obj
 0002:00011dd0       $xdatasym                  0000000180038dd0     LIBCMT:_amdsecgs_.obj
 0002:00011dd4       $unwind$__scrt_is_nonwritable_in_current_image 0000000180038dd4     LIBCMT:utility.obj
 0002:00011df4       $unwind$__scrt_is_nonwritable_in_current_image$filt$0 0000000180038df4     LIBCMT:utility.obj
 0002:00011dfc       $unwind$__scrt_initialize_onexit_tables 0000000180038dfc     LIBCMT:utility.obj
 0002:00011e08       $unwind$?dllmain_crt_process_attach@@YAHQEAUHINSTANCE__@@QEAX@Z 0000000180038e08     LIBCMT:dll_dllmain.obj
 0002:00011e34       $unwind$?dllmain_crt_process_detach@@YAH_N@Z 0000000180038e34     LIBCMT:dll_dllmain.obj
 0002:00011e5c       $unwind$?dllmain_dispatch@@YAHQEAUHINSTANCE__@@KQEAX@Z 0000000180038e5c     LIBCMT:dll_dllmain.obj
 0002:00011e84       $unwind$?filt$0@?0??dllmain_dispatch@@YAHQEAUHINSTANCE__@@KQEAX@Z@4HA 0000000180038e84     LIBCMT:dll_dllmain.obj
 0002:00011e84       $unwind$setlocale$fin$0    0000000180038e84     libucrt:setlocale.obj
 0002:00011e8c       $unwind$__GSHandlerCheckCommon 0000000180038e8c     LIBCMT:_gshandler_.obj
 0002:00011e98       $xdatasym                  0000000180038e98     LIBCMT:_chkstk_.obj
 0002:00011ea0       $unwind$__report_securityfailure 0000000180038ea0     LIBCMT:gs_report.obj
 0002:00011ea8       $unwind$capture_current_context 0000000180038ea8     LIBCMT:gs_report.obj
 0002:00011eb4       $unwind$capture_previous_context 0000000180038eb4     LIBCMT:gs_report.obj
 0002:00011ec0       $unwind$__scrt_fastfail    0000000180038ec0     LIBCMT:utility_desktop.obj
 0002:00011ed0       $unwind$__isa_available_init 0000000180038ed0     LIBCMT:_cpu_disp_.obj
 0002:00011ee0       $unwind$__security_init_cookie 0000000180038ee0     LIBCMT:gs_support.obj
 0002:00011ef0       $xdatasym                  0000000180038ef0     LIBCMT:_guard_dispatch_.obj
 0002:00011ef8       $xdatasym                  0000000180038ef8     libvcruntime:memcpy.obj
 0002:00011efc       $unwind$__CxxCallCatchBlock 0000000180038efc     libvcruntime:frame.obj
 0002:00011f38       $unwind$__FrameUnwindToState 0000000180038f38     libvcruntime:frame.obj
 0002:00011f74       $unwind$?FindHandler@@YAXPEAUEHExceptionRecord@@PEA_KPEAU_CONTEXT@@PEAU_xDISPATCHER_CONTEXT@@PEBU_s_FuncInfo@@EH1@Z 0000000180038f74     libvcruntime:frame.obj
 0002:00011f94       $unwind$?CatchIt@@YAXPEAUEHExceptionRecord@@PEA_KPEAU_CONTEXT@@PEAU_xDISPATCHER_CONTEXT@@PEBU_s_FuncInfo@@PEBU_s_HandlerType@@PEBU_s_CatchableType@@PEBU_s_TryBlockMapEntry@@H1EE@Z 0000000180038f94     libvcruntime:frame.obj
 0002:00011fac       $unwind$__BuildCatchObject 0000000180038fac     libvcruntime:frame.obj
 0002:00011fd8       $unwind$?FindHandlerForForeignException@@YAXPEAUEHExceptionRecord@@PEA_KPEAU_CONTEXT@@PEAU_xDISPATCHER_CONTEXT@@PEBU_s_FuncInfo@@HH1@Z 0000000180038fd8     libvcruntime:frame.obj
 0002:00011ff0       $unwind$__DestructExceptionObject 0000000180038ff0     libvcruntime:frame.obj
 0002:00012014       $unwind$__C_specific_handler 0000000180039014     libvcruntime:_chandler_.obj
 0002:00012014       $unwind$__acrt_locale_initialize_numeric 0000000180039014     libucrt:initnum.obj
 0002:00012014       $unwind$__InternalCxxFrameHandler 0000000180039014     libvcruntime:frame.obj
 0002:00012030       $unwind$__BuildCatchObjectHelper 0000000180039030     libvcruntime:frame.obj
 0002:00012070       $unwind$?_GetEstablisherFrame@@YAPEA_KPEA_KPEAU_xDISPATCHER_CONTEXT@@PEBU_s_FuncInfo@@0@Z 0000000180039070     libvcruntime:trnsctrl.obj
 0002:00012088       $unwind$?__FrameUnwindToEmptyState@@YAXPEA_KPEAU_xDISPATCHER_CONTEXT@@PEBU_s_FuncInfo@@@Z 0000000180039088     libvcruntime:trnsctrl.obj
 0002:0001209c       $unwind$_CallSETranslator  000000018003909c     libvcruntime:trnsctrl.obj
 0002:000120c0       $unwind$_CallSETranslator$filt$0 00000001800390c0     libvcruntime:trnsctrl.obj
 0002:000120c8       $unwind$_UnwindNestedFrames 00000001800390c8     libvcruntime:trnsctrl.obj
 0002:000120dc       $unwind$__CxxFrameHandler3 00000001800390dc     libvcruntime:trnsctrl.obj
 0002:000120ec       $unwind$_wcsicmp_l         00000001800390ec     libucrt:wcsicmp.obj
 0002:000120ec       $unwind$?__SehTransFilter@@YAHPEAU_EXCEPTION_POINTERS@@PEAUEHExceptionRecord@@PEA_KPEAU_CONTEXT@@PEAU_xDISPATCHER_CONTEXT@@PEBU_s_FuncInfo@@PEAH@Z 00000001800390ec     libvcruntime:trnsctrl.obj
 0002:00012100       $unwind$_CxxThrowException 0000000180039100     libvcruntime:throw.obj
 0002:00012118       $xdatasym                  0000000180039118     libvcruntime:memset.obj
 0002:00012120       $xdatasym                  0000000180039120     libvcruntime:memcmp.obj
 0002:00012124       $unwind$__vcrt_uninitialize_winapi_thunks 0000000180039124     libvcruntime:winapi_downlevel.obj
 0002:0001212c       $unwind$?IsInExceptionSpec@@YAEPEAUEHExceptionRecord@@PEBU_s_ESTypeList@@@Z 000000018003912c     libvcruntime:frame.obj
 0002:0001212c       $unwind$?try_get_function@@YAPEAXW4function_id@?A0x63058377@@QEBDQEBW4module_id@2@2@Z 000000018003912c     libucrt:winapi_thunks.obj
 0002:0001212c       $unwind$?try_get_function@@YAPEAXW4function_id@?A0x679b24ab@@QEBDQEBW4module_id@2@2@Z 000000018003912c     libvcruntime:winapi_downlevel.obj
 0002:00012148       $xdatasym                  0000000180039148     libvcruntime:handlers.obj
 0002:00012150       $xdatasym                  0000000180039150     libvcruntime:_jmpuwind_.obj
 0002:00012164       $unwind$__acrt_call_reportfault 0000000180039164     libucrt:invalid_parameter.obj
 0002:00012184       $unwind$_invalid_parameter 0000000180039184     libucrt:invalid_parameter.obj
 0002:0001219c       $unwind$??$common_vsprintf@Vformat_validation_base@__crt_stdio_output@@D@@YAH_KQEAD0QEBDQEAU__crt_locale_pointers@@1@Z 000000018003919c     libucrt:output.obj
 0002:000121bc       $unwind$?process@?$output_processor@DV?$string_output_adapter@D@__crt_stdio_output@@V?$format_validation_base@DV?$string_output_adapter@D@__crt_stdio_output@@@2@@__crt_stdio_output@@QEAAHXZ 00000001800391bc     libucrt:output.obj
 0002:000121bc       $unwind$?_ExecutionInCatch@@YAHPEAU_xDISPATCHER_CONTEXT@@PEBU_s_FuncInfo@@@Z 00000001800391bc     libvcruntime:trnsctrl.obj
 0002:000121bc       $unwind$?setSBCS@@YAXPEAU__crt_multibyte_data@@@Z 00000001800391bc     libucrt:mbctype.obj
 0002:000121bc       $unwind$__vcrt_InitializeCriticalSectionEx 00000001800391bc     libvcruntime:winapi_downlevel.obj
 0002:000121bc       $unwind$__acrt_InitializeCriticalSectionEx 00000001800391bc     libucrt:winapi_thunks.obj
 0002:000121bc       $unwind$__scrt_dllmain_exception_filter 00000001800391bc     LIBCMT:utility.obj
 0002:000121bc       $unwind$__crtInitializeCriticalSectionEx 00000001800391bc     libcpmt:winapisupp.obj
 0002:000121bc       $unwind$__acrt_lowio_create_handle_array 00000001800391bc     libucrt:osfinfo.obj
 0002:000121bc       $unwind$_seh_filter_exe    00000001800391bc     libucrt:exception_filter.obj
 0002:000121bc       $unwind$__acrt_execute_initializers 00000001800391bc     libucrt:shared_initialization.obj
 0002:000121bc       $unwind$_recalloc_base     00000001800391bc     libucrt:recalloc.obj
 0002:000121bc       $unwind$??$ensure_buffer_is_big_enough@D@formatting_buffer@__crt_stdio_output@@QEAA_N_K@Z 00000001800391bc     libucrt:output.obj
 0002:000121bc       $unwind$__acrt_free_locale 00000001800391bc     libucrt:locale_refcounting.obj
 0002:000121bc       $unwind$?dllmain_raw@@YAHQEAUHINSTANCE__@@KQEAX@Z 00000001800391bc     LIBCMT:dll_dllmain.obj
 0002:000121bc       $unwind$?expand_if_necessary@?$argument_list@D@?A0xca0879c4@@AEAAHXZ 00000001800391bc     libucrt:argv_wildcards.obj
 0002:000121d0       $unwind$?parse_int_from_format_string@?$output_processor@DV?$string_output_adapter@D@__crt_stdio_output@@V?$format_validation_base@DV?$string_output_adapter@D@__crt_stdio_output@@@2@@__crt_stdio_output@@AEAA_NQEAH@Z 00000001800391d0     libucrt:output.obj
 0002:000121e4       $unwind$?state_case_type@?$output_processor@DV?$string_output_adapter@D@__crt_stdio_output@@V?$format_validation_base@DV?$string_output_adapter@D@__crt_stdio_output@@@2@@__crt_stdio_output@@AEAA_NXZ 00000001800391e4     libucrt:output.obj
 0002:000121fc       $unwind$?type_case_a@?$output_processor@DV?$string_output_adapter@D@__crt_stdio_output@@V?$format_validation_base@DV?$string_output_adapter@D@__crt_stdio_output@@@2@@__crt_stdio_output@@AEAA_NXZ 00000001800391fc     libucrt:output.obj
 0002:00012208       $unwind$?write_stored_string_tchar@?$output_processor@DV?$string_output_adapter@D@__crt_stdio_output@@V?$format_validation_base@DV?$string_output_adapter@D@__crt_stdio_output@@@2@@__crt_stdio_output@@AEAA_ND@Z 0000000180039208     libucrt:output.obj
 0002:00012220       $unwind$??$write_multiple_characters@V?$string_output_adapter@D@__crt_stdio_output@@D@__crt_stdio_output@@YAXAEBV?$string_output_adapter@D@0@DHQEAH@Z 0000000180039220     libucrt:output.obj
 0002:00012220       $unwind$??$type_case_integer_parse_into_buffer@_K@?$output_processor@DV?$string_output_adapter@D@__crt_stdio_output@@V?$format_validation_base@DV?$string_output_adapter@D@__crt_stdio_output@@@2@@__crt_stdio_output@@AEAAX_KI_N@Z 0000000180039220     libucrt:output.obj
 0002:00012220       $unwind$??$type_case_integer_parse_into_buffer@I@?$output_processor@DV?$string_output_adapter@D@__crt_stdio_output@@V?$format_validation_base@DV?$string_output_adapter@D@__crt_stdio_output@@@2@@__crt_stdio_output@@AEAAXII_N@Z 0000000180039220     libucrt:output.obj
 0002:00012228       $unwind$frexp              0000000180039228     libucrt:frexp.obj
 0002:0001223c       $unwind$setlocale          000000018003923c     libucrt:setlocale.obj
 0002:0001226c       $unwind$call_wsetlocale    000000018003926c     libucrt:setlocale.obj
 0002:00012280       $unwind$__acrt_locale_initialize_ctype 0000000180039280     libucrt:initctype.obj
 0002:000122a8       $unwind$?divide@__crt_strtox@@YA_KAEAUbig_integer@1@AEBU21@@Z 00000001800392a8     libucrt:strtod.obj
 0002:000122c8       $chain$5$?divide@__crt_strtox@@YA_KAEAUbig_integer@1@AEBU21@@Z 00000001800392c8     libucrt:strtod.obj
 0002:000122dc       $chain$6$?divide@__crt_strtox@@YA_KAEAUbig_integer@1@AEBU21@@Z 00000001800392dc     libucrt:strtod.obj
 0002:000122f0       $xdatasym                  00000001800392f0     libucrt:pow.obj
 0002:00012300       $xdatasym                  0000000180039300     libucrt:powf.obj
 0002:00012310       $unwind$_tolower_l         0000000180039310     libucrt:tolower_toupper.obj
 0002:00012320       $unwind$strnlen            0000000180039320     libucrt:strnlen.obj
 0002:00012320       $unwind$wcsnlen            0000000180039320     libucrt:strnlen.obj
 0002:00012328       $unwind$_query_new_handler 0000000180039328     libucrt:new_handler.obj
 0002:00012348       $unwind$?fin$0@?0???$?RV<lambda_bfedae4ebbf01fab1bb6dcc6a9e276e0>@@AEAV<lambda_2fe9b910cf3cbf4a0ab98a02ba45b3ec>@@V<lambda_237c231691f317818eb88cc1d5d642d6>@@@?$__crt_seh_guarded_call@H@@QEAAH$$QEAV<lambda_bfedae4ebbf01fab1bb6dcc6a9e276e0>@@AEAV<lambda_2fe9b910cf3cbf4a0ab98a02ba45b3ec>@@$$QEAV<lambda_237c231691f317818eb88cc1d5d642d6>@@@Z@4HA 0000000180039348     libucrt:close.obj
 0002:00012348       $unwind$_IsNonwritableInCurrentImage$filt$0 0000000180039348     LIBCMT:pesect.obj
 0002:00012348       $unwind$__acrt_initialize_lowio$fin$0 0000000180039348     libucrt:ioinit.obj
 0002:00012348       $unwind$?fin$1@?0??common_exit@@YAXHW4_crt_exit_cleanup_mode@@W4_crt_exit_return_mode@@@Z@4HA 0000000180039348     libucrt:exit.obj
 0002:00012348       $unwind$?fin$0@?0???$?RV<lambda_fb3a7dec4e47f37f22dae91bb15c9095>@@AEAV<lambda_698284760c8add0bfb0756c19673e34b>@@V<lambda_dfb8eca1e75fef3034a8fb18dd509707>@@@?$__crt_seh_guarded_call@X@@QEAAX$$QEAV<lambda_fb3a7dec4e47f37f22dae91bb15c9095>@@AEAV<lambda_698284760c8add0bfb0756c19673e34b>@@$$QEAV<lambda_dfb8eca1e75fef3034a8fb18dd509707>@@@Z@4HA 0000000180039348     libucrt:per_thread_data.obj
 0002:00012348       $unwind$?fin$0@?0??dllmain_crt_process_attach@@YAHQEAUHINSTANCE__@@QEAX@Z@4HA 0000000180039348     LIBCMT:dll_dllmain.obj
 0002:00012348       $unwind$common_control87$filt$0 0000000180039348     libucrt:ieee.obj
 0002:00012348       $unwind$raise$fin$0        0000000180039348     libucrt:signal.obj
 0002:00012348       $unwind$fclose$fin$0       0000000180039348     libucrt:fclose.obj
 0002:00012348       $unwind$__acrt_uninitialize_locale$fin$0 0000000180039348     libucrt:wsetlocale.obj
 0002:00012348       $unwind$__acrt_lowio_ensure_fh_exists$fin$0 0000000180039348     libucrt:osfinfo.obj
 0002:00012348       $unwind$?fin$0@?0???$?RV<lambda_46352004c1216016012b18bd6f87e700>@@AEAV<lambda_3bd07e1a1191394380780325891bf33f>@@V<lambda_334532d3f185bcaa59b5be82d7d22bff>@@@?$__crt_seh_guarded_call@X@@QEAAX$$QEAV<lambda_46352004c1216016012b18bd6f87e700>@@AEAV<lambda_3bd07e1a1191394380780325891bf33f>@@$$QEAV<lambda_334532d3f185bcaa59b5be82d7d22bff>@@@Z@4HA 0000000180039348     libucrt:per_thread_data.obj
 0002:00012348       $unwind$?fin$0@?0???$?RV<lambda_b8c45f8f788dd370798f47cfe8ac3a86>@@AEAV<lambda_4e60a939b0d047cfe11ddc22648dfba9>@@V<lambda_332c3edc96d0294ec56c57d38c1cdfd5>@@@?$__crt_seh_guarded_call@H@@QEAAH$$QEAV<lambda_b8c45f8f788dd370798f47cfe8ac3a86>@@AEAV<lambda_4e60a939b0d047cfe11ddc22648dfba9>@@$$QEAV<lambda_332c3edc96d0294ec56c57d38c1cdfd5>@@@Z@4HA 0000000180039348     libucrt:onexit.obj
 0002:00012348       $unwind$?fin$0@?0???$?RV<lambda_c36588078e9f5dfd39652860aa6b3aaf>@@AEAV<lambda_ec61778202f4f5fc7e7711acc23c3bca>@@V<lambda_dc9d2797ccde5d239b4a0efae8ebd7db>@@@?$__crt_seh_guarded_call@P6AXH@Z@@QEAAP6AXH@Z$$QEAV<lambda_c36588078e9f5dfd39652860aa6b3aaf>@@AEAV<lambda_ec61778202f4f5fc7e7711acc23c3bca>@@$$QEAV<lambda_dc9d2797ccde5d239b4a0efae8ebd7db>@@@Z@4HA 0000000180039348     libucrt:signal.obj
 0002:00012348       $unwind$_ctrlfp$filt$0     0000000180039348     libucrt:fpctrl.obj
 0002:00012348       $unwind$?fin$0@?0???$?RV<lambda_5df02c53a8f32f81fd64e5bbb78039f1>@@AEAV<lambda_2af78c5f5901b1372d98f9ab3177dfa6>@@AEAV<lambda_f51fe5fd7c79a33db34fc9310f277369>@@@?$__crt_seh_guarded_call@X@@QEAAX$$QEAV<lambda_5df02c53a8f32f81fd64e5bbb78039f1>@@AEAV<lambda_2af78c5f5901b1372d98f9ab3177dfa6>@@AEAV<lambda_f51fe5fd7c79a33db34fc9310f277369>@@@Z@4HA 0000000180039348     libucrt:wsetlocale.obj
 0002:00012348       $unwind$?filt$0@?0??common_exit@@YAXHW4_crt_exit_cleanup_mode@@W4_crt_exit_return_mode@@@Z@4HA 0000000180039348     libucrt:exit.obj
 0002:00012348       $unwind$?fin$0@?0???$?RV<lambda_b521505b218e5242e90febf6bfebc422>@@AEAV<lambda_6978c1fb23f02e42e1d9e99668cc68aa>@@V<lambda_314360699dd331753a4119843814e9a7>@@@?$__crt_seh_guarded_call@H@@QEAAH$$QEAV<lambda_b521505b218e5242e90febf6bfebc422>@@AEAV<lambda_6978c1fb23f02e42e1d9e99668cc68aa>@@$$QEAV<lambda_314360699dd331753a4119843814e9a7>@@@Z@4HA 0000000180039348     libucrt:commit.obj
 0002:00012348       $unwind$__acrt_update_thread_multibyte_data$fin$0 0000000180039348     libucrt:mbctype.obj
 0002:00012348       $unwind$__acrt_update_thread_locale_data$fin$0 0000000180039348     libucrt:locale_refcounting.obj
 0002:00012348       $unwind$?fin$0@?0???$?RV<lambda_99476a1ad63dd22509b5d3e65b0ffc95>@@AEAV<lambda_ad1ced32f4ac17aa236e5ef05d6b3b7c>@@V<lambda_f7424dd8d45958661754dc4f2697e9c3>@@@?$__crt_seh_guarded_call@X@@QEAAX$$QEAV<lambda_99476a1ad63dd22509b5d3e65b0ffc95>@@AEAV<lambda_ad1ced32f4ac17aa236e5ef05d6b3b7c>@@$$QEAV<lambda_f7424dd8d45958661754dc4f2697e9c3>@@@Z@4HA 0000000180039348     libucrt:mbctype.obj
 0002:00012348       $unwind$?fin$0@?0???$?RV<lambda_d67e8342c384adda8f857579ab50b2ae>@@AEAV<lambda_30712929f77e709619002f448b6a9510>@@V<lambda_4525336fd7e478d965fb7ca7a337cad8>@@@?$__crt_seh_guarded_call@X@@QEAAX$$QEAV<lambda_d67e8342c384adda8f857579ab50b2ae>@@AEAV<lambda_30712929f77e709619002f448b6a9510>@@$$QEAV<lambda_4525336fd7e478d965fb7ca7a337cad8>@@@Z@4HA 0000000180039348     libucrt:wsetlocale.obj
 0002:00012348       $unwind$__FrameUnwindToState$filt$0 0000000180039348     libvcruntime:frame.obj
 0002:00012348       $unwind$?fin$0@?0???$?RV<lambda_630b2aca97f6d20d5b5ea6529ea6b6af>@@AEAV<lambda_af91936f1d075d609f72d9d8cba980af>@@V<lambda_e82fa975f615b5c7c7b0e4d178fdae67>@@@?$__crt_seh_guarded_call@H@@QEAAH$$QEAV<lambda_630b2aca97f6d20d5b5ea6529ea6b6af>@@AEAV<lambda_af91936f1d075d609f72d9d8cba980af>@@$$QEAV<lambda_e82fa975f615b5c7c7b0e4d178fdae67>@@@Z@4HA 0000000180039348     libucrt:winapi_thunks.obj
 0002:00012348       $unwind$common_flush_all$fin$1 0000000180039348     libucrt:fflush.obj
 0002:00012348       $unwind$_query_new_handler$fin$0 0000000180039348     libucrt:new_handler.obj
 0002:00012348       $unwind$common_flush_all$fin$0 0000000180039348     libucrt:fflush.obj
 0002:00012348       $unwind$?fin$0@?0???$?RV<lambda_5e887d1dcbef67a5eb4283622ba103bf>@@AEAV<lambda_4466841279450cc726390878d4a41900>@@V<lambda_341c25c0346d94847f1f3c463c57e077>@@@?$__crt_seh_guarded_call@X@@QEAAX$$QEAV<lambda_5e887d1dcbef67a5eb4283622ba103bf>@@AEAV<lambda_4466841279450cc726390878d4a41900>@@$$QEAV<lambda_341c25c0346d94847f1f3c463c57e077>@@@Z@4HA 0000000180039348     libucrt:per_thread_data.obj
 0002:00012348       $unwind$_write$fin$0       0000000180039348     libucrt:write.obj
 0002:00012348       $unwind$?fin$0@?0???$?RV<lambda_72d1df2b273a38828b1ce30cbf4cdab5>@@AEAV<lambda_876a65b173b8412d3a47c70a915b0cf4>@@V<lambda_41932305e351933ebe8f8be3ed8bb5dc>@@@?$__crt_seh_guarded_call@X@@QEAAX$$QEAV<lambda_72d1df2b273a38828b1ce30cbf4cdab5>@@AEAV<lambda_876a65b173b8412d3a47c70a915b0cf4>@@$$QEAV<lambda_41932305e351933ebe8f8be3ed8bb5dc>@@@Z@4HA 0000000180039348     libucrt:per_thread_data.obj
 0002:00012348       $unwind$?fin$0@?0??dllmain_crt_process_detach@@YAH_N@Z@4HA 0000000180039348     LIBCMT:dll_dllmain.obj
 0002:00012348       $unwind$__DestructExceptionObject$filt$0 0000000180039348     libvcruntime:frame.obj
 0002:00012348       $unwind$?fin$0@?0???$?RV<lambda_e24bbb7b643b32fcea6fa61b31d4c984>@@AEAV<lambda_275893d493268fdec8709772e3fcec0e>@@V<lambda_9d71df4d7cf3f480f8d633942495c3b0>@@@?$__crt_seh_guarded_call@H@@QEAAH$$QEAV<lambda_e24bbb7b643b32fcea6fa61b31d4c984>@@AEAV<lambda_275893d493268fdec8709772e3fcec0e>@@$$QEAV<lambda_9d71df4d7cf3f480f8d633942495c3b0>@@@Z@4HA 0000000180039348     libucrt:onexit.obj
 0002:00012348       $unwind$__CxxCallCatchBlock$filt$0 0000000180039348     libvcruntime:frame.obj
 0002:00012348       $unwind$__FrameUnwindToState$fin$1 0000000180039348     libvcruntime:frame.obj
 0002:00012348       $unwind$_fcloseall$fin$0   0000000180039348     libucrt:closeall.obj
 0002:00012350       $unwind$?common_exit@@YAXHW4_crt_exit_cleanup_mode@@W4_crt_exit_return_mode@@@Z 0000000180039350     libucrt:exit.obj
 0002:00012390       $unwind$_configure_narrow_argv 0000000180039390     libucrt:argv_parsing.obj
 0002:000123a4       $unwind$_register_onexit_function 00000001800393a4     libucrt:onexit.obj
 0002:000123ac       $unwind$_execute_onexit_table 00000001800393ac     libucrt:onexit.obj
 0002:000123b4       $unwind$??$?RV<lambda_b8c45f8f788dd370798f47cfe8ac3a86>@@AEAV<lambda_4e60a939b0d047cfe11ddc22648dfba9>@@V<lambda_332c3edc96d0294ec56c57d38c1cdfd5>@@@?$__crt_seh_guarded_call@H@@QEAAH$$QEAV<lambda_b8c45f8f788dd370798f47cfe8ac3a86>@@AEAV<lambda_4e60a939b0d047cfe11ddc22648dfba9>@@$$QEAV<lambda_332c3edc96d0294ec56c57d38c1cdfd5>@@@Z 00000001800393b4     libucrt:onexit.obj
 0002:000123d8       $unwind$??$?RV<lambda_e24bbb7b643b32fcea6fa61b31d4c984>@@AEAV<lambda_275893d493268fdec8709772e3fcec0e>@@V<lambda_9d71df4d7cf3f480f8d633942495c3b0>@@@?$__crt_seh_guarded_call@H@@QEAAH$$QEAV<lambda_e24bbb7b643b32fcea6fa61b31d4c984>@@AEAV<lambda_275893d493268fdec8709772e3fcec0e>@@$$QEAV<lambda_9d71df4d7cf3f480f8d633942495c3b0>@@@Z 00000001800393d8     libucrt:onexit.obj
 0002:00012408       $unwind$terminate          0000000180039408     libucrt:terminate.obj
 0002:00012428       $unwind$??$parse_integer@KV?$c_string_character_source@D@__crt_strtox@@@__crt_strtox@@YAKQEAU__crt_locale_pointers@@V?$c_string_character_source@D@0@H_N@Z 0000000180039428     libucrt:atox.obj
 0002:00012444       $unwind$??$parse_integer@KV?$c_string_character_source@_W@__crt_strtox@@@__crt_strtox@@YAKQEAU__crt_locale_pointers@@V?$c_string_character_source@_W@0@H_N@Z 0000000180039444     libucrt:atox.obj
 0002:00012460       $unwind$__acrt_get_sigabrt_handler 0000000180039460     libucrt:signal.obj
 0002:00012468       $unwind$raise              0000000180039468     libucrt:signal.obj
 0002:00012494       $unwind$??$?RV<lambda_c36588078e9f5dfd39652860aa6b3aaf>@@AEAV<lambda_ec61778202f4f5fc7e7711acc23c3bca>@@V<lambda_dc9d2797ccde5d239b4a0efae8ebd7db>@@@?$__crt_seh_guarded_call@P6AXH@Z@@QEAAP6AXH@Z$$QEAV<lambda_c36588078e9f5dfd39652860aa6b3aaf>@@AEAV<lambda_ec61778202f4f5fc7e7711acc23c3bca>@@$$QEAV<lambda_dc9d2797ccde5d239b4a0efae8ebd7db>@@@Z 0000000180039494     libucrt:signal.obj
 0002:000124b8       $unwind$__acrt_initialize_winapi_thunks 00000001800394b8     libucrt:winapi_thunks.obj
 0002:000124c0       $unwind$__acrt_EnumSystemLocalesEx 00000001800394c0     libucrt:winapi_thunks.obj
 0002:000124d4       $unwind$iswctype           00000001800394d4     libucrt:iswctype.obj
 0002:000124d4       $unwind$__acrt_is_packaged_app 00000001800394d4     libucrt:winapi_thunks.obj
 0002:000124e0       $unwind$??$?RV<lambda_630b2aca97f6d20d5b5ea6529ea6b6af>@@AEAV<lambda_af91936f1d075d609f72d9d8cba980af>@@V<lambda_e82fa975f615b5c7c7b0e4d178fdae67>@@@?$__crt_seh_guarded_call@H@@QEAAH$$QEAV<lambda_630b2aca97f6d20d5b5ea6529ea6b6af>@@AEAV<lambda_af91936f1d075d609f72d9d8cba980af>@@$$QEAV<lambda_e82fa975f615b5c7c7b0e4d178fdae67>@@@Z 00000001800394e0     libucrt:winapi_thunks.obj
 0002:00012508       $unwind$_fcloseall         0000000180039508     libucrt:closeall.obj
 0002:0001252c       $unwind$common_flush_all   000000018003952c     libucrt:fflush.obj
 0002:00012568       $unwind$__acrt_initialize_lowio 0000000180039568     libucrt:ioinit.obj
 0002:00012588       $unwind$?initialize_inherited_file_handles_nolock@@YAXXZ 0000000180039588     libucrt:ioinit.obj
 0002:000125a4       $unwind$?construct_ptd_array@@YAXQEAU__acrt_ptd@@@Z 00000001800395a4     libucrt:per_thread_data.obj
 0002:000125ac       $unwind$?destroy_ptd_array@@YAXQEAU__acrt_ptd@@@Z 00000001800395ac     libucrt:per_thread_data.obj
 0002:000125b4       $unwind$??$?RV<lambda_72d1df2b273a38828b1ce30cbf4cdab5>@@AEAV<lambda_876a65b173b8412d3a47c70a915b0cf4>@@V<lambda_41932305e351933ebe8f8be3ed8bb5dc>@@@?$__crt_seh_guarded_call@X@@QEAAX$$QEAV<lambda_72d1df2b273a38828b1ce30cbf4cdab5>@@AEAV<lambda_876a65b173b8412d3a47c70a915b0cf4>@@$$QEAV<lambda_41932305e351933ebe8f8be3ed8bb5dc>@@@Z 00000001800395b4     libucrt:per_thread_data.obj
 0002:000125d8       $unwind$??$?RV<lambda_5e887d1dcbef67a5eb4283622ba103bf>@@AEAV<lambda_4466841279450cc726390878d4a41900>@@V<lambda_341c25c0346d94847f1f3c463c57e077>@@@?$__crt_seh_guarded_call@X@@QEAAX$$QEAV<lambda_5e887d1dcbef67a5eb4283622ba103bf>@@AEAV<lambda_4466841279450cc726390878d4a41900>@@$$QEAV<lambda_341c25c0346d94847f1f3c463c57e077>@@@Z 00000001800395d8     libucrt:per_thread_data.obj
 0002:000125fc       $unwind$??$?RV<lambda_46352004c1216016012b18bd6f87e700>@@AEAV<lambda_3bd07e1a1191394380780325891bf33f>@@V<lambda_334532d3f185bcaa59b5be82d7d22bff>@@@?$__crt_seh_guarded_call@X@@QEAAX$$QEAV<lambda_46352004c1216016012b18bd6f87e700>@@AEAV<lambda_3bd07e1a1191394380780325891bf33f>@@$$QEAV<lambda_334532d3f185bcaa59b5be82d7d22bff>@@@Z 00000001800395fc     libucrt:per_thread_data.obj
 0002:00012620       $unwind$??$?RV<lambda_fb3a7dec4e47f37f22dae91bb15c9095>@@AEAV<lambda_698284760c8add0bfb0756c19673e34b>@@V<lambda_dfb8eca1e75fef3034a8fb18dd509707>@@@?$__crt_seh_guarded_call@X@@QEAAX$$QEAV<lambda_fb3a7dec4e47f37f22dae91bb15c9095>@@AEAV<lambda_698284760c8add0bfb0756c19673e34b>@@$$QEAV<lambda_dfb8eca1e75fef3034a8fb18dd509707>@@@Z 0000000180039620     libucrt:per_thread_data.obj
 0002:00012644       $unwind$_wctomb_s_l        0000000180039644     libucrt:wctomb.obj
 0002:00012654       $unwind$__acrt_fp_format   0000000180039654     libucrt:cvt.obj
 0002:00012670       $unwind$?fp_format_nan_or_infinity@@YAHW4__acrt_fp_class@@_NPEAD_K1@Z 0000000180039670     libucrt:cvt.obj
 0002:00012684       $unwind$?fp_format_e_internal@@YAHQEAD_KH_NIQEAU_strflt@@2QEAU__crt_locale_pointers@@@Z 0000000180039684     libucrt:cvt.obj
 0002:0001269c       $unwind$?fp_format_e@@YAHQEBNQEAD_K12H_NIQEAU__crt_locale_pointers@@@Z 000000018003969c     libucrt:cvt.obj
 0002:0001269c       $unwind$__acrt_LCMapStringW 000000018003969c     libucrt:lcmapstringw.obj
 0002:000126b0       $unwind$?fp_format_a@@YAHQEBNPEAD_KQEAD2H_NIQEAU__crt_locale_pointers@@@Z 00000001800396b0     libucrt:cvt.obj
 0002:000126cc       $unwind$?fp_format_g@@YAHQEBNQEAD_K12H_NIQEAU__crt_locale_pointers@@@Z 00000001800396cc     libucrt:cvt.obj
 0002:000126e0       $unwind$_wsetlocale        00000001800396e0     libucrt:wsetlocale.obj
 0002:000126e8       $unwind$_expandlocale      00000001800396e8     libucrt:wsetlocale.obj
 0002:00012708       $unwind$_wcscats           0000000180039708     libucrt:wsetlocale.obj
 0002:00012718       $unwind$__lc_wcstolc       0000000180039718     libucrt:wsetlocale.obj
 0002:00012718       $unwind$??$create_environment@D@@YAQEAPEADQEAD@Z 0000000180039718     libucrt:environment_initialization.obj
 0002:00012730       $unwind$_wsetlocale_set_cat 0000000180039730     libucrt:wsetlocale.obj
 0002:00012754       $unwind$_wsetlocale_get_all 0000000180039754     libucrt:wsetlocale.obj
 0002:00012770       $unwind$_wsetlocale_nolock 0000000180039770     libucrt:wsetlocale.obj
 0002:00012794       $unwind$__acrt_uninitialize_locale 0000000180039794     libucrt:wsetlocale.obj
 0002:000127b4       $unwind$??R<lambda_2af78c5f5901b1372d98f9ab3177dfa6>@@QEBAXXZ 00000001800397b4     libucrt:wsetlocale.obj
 0002:000127c0       $unwind$??$?RV<lambda_5df02c53a8f32f81fd64e5bbb78039f1>@@AEAV<lambda_2af78c5f5901b1372d98f9ab3177dfa6>@@AEAV<lambda_f51fe5fd7c79a33db34fc9310f277369>@@@?$__crt_seh_guarded_call@X@@QEAAX$$QEAV<lambda_5df02c53a8f32f81fd64e5bbb78039f1>@@AEAV<lambda_2af78c5f5901b1372d98f9ab3177dfa6>@@AEAV<lambda_f51fe5fd7c79a33db34fc9310f277369>@@@Z 00000001800397c0     libucrt:wsetlocale.obj
 0002:000127e0       $unwind$??$?RV<lambda_d67e8342c384adda8f857579ab50b2ae>@@AEAV<lambda_30712929f77e709619002f448b6a9510>@@V<lambda_4525336fd7e478d965fb7ca7a337cad8>@@@?$__crt_seh_guarded_call@X@@QEAAX$$QEAV<lambda_d67e8342c384adda8f857579ab50b2ae>@@AEAV<lambda_30712929f77e709619002f448b6a9510>@@$$QEAV<lambda_4525336fd7e478d965fb7ca7a337cad8>@@@Z 00000001800397e0     libucrt:wsetlocale.obj
 0002:00012804       $unwind$_except1           0000000180039804     libucrt:fpexcept.obj
 0002:00012824       $unwind$_handle_exc        0000000180039824     libucrt:fpexcept.obj
 0002:00012840       $unwind$?__scrt_throw_std_bad_array_new_length@@YAXXZ 0000000180039840     LIBCMT:throw_bad_alloc.obj
 0002:00012840       $unwind$?__scrt_throw_std_bad_alloc@@YAXXZ 0000000180039840     LIBCMT:throw_bad_alloc.obj
 0002:00012840       $unwind$_raise_excf        0000000180039840     libucrt:fpexcept.obj
 0002:00012840       $unwind$_raise_exc         0000000180039840     libucrt:fpexcept.obj
 0002:00012840       $unwind$?_Xout_of_range@std@@YAXPEBD@Z 0000000180039840     libcpmt:xthrow.obj
 0002:00012840       $unwind$?_Xbad_alloc@std@@YAXXZ 0000000180039840     libcpmt:xthrow.obj
 0002:00012840       $unwind$?_Xlength_error@std@@YAXPEBD@Z 0000000180039840     libcpmt:xthrow.obj
 0002:00012840       $unwind$__dcrt_lowio_initialize_console_output 0000000180039840     libucrt:initcon.obj
 0002:00012848       $unwind$_umatherr          0000000180039848     libucrt:fpexcept.obj
 0002:00012850       $unwind$_raise_exc_ex      0000000180039850     libucrt:fpexcept.obj
 0002:00012864       $unwind$_ctrlfp            0000000180039864     libucrt:fpctrl.obj
 0002:0001288c       $unwind$_mbstowcs_s_l      000000018003988c     libucrt:mbstowcs.obj
 0002:000128a4       $unwind$?_mbstowcs_l_helper@@YA_KPEA_WPEBD_KPEAU__crt_locale_pointers@@@Z 00000001800398a4     libucrt:mbstowcs.obj
 0002:000128c0       $unwind$?_wcstombs_l_helper@@YA_KPEADPEB_W_KPEAU__crt_locale_pointers@@@Z 00000001800398c0     libucrt:wcstombs.obj
 0002:000128e0       $unwind$_isctype_l         00000001800398e0     libucrt:isctype.obj
 0002:000128fc       $unwind$__acrt_GetLocaleInfoA 00000001800398fc     libucrt:getlocaleinfoa.obj
 0002:0001291c       $unwind$?InternalGetLocaleInfoA@@YAHQEAU__crt_locale_pointers@@QEB_WKQEADH@Z 000000018003991c     libucrt:getlocaleinfoa.obj
 0002:00012944       $unwind$__acrt_GetStringTypeA 0000000180039944     libucrt:getstringtypea.obj
 0002:0001296c       $unwind$?__acrt_LCMapStringA_stat@@YAHPEAU__crt_locale_pointers@@PEB_WKPEBDHPEADHHH@Z 000000018003996c     libucrt:lcmapstringa.obj
 0002:00012994       $unwind$__acrt_initialize_fma3 0000000180039994     libucrt:fma3_available.obj
 0002:0001299c       $unwind$_powf_special      000000018003999c     libucrt:pow_special.obj
 0002:000129ac       $unwind$_pow_special       00000001800399ac     libucrt:pow_special.obj
 0002:000129b8       $unwind$??$common_expand_argv_wildcards@D@@YAHQEAPEADQEAPEAPEAD@Z 00000001800399b8     libucrt:argv_wildcards.obj
 0002:000129d0       $unwind$??$expand_argument_wildcards@D@@YAHQEAD0AEAV?$argument_list@D@?A0xca0879c4@@@Z 00000001800399d0     libucrt:argv_wildcards.obj
 0002:000129f0       $unwind$__acrt_update_thread_multibyte_data 00000001800399f0     libucrt:mbctype.obj
 0002:00012a14       $unwind$_setmbcp_nolock    0000000180039a14     libucrt:mbctype.obj
 0002:00012a34       $unwind$?setSBUpLow@@YAXPEAU__crt_multibyte_data@@@Z 0000000180039a34     libucrt:mbctype.obj
 0002:00012a50       $unwind$?setmbcp_internal@@YAHH_N@Z 0000000180039a50     libucrt:mbctype.obj
 0002:00012a60       $unwind$??$?RV<lambda_99476a1ad63dd22509b5d3e65b0ffc95>@@AEAV<lambda_ad1ced32f4ac17aa236e5ef05d6b3b7c>@@V<lambda_f7424dd8d45958661754dc4f2697e9c3>@@@?$__crt_seh_guarded_call@X@@QEAAX$$QEAV<lambda_99476a1ad63dd22509b5d3e65b0ffc95>@@AEAV<lambda_ad1ced32f4ac17aa236e5ef05d6b3b7c>@@$$QEAV<lambda_f7424dd8d45958661754dc4f2697e9c3>@@@Z 0000000180039a60     libucrt:mbctype.obj
 0002:00012a84       $unwind$__dcrt_get_narrow_environment_from_os 0000000180039a84     libucrt:get_environment_from_os.obj
 0002:00012a84       $unwind$_wcsnicmp_l        0000000180039a84     libucrt:wcsnicmp.obj
 0002:00012a84       $unwind$?fp_format_f_internal@@YAHQEAD_KHQEAU_strflt@@_NQEAU__crt_locale_pointers@@@Z 0000000180039a84     libucrt:cvt.obj
 0002:00012a9c       $unwind$?GetTableIndexFromLocaleName@@YAHPEB_W@Z 0000000180039a9c     libucrt:lcidtoname_downlevel.obj
 0002:00012ab4       $unwind$fclose             0000000180039ab4     libucrt:fclose.obj
 0002:00012ad8       $unwind$_close             0000000180039ad8     libucrt:close.obj
 0002:00012ad8       $unwind$_commit            0000000180039ad8     libucrt:commit.obj
 0002:00012ae0       $unwind$??$?RV<lambda_b521505b218e5242e90febf6bfebc422>@@AEAV<lambda_6978c1fb23f02e42e1d9e99668cc68aa>@@V<lambda_314360699dd331753a4119843814e9a7>@@@?$__crt_seh_guarded_call@H@@QEAAH$$QEAV<lambda_b521505b218e5242e90febf6bfebc422>@@AEAV<lambda_6978c1fb23f02e42e1d9e99668cc68aa>@@$$QEAV<lambda_314360699dd331753a4119843814e9a7>@@@Z 0000000180039ae0     libucrt:commit.obj
 0002:00012b04       $unwind$_write             0000000180039b04     libucrt:write.obj
 0002:00012b34       $unwind$_write_nolock      0000000180039b34     libucrt:write.obj
 0002:00012b4c       $unwind$?write_double_translated_ansi_nolock@@YA?AUwrite_result@?A0x9c548279@@HQEBDI@Z 0000000180039b4c     libucrt:write.obj
 0002:00012b6c       $unwind$?write_text_utf16le_nolock@@YA?AUwrite_result@?A0x9c548279@@HQEBDI@Z 0000000180039b6c     libucrt:write.obj
 0002:00012b6c       $unwind$?write_text_ansi_nolock@@YA?AUwrite_result@?A0x9c548279@@HQEBDI@Z 0000000180039b6c     libucrt:write.obj
 0002:00012b8c       $unwind$?write_text_utf8_nolock@@YA?AUwrite_result@?A0x9c548279@@HQEBDI@Z 0000000180039b8c     libucrt:write.obj
 0002:00012bb0       $unwind$__acrt_lowio_destroy_handle_array 0000000180039bb0     libucrt:osfinfo.obj
 0002:00012bc0       $unwind$__acrt_lowio_ensure_fh_exists 0000000180039bc0     libucrt:osfinfo.obj
 0002:00012bec       $unwind$__acrt_update_thread_locale_data 0000000180039bec     libucrt:locale_refcounting.obj
 0002:00012c10       $unwind$__acrt_fltout      0000000180039c10     libucrt:cfout.obj
 0002:00012c30       $unwind$__acrt_locale_initialize_monetary 0000000180039c30     libucrt:initmon.obj
 0002:00012c4c       $unwind$__acrt_locale_free_monetary 0000000180039c4c     libucrt:initmon.obj
 0002:00012c54       $unwind$__acrt_locale_free_time 0000000180039c54     libucrt:inittime.obj
 0002:00012c64       $unwind$?initialize_lc_time@@YA_NQEAU__crt_lc_time_data@@QEAU__crt_locale_data@@@Z 0000000180039c64     libucrt:inittime.obj
 0002:00012c80       $unwind$??$copy_and_add_argument_to_buffer@D@@YAHQEBD0_KAEAV?$argument_list@D@?A0xca0879c4@@@Z 0000000180039c80     libucrt:argv_wildcards.obj
 0002:00012c80       $unwind$__acrt_get_qualified_locale 0000000180039c80     libucrt:get_qualified_locale.obj
 0002:00012c9c       $unwind$??R<lambda_4e60a939b0d047cfe11ddc22648dfba9>@@QEBAHXZ 0000000180039c9c     libucrt:onexit.obj
 0002:00012c9c       $unwind$TranslateName      0000000180039c9c     libucrt:get_qualified_locale.obj
 0002:00012c9c       $unwind$?_GetRangeOfTrysToCheck@@YAPEBU_s_TryBlockMapEntry@@PEA_KPEBU_s_FuncInfo@@HHPEAI2PEAU_xDISPATCHER_CONTEXT@@@Z 0000000180039c9c     libvcruntime:trnsctrl.obj
 0002:00012c9c       $unwind$?write_string@?$string_output_adapter@D@__crt_stdio_output@@QEBAXQEBDHQEAH1@Z 0000000180039c9c     libucrt:output.obj
 0002:00012c9c       $unwind$??$parse_command_line@D@@YAXPEADPEAPEAD0PEA_K2@Z 0000000180039c9c     libucrt:argv_parsing.obj
 0002:00012cb8       $unwind$LangCountryEnumProcEx 0000000180039cb8     libucrt:get_qualified_locale.obj
 0002:00012cd8       $unwind$LanguageEnumProcEx 0000000180039cd8     libucrt:get_qualified_locale.obj
 0002:00012cf4       $unwind$GetLocaleNameFromDefault 0000000180039cf4     libucrt:get_qualified_locale.obj
 0002:00012d0c       $unwind$TestDefaultCountry 0000000180039d0c     libucrt:get_qualified_locale.obj
 0002:00012d20       $unwind$__acrt_get_qualified_locale_downlevel 0000000180039d20     libucrt:getqloc_downlevel.obj
 0002:00012d3c       $unwind$LangCountryEnumProc 0000000180039d3c     libucrt:getqloc_downlevel.obj
 0002:00012d5c       $unwind$LanguageEnumProc   0000000180039d5c     libucrt:getqloc_downlevel.obj
 0002:00012d78       $unwind$CountryEnumProc    0000000180039d78     libucrt:getqloc_downlevel.obj
 0002:00012d98       $xdatasym                  0000000180039d98     libucrt:fpsr.obj
 0002:00012da0       $unwind$_call_matherr      0000000180039da0     libucrt:libm_error.obj
 0002:00012da8       $unwind$_handle_errorf     0000000180039da8     libucrt:libm_error.obj
 0002:00012da8       $unwind$_handle_error      0000000180039da8     libucrt:libm_error.obj
 0002:00012dc8       $unwind$_towlower_l        0000000180039dc8     libucrt:towlower.obj
 0002:00012dd0       $unwind$qsort              0000000180039dd0     libucrt:qsort.obj
 0002:00012de8       $chain$4$qsort             0000000180039de8     libucrt:qsort.obj
 0002:00012e0c       $chain$5$qsort             0000000180039e0c     libucrt:qsort.obj
 0002:00012e1c       $unwind$?shortsort@@YAXPEAD0_KP6AHPEBX2@Z@Z 0000000180039e1c     libucrt:qsort.obj
 0002:00012e2c       $chain$2$?shortsort@@YAXPEAD0_KP6AHPEBX2@Z@Z 0000000180039e2c     libucrt:qsort.obj
 0002:00012e48       $chain$3$?shortsort@@YAXPEAD0_KP6AHPEBX2@Z@Z 0000000180039e48     libucrt:qsort.obj
 0002:00012e58       $unwind$strcspn            0000000180039e58     libucrt:strcspn.obj
 0002:00012e58       $unwind$strpbrk            0000000180039e58     libucrt:strpbrk.obj
 0002:00012e68       $unwind$_mbsdec_l          0000000180039e68     libucrt:mbsdec.obj
 0002:00012e74       $unwind$??$?RV<lambda_bfedae4ebbf01fab1bb6dcc6a9e276e0>@@AEAV<lambda_2fe9b910cf3cbf4a0ab98a02ba45b3ec>@@V<lambda_237c231691f317818eb88cc1d5d642d6>@@@?$__crt_seh_guarded_call@H@@QEAAH$$QEAV<lambda_bfedae4ebbf01fab1bb6dcc6a9e276e0>@@AEAV<lambda_2fe9b910cf3cbf4a0ab98a02ba45b3ec>@@$$QEAV<lambda_237c231691f317818eb88cc1d5d642d6>@@@Z 0000000180039e74     libucrt:close.obj
 0002:00012e98       $unwind$_putwch_nolock     0000000180039e98     libucrt:putwch.obj
 0002:00012e98       $unwind$__report_gsfailure 0000000180039e98     LIBCMT:gs_report.obj
 0002:00012ea0       $xdatasym                  0000000180039ea0     libucrt:log10.obj
 0002:00012eac       $unwind$common_control87   0000000180039eac     libucrt:ieee.obj
 0002:00012edc       $unwind$_log_special_common 0000000180039edc     libucrt:log_special.obj
 0002:00012ee8       $unwind$?DloadObtainSection@@YAPEAXPEAK0@Z 0000000180039ee8     DelayImp:delayhlp.obj
 0002:00012ef8       $unwind$?DloadMakePermanentImageCommit@@YAXPEAX_K@Z 0000000180039ef8     DelayImp:delayhlp.obj
 0002:00012f04       $unwind$?DloadProtectSection@@YAXKPEAK@Z 0000000180039f04     DelayImp:delayhlp.obj
 0002:00012f14       $unwind$__delayLoadHelper2 0000000180039f14     DelayImp:delayhlp.obj
 0002:00012f2c       $unwind$_IsNonwritableInCurrentImage 0000000180039f2c     LIBCMT:pesect.obj
 0002:00012f50       $unwind$strrchr            0000000180039f50     libvcruntime:strrchr.obj
 0002:00012f50       $unwind$wcschr             0000000180039f50     libvcruntime:wcschr.obj
 0002:00013620       .edata                     000000018003a620     tfjs_binding.exp
 0002:00013648       rgpv                       000000018003a648     tfjs_binding.exp
 0002:0001364c       rgszName                   000000018003a64c     tfjs_binding.exp
 0002:00013650       rgwOrd                     000000018003a650     tfjs_binding.exp
 0002:00013652       szName                     000000018003a652     tfjs_binding.exp
 0002:00013664       $N00001                    000000018003a664     tfjs_binding.exp
 0002:00013aa4       .idata$6                   000000018003aaa4     kernel32:KERNEL32.dll
 0002:00013dcc       .idata$6                   000000018003adcc     tensorflow:tensorflow.dll
 0003:00000000       ?init@std@@3JA             000000018003c000     libcpmt:xlock.obj
 0003:00000010       ?atcount_cdecl@@3_KA       000000018003c010     libcpmt:iosptrs.obj
 0003:000000b0       ?__vcrt_flsindex@@3KA      000000018003c0b0     libvcruntime:per_thread_data.obj
 0003:00000298       errno_no_memory            000000018003c298     libucrt:errno.obj
 0003:0000029c       doserrno_no_memory         000000018003c29c     libucrt:errno.obj
 0003:000002a0       __acrt_flsindex            000000018003c2a0     libucrt:per_thread_data.obj
 0003:000002a8       _ctype_loc_style           000000018003c2a8     libucrt:wsetlocale.obj
 0003:00000420       ?dazSupported@?1??_ctrlfp@@9@9 000000018003c420     libucrt:fpctrl.obj
 0003:00000430       tzstd_program              000000018003c430     libucrt:timeset.obj
 0003:00000470       tzdst_program              000000018003c470     libucrt:timeset.obj
 0003:000004b0       tzname_states              000000018003c4b0     libucrt:timeset.obj
 0003:000006f0       __rgctypeflag              000000018003c6f0     libucrt:mbctype.obj
 0003:00000700       __rgcode_page_info         000000018003c700     libucrt:mbctype.obj
 0003:00000a00       ?dazSupported@?1??common_control87@@9@9 000000018003ca00     libucrt:ieee.obj
 0003:00000a10       _module                    000000018003ca10     tfjs_binding.obj
 0003:00000e40       ?initlocks@std@@3V_Init_locks@1@A 000000018003ce40     libcpmt:xlock.obj
 0003:00000e50       ?mtx@std@@3PAU_RTL_CRITICAL_SECTION@@A 000000018003ce50     libcpmt:xlock.obj
 0003:00000f90       ?_Fac_head@std@@3PEAU_Fac_node@1@EA 000000018003cf90     libcpmt:locale0.obj
 0003:00000fa8       global_locale              000000018003cfa8     libcpmt:locale0.obj
 0003:00000fd0       ?classic_locale@std@@3Vlocale@1@A 000000018003cfd0     libcpmt:locale0.obj
 0003:00000fe8       ?_Fac_tidy_reg@std@@3U_Fac_tidy_reg_t@1@B 000000018003cfe8     libcpmt:locale0.obj
 0003:00000fe9       ?registered@?1??_Setgloballocale@locale@std@@CAXPEAX@Z@4_NA 000000018003cfe9     libcpmt:locale0.obj
 0003:00000ff0       ?stdstr@std@@3PAPEAVios_base@1@A 000000018003cff0     libcpmt:ios.obj
 0003:00001040       ?stdopens@std@@3PADA       000000018003d040     libcpmt:ios.obj
 0003:000010a0       ?atfuns_cdecl@@3PAP6AXXZA  000000018003d0a0     libcpmt:iosptrs.obj
 0003:000010f0       ?initlocks@std@@3V_Init_locks@1@A 000000018003d0f0     libcpmt:iosptrs.obj
 0003:000010f1       ?init_atexit@@3U_Init_atexit@@A 000000018003d0f1     libcpmt:iosptrs.obj
 0003:00001340       ?_Tss_mutex@@3U_RTL_CRITICAL_SECTION@@A 000000018003d340     LIBCMT:thread_safe_statics.obj
 0003:00001368       ?_Tss_cv@@3U_RTL_CONDITION_VARIABLE@@A 000000018003d368     LIBCMT:thread_safe_statics.obj
 0003:00001370       ?_Tss_event@@3PEAXEA       000000018003d370     LIBCMT:thread_safe_statics.obj
 0003:00001378       ?encoded_sleep_condition_variable_cs@@3P6AHPEAU_RTL_CONDITION_VARIABLE@@PEAU_RTL_CRITICAL_SECTION@@K@ZEA 000000018003d378     LIBCMT:thread_safe_statics.obj
 0003:00001380       ?encoded_wake_all_condition_variable@@3P6AXPEAU_RTL_CONDITION_VARIABLE@@@ZEA 000000018003d380     LIBCMT:thread_safe_statics.obj
 0003:00001398       ?module_local_atexit_table@@3U_onexit_table_t@@A 000000018003d398     LIBCMT:utility.obj
 0003:000013b0       ?module_local_at_quick_exit_table@@3U_onexit_table_t@@A 000000018003d3b0     LIBCMT:utility.obj
 0003:000013c8       ?is_initialized_as_dll@@3_NA 000000018003d3c8     LIBCMT:utility.obj
 0003:000013cc       ?__proc_attached@@3HA      000000018003d3cc     LIBCMT:dll_dllmain.obj
 0003:000013d0       GS_ExceptionRecord         000000018003d3d0     LIBCMT:gs_report.obj
 0003:00001470       GS_ContextRecord           000000018003d470     LIBCMT:gs_report.obj
 0003:00001970       ?module_handles@@3PAPEAUHINSTANCE__@@A 000000018003d970     libvcruntime:winapi_downlevel.obj
 0003:00001990       ?encoded_function_pointers@@3PAPEAXA 000000018003d990     libvcruntime:winapi_downlevel.obj
 0003:000019e0       ?__vcrt_startup_thread_ptd@@3U__vcrt_ptd@@A 000000018003d9e0     libvcruntime:per_thread_data.obj
 0003:00001a58       __vcrt_lock_table          000000018003da58     libvcruntime:locks.obj
 0003:00001a80       __vcrt_locks_initialized   000000018003da80     libvcruntime:locks.obj
 0003:00001ad0       ?heap@@3V_HeapManager@@A   000000018003dad0     libvcruntime:undname.obj
 0003:00001b08       __acrt_invalid_parameter_handler 000000018003db08     libucrt:invalid_parameter.obj
 0003:00001b20       __acrt_lock_table          000000018003db20     libucrt:locks.obj
 0003:00001d28       __acrt_locks_initialized   000000018003dd28     libucrt:locks.obj
 0003:00001d30       __acrt_new_handler         000000018003dd30     libucrt:new_handler.obj
 0003:00001d38       c_termination_complete     000000018003dd38     libucrt:exit.obj
 0003:00001d40       thread_local_exit_callback_func 000000018003dd40     libucrt:exit.obj
 0003:00001d48       ?c_exit_complete@?5??common_exit@@YAXHW4_crt_exit_cleanup_mode@@W4_crt_exit_return_mode@@@Z@4_NA 000000018003dd48     libucrt:exit.obj
 0003:00001d50       ?program_name@?5???$common_configure_argv@D@@YAHW4_crt_argv_mode@@@Z@4PADA 000000018003dd50     libucrt:argv_parsing.obj
 0003:00001ea8       ctrlc_action               000000018003dea8     libucrt:signal.obj
 0003:00001eb0       ctrlbreak_action           000000018003deb0     libucrt:signal.obj
 0003:00001eb8       abort_action               000000018003deb8     libucrt:signal.obj
 0003:00001ec0       term_action                000000018003dec0     libucrt:signal.obj
 0003:00001ed0       module_handles             000000018003ded0     libucrt:winapi_thunks.obj
 0003:00001f70       encoded_function_pointers  000000018003df70     libucrt:winapi_thunks.obj
 0003:00002070       ?static_enum_proc@?1??enum_system_locales_ex_nolock@@YAHQ6AHPEA_WK_J@Z@Z@4P6AH0K1@ZEA 000000018003e070     libucrt:winapi_thunks.obj
 0003:00002078       ?state_cache@?1??__acrt_is_packaged_app@@9@4JA 000000018003e078     libucrt:winapi_thunks.obj
 0003:00002488       enable_percent_n           000000018003e488     libucrt:printf_count_output.obj
 0003:000024b0       __acrt_global_new_mode     000000018003e4b0     libucrt:new_mode.obj
 0003:000024d8       _tzname                    000000018003e4d8     libucrt:timeset.obj
 0003:000024e0       tz_api_used                000000018003e4e0     libucrt:tzset.obj
 0003:000024f0       tz_info                    000000018003e4f0     libucrt:tzset.obj
 0003:000025b4       fSystemSet                 000000018003e5b4     libucrt:mbctype.obj
 0003:000025c0       ?initialized@?1??__acrt_initialize_multibyte@@9@4_NA 000000018003e5c0     libucrt:mbctype.obj
 0003:000025f0       user_matherr               000000018003e5f0     libucrt:matherr.obj
 0003:000025f8       __acrt_app_type            000000018003e5f8     libucrt:report_runtime_error.obj
 0003:00002670       ?ATTR_NAME_SET@tfnodejs@@3V?$set@V?$basic_string@DU?$char_traits@D@std@@V?$allocator@D@2@@std@@U?$less@V?$basic_string@DU?$char_traits@D@std@@V?$allocator@D@2@@std@@@2@V?$allocator@V?$basic_string@DU?$char_traits@D@std@@V?$allocator@D@2@@std@@@2@@std@@A 000000018003e670     tfe_utils.obj
 0004:00000000       $pdata$??__EATTR_NAME_SET@tfnodejs@@YAXXZ 000000018003f000     tfe_utils.obj
 0004:0000000c       $pdata$??__Einitlocks@std@@YAXXZ 000000018003f00c     libcpmt:xlock.obj
 0004:00000018       $pdata$??__Einitlocks@std@@YAXXZ 000000018003f018     libcpmt:iosptrs.obj
 0004:00000024       $pdata$?_Raise@exception@stdext@@QEBAXXZ 000000018003f024     tfe_utils.obj
 0004:00000030       $pdata$??_Gexception@stdext@@UEAAPEAXI@Z 000000018003f030     tfe_utils.obj
 0004:00000030       $pdata$??_Gruntime_error@std@@UEAAPEAXI@Z 000000018003f030     tfe_utils.obj
 0004:0000003c       $pdata$sprintf_s           000000018003f03c     tfe_utils.obj
 0004:00000048       $pdata$?_Doraise@runtime_error@std@@MEBAXXZ 000000018003f048     tfe_utils.obj
 0004:00000048       $pdata$?_Doraise@failure@ios_base@std@@MEBAXXZ 000000018003f048     tfe_utils.obj
 0004:00000054       $pdata$??0_Locinfo@std@@QEAA@PEBD@Z 000000018003f054     tfe_utils.obj
 0004:00000060       $pdata$??1_Locinfo@std@@QEAA@XZ 000000018003f060     tfe_utils.obj
 0004:0000006c       $pdata$??_G_Facet_base@std@@UEAAPEAXI@Z 000000018003f06c     tfe_utils.obj
 0004:00000078       $pdata$?_Getcat@?$ctype@D@std@@SA_KPEAPEBVfacet@locale@2@PEBV42@@Z 000000018003f078     tfe_utils.obj
 0004:00000084       $pdata$0$?_Getcat@?$ctype@D@std@@SA_KPEAPEBVfacet@locale@2@PEBV42@@Z 000000018003f084     tfe_utils.obj
 0004:00000090       $pdata$1$?_Getcat@?$ctype@D@std@@SA_KPEAPEBVfacet@locale@2@PEBV42@@Z 000000018003f090     tfe_utils.obj
 0004:0000009c       $pdata$?do_tolower@?$ctype@D@std@@MEBAPEBDPEADPEBD@Z 000000018003f09c     tfe_utils.obj
 0004:000000a8       $pdata$0$?do_tolower@?$ctype@D@std@@MEBAPEBDPEADPEBD@Z 000000018003f0a8     tfe_utils.obj
 0004:000000b4       $pdata$1$?do_tolower@?$ctype@D@std@@MEBAPEBDPEADPEBD@Z 000000018003f0b4     tfe_utils.obj
 0004:000000c0       $pdata$?do_toupper@?$ctype@D@std@@MEBAPEBDPEADPEBD@Z 000000018003f0c0     tfe_utils.obj
 0004:000000cc       $pdata$0$?do_toupper@?$ctype@D@std@@MEBAPEBDPEADPEBD@Z 000000018003f0cc     tfe_utils.obj
 0004:000000d8       $pdata$1$?do_toupper@?$ctype@D@std@@MEBAPEBDPEADPEBD@Z 000000018003f0d8     tfe_utils.obj
 0004:000000e4       $pdata$?do_widen@?$ctype@D@std@@MEBAPEBDPEBD0PEAD@Z 000000018003f0e4     tfe_utils.obj
 0004:000000f0       $pdata$?do_narrow@?$ctype@D@std@@MEBAPEBDPEBD0DPEAD@Z 000000018003f0f0     tfe_utils.obj
 0004:000000fc       $pdata$??_G?$ctype@D@std@@MEAAPEAXI@Z 000000018003f0fc     tfe_utils.obj
 0004:00000108       $pdata$??_G_Iostream_error_category@std@@UEAAPEAXI@Z 000000018003f108     tfe_utils.obj
 0004:00000108       $pdata$??_Gerror_category@std@@UEAAPEAXI@Z 000000018003f108     tfe_utils.obj
 0004:00000114       $pdata$?equivalent@error_category@std@@UEBA_NHAEBVerror_condition@2@@Z 000000018003f114     tfe_utils.obj
 0004:00000120       $pdata$??0_System_error@std@@IEAA@Verror_code@1@AEBV?$basic_string@DU?$char_traits@D@std@@V?$allocator@D@2@@1@@Z 000000018003f120     tfe_utils.obj
 0004:0000012c       $pdata$??_Gfailure@ios_base@std@@UEAAPEAXI@Z 000000018003f12c     tfe_utils.obj
 0004:0000012c       $pdata$??_G_System_error@std@@UEAAPEAXI@Z 000000018003f12c     tfe_utils.obj
 0004:00000138       $pdata$?message@_Iostream_error_category@std@@UEBA?AV?$basic_string@DU?$char_traits@D@std@@V?$allocator@D@2@@2@H@Z 000000018003f138     tfe_utils.obj
 0004:00000144       $pdata$??0failure@ios_base@std@@QEAA@PEBDAEBVerror_code@2@@Z 000000018003f144     tfe_utils.obj
 0004:00000150       $pdata$?clear@ios_base@std@@QEAAXH_N@Z 000000018003f150     tfe_utils.obj
 0004:0000015c       $pdata$??_Gios_base@std@@UEAAPEAXI@Z 000000018003f15c     tfe_utils.obj
 0004:00000168       $pdata$??_GTF_AutoStatus@tfnodejs@@UEAAPEAXI@Z 000000018003f168     tfe_utils.obj
 0004:00000174       $pdata$?EnsureNapiOK@tfnodejs@@YA_NPEAUnapi_env__@@W4napi_status@@PEBD_K@Z 000000018003f174     tfe_utils.obj
 0004:00000180       $pdata$?EnsureTFOK@tfnodejs@@YA_NPEAUnapi_env__@@AEAVTF_AutoStatus@1@PEBD_K@Z 000000018003f180     tfe_utils.obj
 0004:0000018c       $pdata$0$?EnsureTFOK@tfnodejs@@YA_NPEAUnapi_env__@@AEAVTF_AutoStatus@1@PEBD_K@Z 000000018003f18c     tfe_utils.obj
 0004:00000198       $pdata$1$?EnsureTFOK@tfnodejs@@YA_NPEAUnapi_env__@@AEAVTF_AutoStatus@1@PEBD_K@Z 000000018003f198     tfe_utils.obj
 0004:000001a4       $pdata$?ReportUnknownTFDataType@tfnodejs@@YAXPEAUnapi_env__@@W4TF_DataType@@PEBD_K@Z 000000018003f1a4     tfe_utils.obj
 0004:000001b0       $pdata$?ReportUnknownTFAttrType@tfnodejs@@YAXPEAUnapi_env__@@W4TF_AttrType@@PEBD_K@Z 000000018003f1b0     tfe_utils.obj
 0004:000001bc       $pdata$?ReportUnknownTypedArrayType@tfnodejs@@YAXPEAUnapi_env__@@W4napi_typedarray_type@@PEBD_K@Z 000000018003f1bc     tfe_utils.obj
 0004:000001c8       $pdata$?ExtractArrayShape@tfnodejs@@YAXPEAUnapi_env__@@PEAUnapi_value__@@PEAV?$vector@_JV?$allocator@_J@std@@@std@@@Z 000000018003f1c8     tfe_utils.obj
 0004:000001d4       $pdata$0$?ExtractArrayShape@tfnodejs@@YAXPEAUnapi_env__@@PEAUnapi_value__@@PEAV?$vector@_JV?$allocator@_J@std@@@std@@@Z 000000018003f1d4     tfe_utils.obj
 0004:000001e0       $pdata$1$?ExtractArrayShape@tfnodejs@@YAXPEAUnapi_env__@@PEAUnapi_value__@@PEAV?$vector@_JV?$allocator@_J@std@@@std@@@Z 000000018003f1e0     tfe_utils.obj
 0004:000001ec       $pdata$?GetStringParam@tfnodejs@@YA?AW4napi_status@@PEAUnapi_env__@@PEAUnapi_value__@@AEAV?$basic_string@DU?$char_traits@D@std@@V?$allocator@D@2@@std@@@Z 000000018003f1ec     tfe_utils.obj
 0004:000001f8       $pdata$0$?GetStringParam@tfnodejs@@YA?AW4napi_status@@PEAUnapi_env__@@PEAUnapi_value__@@AEAV?$basic_string@DU?$char_traits@D@std@@V?$allocator@D@2@@std@@@Z 000000018003f1f8     tfe_utils.obj
 0004:00000204       $pdata$2$?GetStringParam@tfnodejs@@YA?AW4napi_status@@PEAUnapi_env__@@PEAUnapi_value__@@AEAV?$basic_string@DU?$char_traits@D@std@@V?$allocator@D@2@@std@@@Z 000000018003f204     tfe_utils.obj
 0004:00000210       $pdata$?CreateTFE_TensorHandleFromTypedArray@tfnodejs@@YAPEAUTFE_TensorHandle@@PEAUnapi_env__@@PEA_JIW4TF_DataType@@PEAUnapi_value__@@@Z 000000018003f210     tfe_utils.obj
 0004:0000021c       $pdata$1$?CreateTFE_TensorHandleFromTypedArray@tfnodejs@@YAPEAUTFE_TensorHandle@@PEAUnapi_env__@@PEA_JIW4TF_DataType@@PEAUnapi_value__@@@Z 000000018003f21c     tfe_utils.obj
 0004:00000228       $pdata$2$?CreateTFE_TensorHandleFromTypedArray@tfnodejs@@YAPEAUTFE_TensorHandle@@PEAUnapi_env__@@PEA_JIW4TF_DataType@@PEAUnapi_value__@@@Z 000000018003f228     tfe_utils.obj
 0004:00000234       $pdata$?CopyTFE_TensorHandleToDevice@tfnodejs@@YAPEAUTFE_TensorHandle@@PEAUnapi_env__@@PEBDPEAU2@PEAUTFE_Context@@@Z 000000018003f234     tfe_utils.obj
 0004:00000240       $pdata$?CopyTFE_TensorHandleDataToTypedArray@tfnodejs@@YAXPEAUnapi_env__@@PEAUTFE_Context@@PEAUTFE_TensorHandle@@PEAPEAUnapi_value__@@@Z 000000018003f240     tfe_utils.obj
 0004:0000024c       $pdata$2$?CopyTFE_TensorHandleDataToTypedArray@tfnodejs@@YAXPEAUnapi_env__@@PEAUTFE_Context@@PEAUTFE_TensorHandle@@PEAPEAUnapi_value__@@@Z 000000018003f24c     tfe_utils.obj
 0004:00000258       $pdata$4$?CopyTFE_TensorHandleDataToTypedArray@tfnodejs@@YAXPEAUnapi_env__@@PEAUTFE_Context@@PEAUTFE_TensorHandle@@PEAPEAUnapi_value__@@@Z 000000018003f258     tfe_utils.obj
 0004:00000264       $pdata$5$?CopyTFE_TensorHandleDataToTypedArray@tfnodejs@@YAXPEAUnapi_env__@@PEAUTFE_Context@@PEAUTFE_TensorHandle@@PEAPEAUnapi_value__@@@Z 000000018003f264     tfe_utils.obj
 0004:00000270       $pdata$6$?CopyTFE_TensorHandleDataToTypedArray@tfnodejs@@YAXPEAUnapi_env__@@PEAUTFE_Context@@PEAUTFE_TensorHandle@@PEAPEAUnapi_value__@@@Z 000000018003f270     tfe_utils.obj
 0004:0000027c       $pdata$7$?CopyTFE_TensorHandleDataToTypedArray@tfnodejs@@YAXPEAUnapi_env__@@PEAUTFE_Context@@PEAUTFE_TensorHandle@@PEAPEAUnapi_value__@@@Z 000000018003f27c     tfe_utils.obj
 0004:00000288       $pdata$?GetTFE_TensorHandleShape@tfnodejs@@YAXPEAUnapi_env__@@PEAUTFE_TensorHandle@@PEAPEAUnapi_value__@@@Z 000000018003f288     tfe_utils.obj
 0004:00000294       $pdata$0$?GetTFE_TensorHandleShape@tfnodejs@@YAXPEAUnapi_env__@@PEAUTFE_TensorHandle@@PEAPEAUnapi_value__@@@Z 000000018003f294     tfe_utils.obj
 0004:000002a0       $pdata$1$?GetTFE_TensorHandleShape@tfnodejs@@YAXPEAUnapi_env__@@PEAUTFE_TensorHandle@@PEAPEAUnapi_value__@@@Z 000000018003f2a0     tfe_utils.obj
 0004:000002ac       $pdata$2$?GetTFE_TensorHandleShape@tfnodejs@@YAXPEAUnapi_env__@@PEAUTFE_TensorHandle@@PEAPEAUnapi_value__@@@Z 000000018003f2ac     tfe_utils.obj
 0004:000002b8       $pdata$3$?GetTFE_TensorHandleShape@tfnodejs@@YAXPEAUnapi_env__@@PEAUTFE_TensorHandle@@PEAPEAUnapi_value__@@@Z 000000018003f2b8     tfe_utils.obj
 0004:000002c4       $pdata$?AssignOpAttr@tfnodejs@@YAXPEAUnapi_env__@@PEAUTFE_Op@@PEAUnapi_value__@@@Z 000000018003f2c4     tfe_utils.obj
 0004:000002d0       $pdata$2$?AssignOpAttr@tfnodejs@@YAXPEAUnapi_env__@@PEAUTFE_Op@@PEAUnapi_value__@@@Z 000000018003f2d0     tfe_utils.obj
 0004:000002dc       $pdata$3$?AssignOpAttr@tfnodejs@@YAXPEAUnapi_env__@@PEAUTFE_Op@@PEAUnapi_value__@@@Z 000000018003f2dc     tfe_utils.obj
 0004:000002e8       $pdata$4$?AssignOpAttr@tfnodejs@@YAXPEAUnapi_env__@@PEAUTFE_Op@@PEAUnapi_value__@@@Z 000000018003f2e8     tfe_utils.obj
 0004:000002f4       $pdata$?push_back@?$vector@_JV?$allocator@_J@std@@@std@@QEAAXAEB_J@Z 000000018003f2f4     tfe_utils.obj
 0004:00000300       $pdata$??1?$vector@_JV?$allocator@_J@std@@@std@@QEAA@XZ 000000018003f300     tfe_utils.obj
 0004:0000030c       $pdata$?assign@?$basic_string@DU?$char_traits@D@std@@V?$allocator@D@2@@std@@QEAAAEAV12@PEBD_K@Z 000000018003f30c     tfe_utils.obj
 0004:00000318       $pdata$??1?$basic_string@DU?$char_traits@D@std@@V?$allocator@D@2@@std@@QEAA@XZ 000000018003f318     tfe_utils.obj
 0004:00000324       $pdata$??0?$basic_string@DU?$char_traits@D@std@@V?$allocator@D@2@@std@@QEAA@$$QEAV01@@Z 000000018003f324     tfe_utils.obj
 0004:00000330       $pdata$??1?$basic_ostringstream@DU?$char_traits@D@std@@V?$allocator@D@2@@std@@UEAA@XZ 000000018003f330     tfe_utils.obj
 0004:0000033c       $pdata$??0?$basic_ostringstream@DU?$char_traits@D@std@@V?$allocator@D@2@@std@@QEAA@H@Z 000000018003f33c     tfe_utils.obj
 0004:00000348       $pdata$?seekpos@?$basic_stringbuf@DU?$char_traits@D@std@@V?$allocator@D@2@@std@@MEAA?AV?$fpos@U_Mbstatet@@@2@V32@H@Z 000000018003f348     tfe_utils.obj
 0004:00000354       $pdata$?seekoff@?$basic_stringbuf@DU?$char_traits@D@std@@V?$allocator@D@2@@std@@MEAA?AV?$fpos@U_Mbstatet@@@2@_JHH@Z 000000018003f354     tfe_utils.obj
 0004:00000360       $pdata$?overflow@?$basic_stringbuf@DU?$char_traits@D@std@@V?$allocator@D@2@@std@@MEAAHH@Z 000000018003f360     tfe_utils.obj
 0004:0000036c       $pdata$0$?overflow@?$basic_stringbuf@DU?$char_traits@D@std@@V?$allocator@D@2@@std@@MEAAHH@Z 000000018003f36c     tfe_utils.obj
 0004:00000378       $pdata$6$?overflow@?$basic_stringbuf@DU?$char_traits@D@std@@V?$allocator@D@2@@std@@MEAAHH@Z 000000018003f378     tfe_utils.obj
 0004:00000384       $pdata$7$?overflow@?$basic_stringbuf@DU?$char_traits@D@std@@V?$allocator@D@2@@std@@MEAAHH@Z 000000018003f384     tfe_utils.obj
 0004:00000390       $pdata$??6?$basic_ostream@DU?$char_traits@D@std@@@std@@QEAAAEAV01@H@Z 000000018003f390     tfe_utils.obj
 0004:0000039c       $pdata$1$??6?$basic_ostream@DU?$char_traits@D@std@@@std@@QEAAAEAV01@H@Z 000000018003f39c     tfe_utils.obj
 0004:000003a8       $pdata$3$??6?$basic_ostream@DU?$char_traits@D@std@@@std@@QEAAAEAV01@H@Z 000000018003f3a8     tfe_utils.obj
 0004:000003b4       $pdata$4$??6?$basic_ostream@DU?$char_traits@D@std@@@std@@QEAAAEAV01@H@Z 000000018003f3b4     tfe_utils.obj
 0004:000003c0       $pdata$5$??6?$basic_ostream@DU?$char_traits@D@std@@@std@@QEAAAEAV01@H@Z 000000018003f3c0     tfe_utils.obj
 0004:000003cc       $pdata$6$??6?$basic_ostream@DU?$char_traits@D@std@@@std@@QEAAAEAV01@H@Z 000000018003f3cc     tfe_utils.obj
 0004:000003d8       $pdata$7$??6?$basic_ostream@DU?$char_traits@D@std@@@std@@QEAAAEAV01@H@Z 000000018003f3d8     tfe_utils.obj
 0004:000003e4       $pdata$?xsputn@?$basic_streambuf@DU?$char_traits@D@std@@@std@@MEAA_JPEBD_J@Z 000000018003f3e4     tfe_utils.obj
 0004:000003f0       $pdata$0$?xsputn@?$basic_streambuf@DU?$char_traits@D@std@@@std@@MEAA_JPEBD_J@Z 000000018003f3f0     tfe_utils.obj
 0004:000003fc       $pdata$1$?xsputn@?$basic_streambuf@DU?$char_traits@D@std@@@std@@MEAA_JPEBD_J@Z 000000018003f3fc     tfe_utils.obj
 0004:00000408       $pdata$?xsgetn@?$basic_streambuf@DU?$char_traits@D@std@@@std@@MEAA_JPEAD_J@Z 000000018003f408     tfe_utils.obj
 0004:00000414       $pdata$0$?xsgetn@?$basic_streambuf@DU?$char_traits@D@std@@@std@@MEAA_JPEAD_J@Z 000000018003f414     tfe_utils.obj
 0004:00000420       $pdata$1$?xsgetn@?$basic_streambuf@DU?$char_traits@D@std@@@std@@MEAA_JPEAD_J@Z 000000018003f420     tfe_utils.obj
 0004:0000042c       $pdata$?uflow@?$basic_streambuf@DU?$char_traits@D@std@@@std@@MEAAHXZ 000000018003f42c     tfe_utils.obj
 0004:00000438       $pdata$??_G?$basic_ostringstream@DU?$char_traits@D@std@@V?$allocator@D@2@@std@@UEAAPEAXI@Z 000000018003f438     tfe_utils.obj
 0004:00000444       $pdata$??_G?$basic_stringbuf@DU?$char_traits@D@std@@V?$allocator@D@2@@std@@UEAAPEAXI@Z 000000018003f444     tfe_utils.obj
 0004:00000450       $pdata$??_G?$basic_ostream@DU?$char_traits@D@std@@@std@@UEAAPEAXI@Z 000000018003f450     tfe_utils.obj
 0004:0000045c       $pdata$??_G?$basic_streambuf@DU?$char_traits@D@std@@@std@@UEAAPEAXI@Z 000000018003f45c     tfe_utils.obj
 0004:00000468       $pdata$??_Glocale@std@@QEAAPEAXI@Z 000000018003f468     tfe_utils.obj
 0004:00000474       $pdata$??_G?$basic_ios@DU?$char_traits@D@std@@@std@@UEAAPEAXI@Z 000000018003f474     tfe_utils.obj
 0004:00000480       $pdata$??0sentry@?$basic_ostream@DU?$char_traits@D@std@@@std@@QEAA@AEAV12@@Z 000000018003f480     tfe_utils.obj
 0004:0000048c       $pdata$?do_put@?$num_put@DV?$ostreambuf_iterator@DU?$char_traits@D@std@@@std@@@std@@MEBA?AV?$ostreambuf_iterator@DU?$char_traits@D@std@@@2@V32@AEAVios_base@2@DPEBX@Z 000000018003f48c     tfe_utils.obj
 0004:00000498       $pdata$?do_put@?$num_put@DV?$ostreambuf_iterator@DU?$char_traits@D@std@@@std@@@std@@MEBA?AV?$ostreambuf_iterator@DU?$char_traits@D@std@@@2@V32@AEAVios_base@2@DO@Z 000000018003f498     tfe_utils.obj
 0004:000004a4       $pdata$?do_put@?$num_put@DV?$ostreambuf_iterator@DU?$char_traits@D@std@@@std@@@std@@MEBA?AV?$ostreambuf_iterator@DU?$char_traits@D@std@@@2@V32@AEAVios_base@2@DN@Z 000000018003f4a4     tfe_utils.obj
 0004:000004b0       $pdata$?do_put@?$num_put@DV?$ostreambuf_iterator@DU?$char_traits@D@std@@@std@@@std@@MEBA?AV?$ostreambuf_iterator@DU?$char_traits@D@std@@@2@V32@AEAVios_base@2@D_K@Z 000000018003f4b0     tfe_utils.obj
 0004:000004bc       $pdata$?do_put@?$num_put@DV?$ostreambuf_iterator@DU?$char_traits@D@std@@@std@@@std@@MEBA?AV?$ostreambuf_iterator@DU?$char_traits@D@std@@@2@V32@AEAVios_base@2@D_J@Z 000000018003f4bc     tfe_utils.obj
 0004:000004c8       $pdata$?do_put@?$num_put@DV?$ostreambuf_iterator@DU?$char_traits@D@std@@@std@@@std@@MEBA?AV?$ostreambuf_iterator@DU?$char_traits@D@std@@@2@V32@AEAVios_base@2@DK@Z 000000018003f4c8     tfe_utils.obj
 0004:000004d4       $pdata$?do_put@?$num_put@DV?$ostreambuf_iterator@DU?$char_traits@D@std@@@std@@@std@@MEBA?AV?$ostreambuf_iterator@DU?$char_traits@D@std@@@2@V32@AEAVios_base@2@DJ@Z 000000018003f4d4     tfe_utils.obj
 0004:000004e0       $pdata$?do_put@?$num_put@DV?$ostreambuf_iterator@DU?$char_traits@D@std@@@std@@@std@@MEBA?AV?$ostreambuf_iterator@DU?$char_traits@D@std@@@2@V32@AEAVios_base@2@D_N@Z 000000018003f4e0     tfe_utils.obj
 0004:000004ec       $pdata$1$?do_put@?$num_put@DV?$ostreambuf_iterator@DU?$char_traits@D@std@@@std@@@std@@MEBA?AV?$ostreambuf_iterator@DU?$char_traits@D@std@@@2@V32@AEAVios_base@2@D_N@Z 000000018003f4ec     tfe_utils.obj
 0004:000004f8       $pdata$2$?do_put@?$num_put@DV?$ostreambuf_iterator@DU?$char_traits@D@std@@@std@@@std@@MEBA?AV?$ostreambuf_iterator@DU?$char_traits@D@std@@@2@V32@AEAVios_base@2@D_N@Z 000000018003f4f8     tfe_utils.obj
 0004:00000504       $pdata$3$?do_put@?$num_put@DV?$ostreambuf_iterator@DU?$char_traits@D@std@@@std@@@std@@MEBA?AV?$ostreambuf_iterator@DU?$char_traits@D@std@@@2@V32@AEAVios_base@2@D_N@Z 000000018003f504     tfe_utils.obj
 0004:00000510       $pdata$4$?do_put@?$num_put@DV?$ostreambuf_iterator@DU?$char_traits@D@std@@@std@@@std@@MEBA?AV?$ostreambuf_iterator@DU?$char_traits@D@std@@@2@V32@AEAVios_base@2@D_N@Z 000000018003f510     tfe_utils.obj
 0004:0000051c       $pdata$5$?do_put@?$num_put@DV?$ostreambuf_iterator@DU?$char_traits@D@std@@@std@@@std@@MEBA?AV?$ostreambuf_iterator@DU?$char_traits@D@std@@@2@V32@AEAVios_base@2@D_N@Z 000000018003f51c     tfe_utils.obj
 0004:00000528       $pdata$?assign@?$basic_string@DU?$char_traits@D@std@@V?$allocator@D@2@@std@@QEAAAEAV12@_KD@Z 000000018003f528     tfe_utils.obj
 0004:00000534       $pdata$?assign@?$basic_string@DU?$char_traits@D@std@@V?$allocator@D@2@@std@@QEAAAEAV12@AEBV12@_K1@Z 000000018003f534     tfe_utils.obj
 0004:00000540       $pdata$?append@?$basic_string@DU?$char_traits@D@std@@V?$allocator@D@2@@std@@QEAAAEAV12@PEBD_K@Z 000000018003f540     tfe_utils.obj
 0004:0000054c       $pdata$0$?append@?$basic_string@DU?$char_traits@D@std@@V?$allocator@D@2@@std@@QEAAAEAV12@PEBD_K@Z 000000018003f54c     tfe_utils.obj
 0004:00000558       $pdata$1$?append@?$basic_string@DU?$char_traits@D@std@@V?$allocator@D@2@@std@@QEAAAEAV12@PEBD_K@Z 000000018003f558     tfe_utils.obj
 0004:00000564       $pdata$2$?append@?$basic_string@DU?$char_traits@D@std@@V?$allocator@D@2@@std@@QEAAAEAV12@PEBD_K@Z 000000018003f564     tfe_utils.obj
 0004:00000570       $pdata$?append@?$basic_string@DU?$char_traits@D@std@@V?$allocator@D@2@@std@@QEAAAEAV12@AEBV12@_K1@Z 000000018003f570     tfe_utils.obj
 0004:0000057c       $pdata$0$?append@?$basic_string@DU?$char_traits@D@std@@V?$allocator@D@2@@std@@QEAAAEAV12@AEBV12@_K1@Z 000000018003f57c     tfe_utils.obj
 0004:00000588       $pdata$1$?append@?$basic_string@DU?$char_traits@D@std@@V?$allocator@D@2@@std@@QEAAAEAV12@AEBV12@_K1@Z 000000018003f588     tfe_utils.obj
 0004:00000594       $pdata$2$?append@?$basic_string@DU?$char_traits@D@std@@V?$allocator@D@2@@std@@QEAAAEAV12@AEBV12@_K1@Z 000000018003f594     tfe_utils.obj
 0004:000005a0       $pdata$?_Assign_rv@?$basic_string@DU?$char_traits@D@std@@V?$allocator@D@2@@std@@QEAAX$$QEAV12@@Z 000000018003f5a0     tfe_utils.obj
 0004:000005ac       $pdata$?_Tidy@?$basic_stringbuf@DU?$char_traits@D@std@@V?$allocator@D@2@@std@@IEAAXXZ 000000018003f5ac     tfe_utils.obj
 0004:000005b8       $pdata$?str@?$basic_stringbuf@DU?$char_traits@D@std@@V?$allocator@D@2@@std@@QEBA?AV?$basic_string@DU?$char_traits@D@std@@V?$allocator@D@2@@2@XZ 000000018003f5b8     tfe_utils.obj
 0004:000005c4       $pdata$?allocate@?$allocator@D@std@@QEAAPEAD_K@Z 000000018003f5c4     tfe_utils.obj
 0004:000005d0       $pdata$?deallocate@?$allocator@D@std@@QEAAXPEAD_K@Z 000000018003f5d0     tfe_utils.obj
 0004:000005dc       $pdata$??_G?$num_put@DV?$ostreambuf_iterator@DU?$char_traits@D@std@@@std@@@std@@MEAAPEAXI@Z 000000018003f5dc     tfe_utils.obj
 0004:000005e8       $pdata$?do_truename@?$numpunct@D@std@@MEBA?AV?$basic_string@DU?$char_traits@D@std@@V?$allocator@D@2@@2@XZ 000000018003f5e8     tfe_utils.obj
 0004:000005f4       $pdata$?do_falsename@?$numpunct@D@std@@MEBA?AV?$basic_string@DU?$char_traits@D@std@@V?$allocator@D@2@@2@XZ 000000018003f5f4     tfe_utils.obj
 0004:00000600       $pdata$?do_grouping@?$numpunct@D@std@@MEBA?AV?$basic_string@DU?$char_traits@D@std@@V?$allocator@D@2@@2@XZ 000000018003f600     tfe_utils.obj
 0004:0000060c       $pdata$?erase@?$_Tree@V?$_Tset_traits@V?$basic_string@DU?$char_traits@D@std@@V?$allocator@D@2@@std@@U?$less@V?$basic_string@DU?$char_traits@D@std@@V?$allocator@D@2@@std@@@2@V?$allocator@V?$basic_string@DU?$char_traits@D@std@@V?$allocator@D@2@@std@@@2@$0A@@std@@@std@@QEAA?AV?$_Tree_const_iterator@V?$_Tree_val@U?$_Tree_simple_types@V?$basic_string@DU?$char_traits@D@std@@V?$allocator@D@2@@std@@@std@@@std@@@2@V32@0@Z 000000018003f60c     tfe_utils.obj
 0004:00000618       $pdata$?_Reallocate@?$vector@_JV?$allocator@_J@std@@@std@@IEAAX_K@Z 000000018003f618     tfe_utils.obj
 0004:00000624       $pdata$0$?_Reallocate@?$vector@_JV?$allocator@_J@std@@@std@@IEAAX_K@Z 000000018003f624     tfe_utils.obj
 0004:00000630       $pdata$1$?_Reallocate@?$vector@_JV?$allocator@_J@std@@@std@@IEAAX_K@Z 000000018003f630     tfe_utils.obj
 0004:0000063c       $pdata$2$?_Reallocate@?$vector@_JV?$allocator@_J@std@@@std@@IEAAX_K@Z 000000018003f63c     tfe_utils.obj
 0004:00000648       $pdata$?_Iput@?$num_put@DV?$ostreambuf_iterator@DU?$char_traits@D@std@@@std@@@std@@AEBA?AV?$ostreambuf_iterator@DU?$char_traits@D@std@@@2@V32@AEAVios_base@2@DPEAD_K@Z 000000018003f648     tfe_utils.obj
 0004:00000654       $pdata$?_Fput@?$num_put@DV?$ostreambuf_iterator@DU?$char_traits@D@std@@@std@@@std@@AEBA?AV?$ostreambuf_iterator@DU?$char_traits@D@std@@@2@V32@AEAVios_base@2@DPEBD_K@Z 000000018003f654     tfe_utils.obj
 0004:00000660       $pdata$?_Copy@?$basic_string@DU?$char_traits@D@std@@V?$allocator@D@2@@std@@QEAAX_K0@Z 000000018003f660     tfe_utils.obj
 0004:0000066c       $pdata$?erase@?$basic_string@DU?$char_traits@D@std@@V?$allocator@D@2@@std@@QEAAAEAV12@_K0@Z 000000018003f66c     tfe_utils.obj
 0004:00000678       $pdata$?append@?$basic_string@DU?$char_traits@D@std@@V?$allocator@D@2@@std@@QEAAAEAV12@_KD@Z 000000018003f678     tfe_utils.obj
 0004:00000684       $pdata$0$?append@?$basic_string@DU?$char_traits@D@std@@V?$allocator@D@2@@std@@QEAAAEAV12@_KD@Z 000000018003f684     tfe_utils.obj
 0004:00000690       $pdata$1$?append@?$basic_string@DU?$char_traits@D@std@@V?$allocator@D@2@@std@@QEAAAEAV12@_KD@Z 000000018003f690     tfe_utils.obj
 0004:0000069c       $pdata$2$?append@?$basic_string@DU?$char_traits@D@std@@V?$allocator@D@2@@std@@QEAAAEAV12@_KD@Z 000000018003f69c     tfe_utils.obj
 0004:000006a8       $pdata$?flush@?$basic_ostream@DU?$char_traits@D@std@@@std@@QEAAAEAV12@XZ 000000018003f6a8     tfe_utils.obj
 0004:000006b4       $pdata$0$?flush@?$basic_ostream@DU?$char_traits@D@std@@@std@@QEAAAEAV12@XZ 000000018003f6b4     tfe_utils.obj
 0004:000006c0       $pdata$1$?flush@?$basic_ostream@DU?$char_traits@D@std@@@std@@QEAAAEAV12@XZ 000000018003f6c0     tfe_utils.obj
 0004:000006cc       $pdata$??0?$basic_streambuf@DU?$char_traits@D@std@@@std@@IEAA@XZ 000000018003f6cc     tfe_utils.obj
 0004:000006d8       $pdata$?init@?$basic_ios@DU?$char_traits@D@std@@@std@@IEAAXPEAV?$basic_streambuf@DU?$char_traits@D@std@@@2@_N@Z 000000018003f6d8     tfe_utils.obj
 0004:000006e4       $pdata$??_G?$numpunct@D@std@@MEAAPEAXI@Z 000000018003f6e4     tfe_utils.obj
 0004:000006f0       $pdata$?clear@?$_Tree@V?$_Tset_traits@V?$basic_string@DU?$char_traits@D@std@@V?$allocator@D@2@@std@@U?$less@V?$basic_string@DU?$char_traits@D@std@@V?$allocator@D@2@@std@@@2@V?$allocator@V?$basic_string@DU?$char_traits@D@std@@V?$allocator@D@2@@std@@@2@$0A@@std@@@std@@QEAAXXZ 000000018003f6f0     tfe_utils.obj
 0004:000006fc       $pdata$?erase@?$_Tree@V?$_Tset_traits@V?$basic_string@DU?$char_traits@D@std@@V?$allocator@D@2@@std@@U?$less@V?$basic_string@DU?$char_traits@D@std@@V?$allocator@D@2@@std@@@2@V?$allocator@V?$basic_string@DU?$char_traits@D@std@@V?$allocator@D@2@@std@@@2@$0A@@std@@@std@@QEAA?AV?$_Tree_const_iterator@V?$_Tree_val@U?$_Tree_simple_types@V?$basic_string@DU?$char_traits@D@std@@V?$allocator@D@2@@std@@@std@@@std@@@2@V32@@Z 000000018003f6fc     tfe_utils.obj
 0004:00000708       $pdata$?_Erase@?$_Tree@V?$_Tset_traits@V?$basic_string@DU?$char_traits@D@std@@V?$allocator@D@2@@std@@U?$less@V?$basic_string@DU?$char_traits@D@std@@V?$allocator@D@2@@std@@@2@V?$allocator@V?$basic_string@DU?$char_traits@D@std@@V?$allocator@D@2@@std@@@2@$0A@@std@@@std@@IEAAXPEAU?$_Tree_node@V?$basic_string@DU?$char_traits@D@std@@V?$allocator@D@2@@std@@PEAX@2@@Z 000000018003f708     tfe_utils.obj
 0004:00000714       $pdata$??$use_facet@V?$ctype@D@std@@@std@@YAAEBV?$ctype@D@0@AEBVlocale@0@@Z 000000018003f714     tfe_utils.obj
 0004:00000720       $pdata$??$_Immortalize@V_Iostream_error_category@std@@@std@@YAAEAV_Iostream_error_category@0@XZ 000000018003f720     tfe_utils.obj
 0004:0000072c       $pdata$??$?6U?$char_traits@D@std@@@std@@YAAEAV?$basic_ostream@DU?$char_traits@D@std@@@0@AEAV10@PEBD@Z 000000018003f72c     tfe_utils.obj
 0004:00000738       $pdata$3$??$?6U?$char_traits@D@std@@@std@@YAAEAV?$basic_ostream@DU?$char_traits@D@std@@@0@AEAV10@PEBD@Z 000000018003f738     tfe_utils.obj
 0004:00000744       $pdata$4$??$?6U?$char_traits@D@std@@@std@@YAAEAV?$basic_ostream@DU?$char_traits@D@std@@@0@AEAV10@PEBD@Z 000000018003f744     tfe_utils.obj
 0004:00000750       $pdata$5$??$?6U?$char_traits@D@std@@@std@@YAAEAV?$basic_ostream@DU?$char_traits@D@std@@@0@AEAV10@PEBD@Z 000000018003f750     tfe_utils.obj
 0004:0000075c       $pdata$??$endl@DU?$char_traits@D@std@@@std@@YAAEAV?$basic_ostream@DU?$char_traits@D@std@@@0@AEAV10@@Z 000000018003f75c     tfe_utils.obj
 0004:00000768       $pdata$??$use_facet@V?$num_put@DV?$ostreambuf_iterator@DU?$char_traits@D@std@@@std@@@std@@@std@@YAAEBV?$num_put@DV?$ostreambuf_iterator@DU?$char_traits@D@std@@@std@@@0@AEBVlocale@0@@Z 000000018003f768     tfe_utils.obj
 0004:00000774       $pdata$??$use_facet@V?$numpunct@D@std@@@std@@YAAEBV?$numpunct@D@0@AEBVlocale@0@@Z 000000018003f774     tfe_utils.obj
 0004:00000780       $pdata$?_Getcat@?$numpunct@D@std@@SA_KPEAPEBVfacet@locale@2@PEBV42@@Z 000000018003f780     tfe_utils.obj
 0004:0000078c       $pdata$0$?_Getcat@?$numpunct@D@std@@SA_KPEAPEBVfacet@locale@2@PEBV42@@Z 000000018003f78c     tfe_utils.obj
 0004:00000798       $pdata$1$?_Getcat@?$numpunct@D@std@@SA_KPEAPEBVfacet@locale@2@PEBV42@@Z 000000018003f798     tfe_utils.obj
 0004:000007a4       $pdata$?put@?$basic_ostream@DU?$char_traits@D@std@@@std@@QEAAAEAV12@D@Z 000000018003f7a4     tfe_utils.obj
 0004:000007b0       $pdata$?_Init@?$numpunct@D@std@@IEAAXAEBV_Locinfo@2@_N@Z 000000018003f7b0     tfe_utils.obj
 0004:000007bc       $pdata$??$_Insert_nohint@V?$basic_string@DU?$char_traits@D@std@@V?$allocator@D@2@@std@@U_Nil@2@@?$_Tree@V?$_Tset_traits@V?$basic_string@DU?$char_traits@D@std@@V?$allocator@D@2@@std@@U?$less@V?$basic_string@DU?$char_traits@D@std@@V?$allocator@D@2@@std@@@2@V?$allocator@V?$basic_string@DU?$char_traits@D@std@@V?$allocator@D@2@@std@@@2@$0A@@std@@@std@@IEAA?AU?$pair@V?$_Tree_const_iterator@V?$_Tree_val@U?$_Tree_simple_types@V?$basic_string@DU?$char_traits@D@std@@V?$allocator@D@2@@std@@@std@@@std@@@std@@_N@1@_N$$QEAV?$basic_string@DU?$char_traits@D@std@@V?$allocator@D@2@@1@U_Nil@1@@Z 000000018003f7bc     tfe_utils.obj
 0004:000007c8       $pdata$0$??$_Insert_nohint@V?$basic_string@DU?$char_traits@D@std@@V?$allocator@D@2@@std@@U_Nil@2@@?$_Tree@V?$_Tset_traits@V?$basic_string@DU?$char_traits@D@std@@V?$allocator@D@2@@std@@U?$less@V?$basic_string@DU?$char_traits@D@std@@V?$allocator@D@2@@std@@@2@V?$allocator@V?$basic_string@DU?$char_traits@D@std@@V?$allocator@D@2@@std@@@2@$0A@@std@@@std@@IEAA?AU?$pair@V?$_Tree_const_iterator@V?$_Tree_val@U?$_Tree_simple_types@V?$basic_string@DU?$char_traits@D@std@@V?$allocator@D@2@@std@@@std@@@std@@@std@@_N@1@_N$$QEAV?$basic_string@DU?$char_traits@D@std@@V?$allocator@D@2@@1@U_Nil@1@@Z 000000018003f7c8     tfe_utils.obj
 0004:000007d4       $pdata$1$??$_Insert_nohint@V?$basic_string@DU?$char_traits@D@std@@V?$allocator@D@2@@std@@U_Nil@2@@?$_Tree@V?$_Tset_traits@V?$basic_string@DU?$char_traits@D@std@@V?$allocator@D@2@@std@@U?$less@V?$basic_string@DU?$char_traits@D@std@@V?$allocator@D@2@@std@@@2@V?$allocator@V?$basic_string@DU?$char_traits@D@std@@V?$allocator@D@2@@std@@@2@$0A@@std@@@std@@IEAA?AU?$pair@V?$_Tree_const_iterator@V?$_Tree_val@U?$_Tree_simple_types@V?$basic_string@DU?$char_traits@D@std@@V?$allocator@D@2@@std@@@std@@@std@@@std@@_N@1@_N$$QEAV?$basic_string@DU?$char_traits@D@std@@V?$allocator@D@2@@1@U_Nil@1@@Z 000000018003f7d4     tfe_utils.obj
 0004:000007e0       $pdata$??$_Insert_at@V?$basic_string@DU?$char_traits@D@std@@V?$allocator@D@2@@std@@U_Nil@2@@?$_Tree@V?$_Tset_traits@V?$basic_string@DU?$char_traits@D@std@@V?$allocator@D@2@@std@@U?$less@V?$basic_string@DU?$char_traits@D@std@@V?$allocator@D@2@@std@@@2@V?$allocator@V?$basic_string@DU?$char_traits@D@std@@V?$allocator@D@2@@std@@@2@$0A@@std@@@std@@IEAA?AV?$_Tree_const_iterator@V?$_Tree_val@U?$_Tree_simple_types@V?$basic_string@DU?$char_traits@D@std@@V?$allocator@D@2@@std@@@std@@@std@@@1@_NPEAU?$_Tree_node@V?$basic_string@DU?$char_traits@D@std@@V?$allocator@D@2@@std@@PEAX@1@$$QEAV?$basic_string@DU?$char_traits@D@std@@V?$allocator@D@2@@1@U_Nil@1@@Z 000000018003f7e0     tfe_utils.obj
 0004:000007ec       $pdata$0$??$_Insert_at@V?$basic_string@DU?$char_traits@D@std@@V?$allocator@D@2@@std@@U_Nil@2@@?$_Tree@V?$_Tset_traits@V?$basic_string@DU?$char_traits@D@std@@V?$allocator@D@2@@std@@U?$less@V?$basic_string@DU?$char_traits@D@std@@V?$allocator@D@2@@std@@@2@V?$allocator@V?$basic_string@DU?$char_traits@D@std@@V?$allocator@D@2@@std@@@2@$0A@@std@@@std@@IEAA?AV?$_Tree_const_iterator@V?$_Tree_val@U?$_Tree_simple_types@V?$basic_string@DU?$char_traits@D@std@@V?$allocator@D@2@@std@@@std@@@std@@@1@_NPEAU?$_Tree_node@V?$basic_string@DU?$char_traits@D@std@@V?$allocator@D@2@@std@@PEAX@1@$$QEAV?$basic_string@DU?$char_traits@D@std@@V?$allocator@D@2@@1@U_Nil@1@@Z 000000018003f7ec     tfe_utils.obj
 0004:000007f8       $pdata$1$??$_Insert_at@V?$basic_string@DU?$char_traits@D@std@@V?$allocator@D@2@@std@@U_Nil@2@@?$_Tree@V?$_Tset_traits@V?$basic_string@DU?$char_traits@D@std@@V?$allocator@D@2@@std@@U?$less@V?$basic_string@DU?$char_traits@D@std@@V?$allocator@D@2@@std@@@2@V?$allocator@V?$basic_string@DU?$char_traits@D@std@@V?$allocator@D@2@@std@@@2@$0A@@std@@@std@@IEAA?AV?$_Tree_const_iterator@V?$_Tree_val@U?$_Tree_simple_types@V?$basic_string@DU?$char_traits@D@std@@V?$allocator@D@2@@std@@@std@@@std@@@1@_NPEAU?$_Tree_node@V?$basic_string@DU?$char_traits@D@std@@V?$allocator@D@2@@std@@PEAX@1@$$QEAV?$basic_string@DU?$char_traits@D@std@@V?$allocator@D@2@@1@U_Nil@1@@Z 000000018003f7f8     tfe_utils.obj
 0004:00000804       $pdata$2$??$_Insert_at@V?$basic_string@DU?$char_traits@D@std@@V?$allocator@D@2@@std@@U_Nil@2@@?$_Tree@V?$_Tset_traits@V?$basic_string@DU?$char_traits@D@std@@V?$allocator@D@2@@std@@U?$less@V?$basic_string@DU?$char_traits@D@std@@V?$allocator@D@2@@std@@@2@V?$allocator@V?$basic_string@DU?$char_traits@D@std@@V?$allocator@D@2@@std@@@2@$0A@@std@@@std@@IEAA?AV?$_Tree_const_iterator@V?$_Tree_val@U?$_Tree_simple_types@V?$basic_string@DU?$char_traits@D@std@@V?$allocator@D@2@@std@@@std@@@std@@@1@_NPEAU?$_Tree_node@V?$basic_string@DU?$char_traits@D@std@@V?$allocator@D@2@@std@@PEAX@1@$$QEAV?$basic_string@DU?$char_traits@D@std@@V?$allocator@D@2@@1@U_Nil@1@@Z 000000018003f804     tfe_utils.obj
 0004:00000810       $pdata$3$??$_Insert_at@V?$basic_string@DU?$char_traits@D@std@@V?$allocator@D@2@@std@@U_Nil@2@@?$_Tree@V?$_Tset_traits@V?$basic_string@DU?$char_traits@D@std@@V?$allocator@D@2@@std@@U?$less@V?$basic_string@DU?$char_traits@D@std@@V?$allocator@D@2@@std@@@2@V?$allocator@V?$basic_string@DU?$char_traits@D@std@@V?$allocator@D@2@@std@@@2@$0A@@std@@@std@@IEAA?AV?$_Tree_const_iterator@V?$_Tree_val@U?$_Tree_simple_types@V?$basic_string@DU?$char_traits@D@std@@V?$allocator@D@2@@std@@@std@@@std@@@1@_NPEAU?$_Tree_node@V?$basic_string@DU?$char_traits@D@std@@V?$allocator@D@2@@std@@PEAX@1@$$QEAV?$basic_string@DU?$char_traits@D@std@@V?$allocator@D@2@@1@U_Nil@1@@Z 000000018003f810     tfe_utils.obj
 0004:0000081c       $pdata$??$construct@V?$basic_string@DU?$char_traits@D@std@@V?$allocator@D@2@@std@@V12@@?$_Wrap_alloc@V?$allocator@U?$_Tree_node@V?$basic_string@DU?$char_traits@D@std@@V?$allocator@D@2@@std@@PEAX@std@@@std@@@std@@QEAAXPEAV?$basic_string@DU?$char_traits@D@std@@V?$allocator@D@2@@1@$$QEAV21@@Z 000000018003f81c     tfe_utils.obj
 0004:00000828       $pdata$??0TFJSBackend@tfnodejs@@AEAA@PEAUnapi_env__@@@Z 000000018003f828     tfjs_backend.obj
 0004:00000834       $pdata$?InsertHandle@TFJSBackend@tfnodejs@@AEAAHPEAUTFE_TensorHandle@@@Z 000000018003f834     tfjs_backend.obj
 0004:00000840       $pdata$?CreateTensor@TFJSBackend@tfnodejs@@QEAAPEAUnapi_value__@@PEAUnapi_env__@@PEAU3@11@Z 000000018003f840     tfjs_backend.obj
 0004:0000084c       $pdata$3$?CreateTensor@TFJSBackend@tfnodejs@@QEAAPEAUnapi_value__@@PEAUnapi_env__@@PEAU3@11@Z 000000018003f84c     tfjs_backend.obj
 0004:00000858       $pdata$4$?CreateTensor@TFJSBackend@tfnodejs@@QEAAPEAUnapi_value__@@PEAUnapi_env__@@PEAU3@11@Z 000000018003f858     tfjs_backend.obj
 0004:00000864       $pdata$?DeleteTensor@TFJSBackend@tfnodejs@@QEAAXPEAUnapi_env__@@PEAUnapi_value__@@@Z 000000018003f864     tfjs_backend.obj
 0004:00000870       $pdata$0$?DeleteTensor@TFJSBackend@tfnodejs@@QEAAXPEAUnapi_env__@@PEAUnapi_value__@@@Z 000000018003f870     tfjs_backend.obj
 0004:0000087c       $pdata$2$?DeleteTensor@TFJSBackend@tfnodejs@@QEAAXPEAUnapi_env__@@PEAUnapi_value__@@@Z 000000018003f87c     tfjs_backend.obj
 0004:00000888       $pdata$3$?DeleteTensor@TFJSBackend@tfnodejs@@QEAAXPEAUnapi_env__@@PEAUnapi_value__@@@Z 000000018003f888     tfjs_backend.obj
 0004:00000894       $pdata$?GetTensorData@TFJSBackend@tfnodejs@@QEAAPEAUnapi_value__@@PEAUnapi_env__@@PEAU3@@Z 000000018003f894     tfjs_backend.obj
 0004:000008a0       $pdata$?ExecuteOp@TFJSBackend@tfnodejs@@QEAAPEAUnapi_value__@@PEAUnapi_env__@@PEAU3@111@Z 000000018003f8a0     tfjs_backend.obj
 0004:000008ac       $pdata$?erase@?$_Tree@V?$_Tmap_traits@HPEAUTFE_TensorHandle@@U?$less@H@std@@V?$allocator@U?$pair@$$CBHPEAUTFE_TensorHandle@@@std@@@3@$0A@@std@@@std@@QEAA?AV?$_Tree_iterator@V?$_Tree_val@U?$_Tree_simple_types@U?$pair@$$CBHPEAUTFE_TensorHandle@@@std@@@std@@@std@@@2@V?$_Tree_const_iterator@V?$_Tree_val@U?$_Tree_simple_types@U?$pair@$$CBHPEAUTFE_TensorHandle@@@std@@@std@@@std@@@2@@Z 000000018003f8ac     tfjs_backend.obj
 0004:000008b8       $pdata$1$?erase@?$_Tree@V?$_Tmap_traits@HPEAUTFE_TensorHandle@@U?$less@H@std@@V?$allocator@U?$pair@$$CBHPEAUTFE_TensorHandle@@@std@@@3@$0A@@std@@@std@@QEAA?AV?$_Tree_iterator@V?$_Tree_val@U?$_Tree_simple_types@U?$pair@$$CBHPEAUTFE_TensorHandle@@@std@@@std@@@std@@@2@V?$_Tree_const_iterator@V?$_Tree_val@U?$_Tree_simple_types@U?$pair@$$CBHPEAUTFE_TensorHandle@@@std@@@std@@@std@@@2@@Z 000000018003f8b8     tfjs_backend.obj
 0004:000008c4       $pdata$2$?erase@?$_Tree@V?$_Tmap_traits@HPEAUTFE_TensorHandle@@U?$less@H@std@@V?$allocator@U?$pair@$$CBHPEAUTFE_TensorHandle@@@std@@@3@$0A@@std@@@std@@QEAA?AV?$_Tree_iterator@V?$_Tree_val@U?$_Tree_simple_types@U?$pair@$$CBHPEAUTFE_TensorHandle@@@std@@@std@@@std@@@2@V?$_Tree_const_iterator@V?$_Tree_val@U?$_Tree_simple_types@U?$pair@$$CBHPEAUTFE_TensorHandle@@@std@@@std@@@std@@@2@@Z 000000018003f8c4     tfjs_backend.obj
 0004:000008d0       $pdata$?_Construct_n@?$vector@PEAUTFE_TensorHandle@@V?$allocator@PEAUTFE_TensorHandle@@@std@@@std@@QEAAX_KPEBQEAUTFE_TensorHandle@@@Z 000000018003f8d0     tfjs_backend.obj
 0004:000008dc       $pdata$0$?_Construct_n@?$vector@PEAUTFE_TensorHandle@@V?$allocator@PEAUTFE_TensorHandle@@@std@@@std@@QEAAX_KPEBQEAUTFE_TensorHandle@@@Z 000000018003f8dc     tfjs_backend.obj
 0004:000008e8       $pdata$1$?_Construct_n@?$vector@PEAUTFE_TensorHandle@@V?$allocator@PEAUTFE_TensorHandle@@@std@@@std@@QEAAX_KPEBQEAUTFE_TensorHandle@@@Z 000000018003f8e8     tfjs_backend.obj
 0004:000008f4       $pdata$2$?_Construct_n@?$vector@PEAUTFE_TensorHandle@@V?$allocator@PEAUTFE_TensorHandle@@@std@@@std@@QEAAX_KPEBQEAUTFE_TensorHandle@@@Z 000000018003f8f4     tfjs_backend.obj
 0004:00000900       $pdata$??$_Insert_nohint@AEAU?$pair@$$CBHPEAUTFE_TensorHandle@@@std@@PEAU?$_Tree_node@U?$pair@$$CBHPEAUTFE_TensorHandle@@@std@@PEAX@2@@?$_Tree@V?$_Tmap_traits@HPEAUTFE_TensorHandle@@U?$less@H@std@@V?$allocator@U?$pair@$$CBHPEAUTFE_TensorHandle@@@std@@@3@$0A@@std@@@std@@IEAA?AU?$pair@V?$_Tree_iterator@V?$_Tree_val@U?$_Tree_simple_types@U?$pair@$$CBHPEAUTFE_TensorHandle@@@std@@@std@@@std@@@std@@_N@1@_NAEAU?$pair@$$CBHPEAUTFE_TensorHandle@@@1@PEAU?$_Tree_node@U?$pair@$$CBHPEAUTFE_TensorHandle@@@std@@PEAX@1@@Z 000000018003f900     tfjs_backend.obj
 0004:0000090c       $pdata$??$_Insert_at@AEAU?$pair@$$CBHPEAUTFE_TensorHandle@@@std@@PEAU?$_Tree_node@U?$pair@$$CBHPEAUTFE_TensorHandle@@@std@@PEAX@2@@?$_Tree@V?$_Tmap_traits@HPEAUTFE_TensorHandle@@U?$less@H@std@@V?$allocator@U?$pair@$$CBHPEAUTFE_TensorHandle@@@std@@@3@$0A@@std@@@std@@IEAA?AV?$_Tree_iterator@V?$_Tree_val@U?$_Tree_simple_types@U?$pair@$$CBHPEAUTFE_TensorHandle@@@std@@@std@@@std@@@1@_NPEAU?$_Tree_node@U?$pair@$$CBHPEAUTFE_TensorHandle@@@std@@PEAX@1@AEAU?$pair@$$CBHPEAUTFE_TensorHandle@@@1@1@Z 000000018003f90c     tfjs_backend.obj
 0004:00000918       $pdata$?EnsureValueIsNumber@tfnodejs@@YA_NPEAUnapi_env__@@PEAUnapi_value__@@PEBD_K@Z 000000018003f918     tfjs_binding.obj
 0004:00000924       $pdata$?EnsureValueIsArray@tfnodejs@@YA_NPEAUnapi_env__@@PEAUnapi_value__@@PEBD_K@Z 000000018003f924     tfjs_binding.obj
 0004:00000930       $pdata$?AssignIntProperty@tfnodejs@@YAXPEAUnapi_env__@@PEAUnapi_value__@@PEBDH@Z 000000018003f930     tfjs_binding.obj
 0004:0000093c       $pdata$?CreateTensor@tfnodejs@@YAPEAUnapi_value__@@PEAUnapi_env__@@PEAUnapi_callback_info__@@@Z 000000018003f93c     tfjs_binding.obj
 0004:00000948       $pdata$?DeleteTensor@tfnodejs@@YAPEAUnapi_value__@@PEAUnapi_env__@@PEAUnapi_callback_info__@@@Z 000000018003f948     tfjs_binding.obj
 0004:00000954       $pdata$?TensorDataSync@tfnodejs@@YAPEAUnapi_value__@@PEAUnapi_env__@@PEAUnapi_callback_info__@@@Z 000000018003f954     tfjs_binding.obj
 0004:00000960       $pdata$?ExecuteOp@tfnodejs@@YAPEAUnapi_value__@@PEAUnapi_env__@@PEAUnapi_callback_info__@@@Z 000000018003f960     tfjs_binding.obj
 0004:0000096c       $pdata$?InitTFNodeJSBinding@tfnodejs@@YAPEAUnapi_value__@@PEAUnapi_env__@@PEAU2@@Z 000000018003f96c     tfjs_binding.obj
 0004:00000978       $pdata$?load_exe_hook@@YAP6A_JXZIPEAUDelayLoadInfo@@@Z 000000018003f978     win_delay_load_hook.obj
 0004:00000990       $pdata$??0_Init_locks@std@@QEAA@XZ 000000018003f990     libcpmt:xlock.obj
 0004:0000099c       $pdata$??0_Lockit@std@@QEAA@H@Z 000000018003f99c     libcpmt:xlock.obj
 0004:000009a8       $pdata$??1_Init_locks@std@@QEAA@XZ 000000018003f9a8     libcpmt:xlock.obj
 0004:000009b4       $pdata$??1_Lockit@std@@QEAA@XZ 000000018003f9b4     libcpmt:xlock.obj
 0004:000009c0       $pdata$??4?$_Yarn@D@std@@QEAAAEAV01@PEBD@Z 000000018003f9c0     libcpmt:locale0.obj
 0004:000009cc       $pdata$??_G_Fac_node@std@@QEAAPEAXI@Z 000000018003f9cc     libcpmt:locale0.obj
 0004:000009d8       $pdata$??_G_Locimp@locale@std@@MEAAPEAXI@Z 000000018003f9d8     libcpmt:locale0.obj
 0004:000009e4       $pdata$?_Facet_Register@std@@YAXPEAV_Facet_base@1@@Z 000000018003f9e4     libcpmt:locale0.obj
 0004:000009f0       $pdata$?_Init@locale@std@@CAPEAV_Locimp@12@_N@Z 000000018003f9f0     libcpmt:locale0.obj
 0004:000009fc       $pdata$?_Locimp_dtor@_Locimp@locale@std@@CAXPEAV123@@Z 000000018003f9fc     libcpmt:locale0.obj
 0004:00000a08       $pdata$?_Locinfo_ctor@_Locinfo@std@@SAXPEAV12@PEBD@Z 000000018003fa08     libcpmt:locale0.obj
 0004:00000a14       $pdata$?_Locinfo_dtor@_Locinfo@std@@SAXPEAV12@@Z 000000018003fa14     libcpmt:locale0.obj
 0004:00000a20       $pdata$?_New_Locimp@_Locimp@locale@std@@CAPEAV123@_N@Z 000000018003fa20     libcpmt:locale0.obj
 0004:00000a2c       $pdata$?_Setgloballocale@locale@std@@CAXPEAX@Z 000000018003fa2c     libcpmt:locale0.obj
 0004:00000a38       $pdata$_Deletegloballocale 000000018003fa38     libcpmt:locale0.obj
 0004:00000a44       $pdata$tidy_global         000000018003fa44     libcpmt:locale0.obj
 0004:00000a50       $pdata$??0bad_alloc@std@@QEAA@AEBV01@@Z 000000018003fa50     libcpmt:xthrow.obj
 0004:00000a5c       $pdata$??0exception@std@@QEAA@AEBV01@@Z 000000018003fa5c     libcpmt:xthrow.obj
 0004:00000a68       $pdata$??0length_error@std@@QEAA@AEBV01@@Z 000000018003fa68     libcpmt:xthrow.obj
 0004:00000a74       $pdata$??0length_error@std@@QEAA@PEBD@Z 000000018003fa74     libcpmt:xthrow.obj
 0004:00000a80       $pdata$??0logic_error@std@@QEAA@AEBV01@@Z 000000018003fa80     libcpmt:xthrow.obj
 0004:00000a8c       $pdata$??0out_of_range@std@@QEAA@AEBV01@@Z 000000018003fa8c     libcpmt:xthrow.obj
 0004:00000a98       $pdata$??0out_of_range@std@@QEAA@PEBD@Z 000000018003fa98     libcpmt:xthrow.obj
 0004:00000aa4       $pdata$?_Xlength_error@std@@YAXPEBD@Z 000000018003faa4     libcpmt:xthrow.obj
 0004:00000ab0       $pdata$?_Xout_of_range@std@@YAXPEBD@Z 000000018003fab0     libcpmt:xthrow.obj
 0004:00000abc       $pdata$?_Ios_base_dtor@ios_base@std@@CAXPEAV12@@Z 000000018003fabc     libcpmt:ios.obj
 0004:00000ac8       $pdata$?_Tidy@ios_base@std@@AEAAXXZ 000000018003fac8     libcpmt:ios.obj
 0004:00000ad4       $pdata$_Getctype           000000018003fad4     libcpmt:_tolower.obj
 0004:00000ae0       $pdata$_Tolower            000000018003fae0     libcpmt:_tolower.obj
 0004:00000aec       $pdata$_Getcvt             000000018003faec     libcpmt:xwctomb.obj
 0004:00000af8       $pdata$_Toupper            000000018003faf8     libcpmt:_toupper.obj
 0004:00000b04       $pdata$?_Atexit@@YAXP6AXXZ@Z 000000018003fb04     libcpmt:iosptrs.obj
 0004:00000b10       $pdata$__crtLCMapStringA   000000018003fb10     libcpmt:StlLCMapStringA.obj
 0004:00000b1c       $pdata$?initialize_pointers@@YAHXZ 000000018003fb1c     libcpmt:winapisupp.obj
 0004:00000b28       $pdata$__crtInitializeCriticalSectionEx 000000018003fb28     libcpmt:winapisupp.obj
 0004:00000b34       $pdata$GetTableIndexFromLocaleName 000000018003fb34     libcpmt:winapinls.obj
 0004:00000b40       $pdata$__crtDownlevelLocaleNameToLCID 000000018003fb40     libcpmt:winapinls.obj
 0004:00000b4c       $pdata$__crtLCMapStringEx  000000018003fb4c     libcpmt:winapinls.obj
 0004:00000b64       $pdata$?__scrt_initialize_thread_safe_statics@@YAHXZ 000000018003fb64     LIBCMT:thread_safe_statics.obj
 0004:00000b70       $pdata$?__scrt_uninitialize_thread_safe_statics@@YAXXZ 000000018003fb70     LIBCMT:thread_safe_statics.obj
 0004:00000b7c       $pdata$_Init_thread_footer 000000018003fb7c     LIBCMT:thread_safe_statics.obj
 0004:00000b88       $pdata$_Init_thread_header 000000018003fb88     LIBCMT:thread_safe_statics.obj
 0004:00000b94       $pdata$_Init_thread_notify 000000018003fb94     LIBCMT:thread_safe_statics.obj
 0004:00000ba0       $pdata$_Init_thread_wait   000000018003fba0     LIBCMT:thread_safe_statics.obj
 0004:00000bac       $pdata$??2@YAPEAX_K@Z      000000018003fbac     LIBCMT:new_scalar.obj
 0004:00000bb8       $pdata$__scrt_acquire_startup_lock 000000018003fbb8     LIBCMT:utility.obj
 0004:00000bc4       $pdata$__scrt_dllmain_after_initialize_c 000000018003fbc4     LIBCMT:utility.obj
 0004:00000bd0       $pdata$__scrt_dllmain_before_initialize_c 000000018003fbd0     LIBCMT:utility.obj
 0004:00000bdc       $pdata$__scrt_dllmain_crt_thread_attach 000000018003fbdc     LIBCMT:utility.obj
 0004:00000be8       $pdata$__scrt_dllmain_crt_thread_detach 000000018003fbe8     LIBCMT:utility.obj
 0004:00000bf4       $pdata$__scrt_dllmain_exception_filter 000000018003fbf4     LIBCMT:utility.obj
 0004:00000c00       $pdata$__scrt_dllmain_uninitialize_c 000000018003fc00     LIBCMT:utility.obj
 0004:00000c0c       $pdata$__scrt_dllmain_uninitialize_critical 000000018003fc0c     LIBCMT:utility.obj
 0004:00000c18       $pdata$__scrt_initialize_crt 000000018003fc18     LIBCMT:utility.obj
 0004:00000c24       $pdata$__scrt_initialize_onexit_tables 000000018003fc24     LIBCMT:utility.obj
 0004:00000c30       $pdata$__scrt_is_nonwritable_in_current_image 000000018003fc30     LIBCMT:utility.obj
 0004:00000c3c       $pdata$__scrt_release_startup_lock 000000018003fc3c     LIBCMT:utility.obj
 0004:00000c48       $pdata$__scrt_uninitialize_crt 000000018003fc48     LIBCMT:utility.obj
 0004:00000c54       $pdata$_onexit             000000018003fc54     LIBCMT:utility.obj
 0004:00000c60       $pdata$atexit              000000018003fc60     LIBCMT:utility.obj
 0004:00000c6c       $pdata$?dllmain_crt_dispatch@@YAHQEAUHINSTANCE__@@KQEAX@Z 000000018003fc6c     LIBCMT:dll_dllmain.obj
 0004:00000c78       $pdata$?dllmain_crt_process_attach@@YAHQEAUHINSTANCE__@@QEAX@Z 000000018003fc78     LIBCMT:dll_dllmain.obj
 0004:00000c84       $pdata$?dllmain_crt_process_detach@@YAH_N@Z 000000018003fc84     LIBCMT:dll_dllmain.obj
 0004:00000c90       $pdata$?dllmain_dispatch@@YAHQEAUHINSTANCE__@@KQEAX@Z 000000018003fc90     LIBCMT:dll_dllmain.obj
 0004:00000c9c       $pdata$?dllmain_raw@@YAHQEAUHINSTANCE__@@KQEAX@Z 000000018003fc9c     LIBCMT:dll_dllmain.obj
 0004:00000ca8       $pdata$_DllMainCRTStartup  000000018003fca8     LIBCMT:dll_dllmain.obj
 0004:00000cb4       $pdata$??_Gtype_info@@UEAAPEAXI@Z 000000018003fcb4     LIBCMT:std_type_info_static.obj
 0004:00000cc0       $pdata$__GSHandlerCheck    000000018003fcc0     LIBCMT:_gshandler_.obj
 0004:00000ccc       $pdata$__GSHandlerCheckCommon 000000018003fccc     LIBCMT:_gshandler_.obj
 0004:00000ce4       $pdata$__raise_securityfailure 000000018003fce4     LIBCMT:gs_report.obj
 0004:00000cf0       $pdata$__report_gsfailure  000000018003fcf0     LIBCMT:gs_report.obj
 0004:00000cfc       $pdata$__report_rangecheckfailure 000000018003fcfc     LIBCMT:gs_report.obj
 0004:00000d08       $pdata$__report_securityfailure 000000018003fd08     LIBCMT:gs_report.obj
 0004:00000d14       $pdata$capture_current_context 000000018003fd14     LIBCMT:gs_report.obj
 0004:00000d20       $pdata$capture_previous_context 000000018003fd20     LIBCMT:gs_report.obj
 0004:00000d2c       $pdata$__scrt_fastfail     000000018003fd2c     LIBCMT:utility_desktop.obj
 0004:00000d38       $pdata$??0bad_array_new_length@std@@QEAA@AEBV01@@Z 000000018003fd38     LIBCMT:throw_bad_alloc.obj
 0004:00000d44       $pdata$?_Xbad_alloc@std@@YAXXZ 000000018003fd44     libcpmt:xthrow.obj
 0004:00000d44       $pdata$?__scrt_throw_std_bad_alloc@@YAXXZ 000000018003fd44     LIBCMT:throw_bad_alloc.obj
 0004:00000d50       $pdata$?__scrt_throw_std_bad_array_new_length@@YAXXZ 000000018003fd50     LIBCMT:throw_bad_alloc.obj
 0004:00000d5c       $pdata$__isa_available_init 000000018003fd5c     LIBCMT:_cpu_disp_.obj
 0004:00000d68       $pdata$__security_init_cookie 000000018003fd68     LIBCMT:gs_support.obj
 0004:00000d74       $pdata$__scrt_initialize_default_local_stdio_options 000000018003fd74     LIBCMT:default_local_stdio_options.obj
 0004:00000d80       $pdata$_RTC_Initialize     000000018003fd80     LIBCMT:_initsect_.obj
 0004:00000d8c       $pdata$_RTC_Terminate      000000018003fd8c     LIBCMT:_initsect_.obj
 0004:00000da4       $pdata$_purecall           000000018003fda4     libvcruntime:purevirt.obj
 0004:00000db0       $pdata$__DestructExceptionObject 000000018003fdb0     libvcruntime:frame.obj
 0004:00000dbc       $pdata$??0bad_exception@std@@QEAA@AEBV01@@Z 000000018003fdbc     libvcruntime:frame.obj
 0004:00000dc8       $pdata$??_Gout_of_range@std@@UEAAPEAXI@Z 000000018003fdc8     libcpmt:xthrow.obj
 0004:00000dc8       $pdata$??_Gbad_alloc@std@@UEAAPEAXI@Z 000000018003fdc8     libcpmt:xthrow.obj
 0004:00000dc8       $pdata$??_Gexception@std@@UEAAPEAXI@Z 000000018003fdc8     libcpmt:xthrow.obj
 0004:00000dc8       $pdata$??_Glength_error@std@@UEAAPEAXI@Z 000000018003fdc8     libcpmt:xthrow.obj
 0004:00000dc8       $pdata$??_Gbad_exception@std@@UEAAPEAXI@Z 000000018003fdc8     libvcruntime:frame.obj
 0004:00000dc8       $pdata$??_Gbad_array_new_length@std@@UEAAPEAXI@Z 000000018003fdc8     LIBCMT:throw_bad_alloc.obj
 0004:00000dc8       $pdata$??_Glogic_error@std@@UEAAPEAXI@Z 000000018003fdc8     libcpmt:xthrow.obj
 0004:00000dd4       $pdata$?CatchIt@@YAXPEAUEHExceptionRecord@@PEA_KPEAU_CONTEXT@@PEAU_xDISPATCHER_CONTEXT@@PEBU_s_FuncInfo@@PEBU_s_HandlerType@@PEBU_s_CatchableType@@PEBU_s_TryBlockMapEntry@@H1EE@Z 000000018003fdd4     libvcruntime:frame.obj
 0004:00000de0       $pdata$?ExFilterRethrow@@YAHPEAU_EXCEPTION_POINTERS@@PEAUEHExceptionRecord@@PEAH@Z 000000018003fde0     libvcruntime:frame.obj
 0004:00000dec       $pdata$?FindHandler@@YAXPEAUEHExceptionRecord@@PEA_KPEAU_CONTEXT@@PEAU_xDISPATCHER_CONTEXT@@PEBU_s_FuncInfo@@EH1@Z 000000018003fdec     libvcruntime:frame.obj
 0004:00000df8       $pdata$?FindHandlerForForeignException@@YAXPEAUEHExceptionRecord@@PEA_KPEAU_CONTEXT@@PEAU_xDISPATCHER_CONTEXT@@PEBU_s_FuncInfo@@HH1@Z 000000018003fdf8     libvcruntime:frame.obj
 0004:00000e04       $pdata$?IsInExceptionSpec@@YAEPEAUEHExceptionRecord@@PEBU_s_ESTypeList@@@Z 000000018003fe04     libvcruntime:frame.obj
 0004:00000e10       $pdata$__BuildCatchObject  000000018003fe10     libvcruntime:frame.obj
 0004:00000e1c       $pdata$__BuildCatchObjectHelper 000000018003fe1c     libvcruntime:frame.obj
 0004:00000e28       $pdata$__CxxCallCatchBlock 000000018003fe28     libvcruntime:frame.obj
 0004:00000e34       $pdata$__FrameUnwindFilter 000000018003fe34     libvcruntime:frame.obj
 0004:00000e40       $pdata$__FrameUnwindToState 000000018003fe40     libvcruntime:frame.obj
 0004:00000e4c       $pdata$__InternalCxxFrameHandler 000000018003fe4c     libvcruntime:frame.obj
 0004:00000e58       $pdata$__TypeMatch         000000018003fe58     libvcruntime:frame.obj
 0004:00000e64       $pdata$__std_terminate     000000018003fe64     libvcruntime:frame.obj
 0004:00000e70       $pdata$?_ExecutionInCatch@@YAHPEAU_xDISPATCHER_CONTEXT@@PEBU_s_FuncInfo@@@Z 000000018003fe70     libvcruntime:trnsctrl.obj
 0004:00000e7c       $pdata$?_GetEstablisherFrame@@YAPEA_KPEA_KPEAU_xDISPATCHER_CONTEXT@@PEBU_s_FuncInfo@@0@Z 000000018003fe7c     libvcruntime:trnsctrl.obj
 0004:00000e88       $pdata$?_GetRangeOfTrysToCheck@@YAPEBU_s_TryBlockMapEntry@@PEA_KPEBU_s_FuncInfo@@HHPEAI2PEAU_xDISPATCHER_CONTEXT@@@Z 000000018003fe88     libvcruntime:trnsctrl.obj
 0004:00000e94       $pdata$?__FrameUnwindToEmptyState@@YAXPEA_KPEAU_xDISPATCHER_CONTEXT@@PEBU_s_FuncInfo@@@Z 000000018003fe94     libvcruntime:trnsctrl.obj
 0004:00000ea0       $pdata$?__SehTransFilter@@YAHPEAU_EXCEPTION_POINTERS@@PEAUEHExceptionRecord@@PEA_KPEAU_CONTEXT@@PEAU_xDISPATCHER_CONTEXT@@PEBU_s_FuncInfo@@PEAH@Z 000000018003fea0     libvcruntime:trnsctrl.obj
 0004:00000eac       $pdata$_CallSETranslator   000000018003feac     libvcruntime:trnsctrl.obj
 0004:00000eb8       $pdata$_CreateFrameInfo    000000018003feb8     libvcruntime:trnsctrl.obj
 0004:00000ec4       $pdata$_FindAndUnlinkFrame 000000018003fec4     libvcruntime:trnsctrl.obj
 0004:00000ed0       $pdata$_GetImageBase       000000018003fed0     libvcruntime:trnsctrl.obj
 0004:00000edc       $pdata$_GetThrowImageBase  000000018003fedc     libvcruntime:trnsctrl.obj
 0004:00000ee8       $pdata$_IsExceptionObjectToBeDestroyed 000000018003fee8     libvcruntime:trnsctrl.obj
 0004:00000ef4       $pdata$_SetImageBase       000000018003fef4     libvcruntime:trnsctrl.obj
 0004:00000f00       $pdata$_SetThrowImageBase  000000018003ff00     libvcruntime:trnsctrl.obj
 0004:00000f0c       $pdata$_UnwindNestedFrames 000000018003ff0c     libvcruntime:trnsctrl.obj
 0004:00000f18       $pdata$__CxxFrameHandler3  000000018003ff18     libvcruntime:trnsctrl.obj
 0004:00000f24       $pdata$__std_exception_copy 000000018003ff24     libvcruntime:std_exception.obj
 0004:00000f30       $pdata$__std_exception_destroy 000000018003ff30     libvcruntime:std_exception.obj
 0004:00000f3c       $pdata$_CxxThrowException  000000018003ff3c     libvcruntime:throw.obj
 0004:00000f60       $pdata$?try_get_function@@YAPEAXW4function_id@?A0x679b24ab@@QEBDQEBW4module_id@2@2@Z 000000018003ff60     libvcruntime:winapi_downlevel.obj
 0004:00000f6c       $pdata$__vcrt_FlsAlloc     000000018003ff6c     libvcruntime:winapi_downlevel.obj
 0004:00000f78       $pdata$__vcrt_FlsFree      000000018003ff78     libvcruntime:winapi_downlevel.obj
 0004:00000f84       $pdata$__vcrt_FlsGetValue  000000018003ff84     libvcruntime:winapi_downlevel.obj
 0004:00000f90       $pdata$__vcrt_FlsSetValue  000000018003ff90     libvcruntime:winapi_downlevel.obj
 0004:00000f9c       $pdata$__vcrt_InitializeCriticalSectionEx 000000018003ff9c     libvcruntime:winapi_downlevel.obj
 0004:00000fa8       $pdata$__vcrt_uninitialize_winapi_thunks 000000018003ffa8     libvcruntime:winapi_downlevel.obj
 0004:00000fb4       $pdata$__vcrt_initialize   000000018003ffb4     libvcruntime:initialization.obj
 0004:00000fc0       $pdata$__vcrt_thread_attach 000000018003ffc0     libvcruntime:initialization.obj
 0004:00000fcc       $pdata$__vcrt_thread_detach 000000018003ffcc     libvcruntime:initialization.obj
 0004:00000fd8       $pdata$__vcrt_uninitialize 000000018003ffd8     libvcruntime:initialization.obj
 0004:00000fe4       $pdata$__vcrt_uninitialize_critical 000000018003ffe4     libvcruntime:initialization.obj
 0004:00000ff0       $pdata$__C_specific_handler 000000018003fff0     libvcruntime:_chandler_.obj
 0004:00000ffc       $pdata$__std_type_info_destroy_list 000000018003fffc     libvcruntime:std_type_info.obj
 0004:00001008       $pdata$__vcrt_freefls      0000000180040008     libvcruntime:per_thread_data.obj
 0004:00001014       $pdata$__vcrt_freeptd      0000000180040014     libvcruntime:per_thread_data.obj
 0004:00001020       $pdata$__vcrt_getptd       0000000180040020     libvcruntime:per_thread_data.obj
 0004:0000102c       $pdata$__vcrt_getptd_noexit 000000018004002c     libvcruntime:per_thread_data.obj
 0004:00001038       $pdata$__vcrt_initialize_ptd 0000000180040038     libvcruntime:per_thread_data.obj
 0004:00001044       $pdata$__vcrt_uninitialize_ptd 0000000180040044     libvcruntime:per_thread_data.obj
 0004:00001050       $pdata$?__GetCurrentState@@YAHPEA_KPEAU_xDISPATCHER_CONTEXT@@PEBU_s_FuncInfo@@@Z 0000000180040050     libvcruntime:ehstate.obj
 0004:0000105c       $pdata$?__GetUnwindTryBlock@@YAHPEA_KPEAU_xDISPATCHER_CONTEXT@@PEBU_s_FuncInfo@@@Z 000000018004005c     libvcruntime:ehstate.obj
 0004:00001068       $pdata$?__SetUnwindTryBlock@@YAXPEA_KPEAU_xDISPATCHER_CONTEXT@@PEBU_s_FuncInfo@@H@Z 0000000180040068     libvcruntime:ehstate.obj
 0004:00001074       $pdata$?__StateFromIp@@YAHPEBU_s_FuncInfo@@PEAU_xDISPATCHER_CONTEXT@@_J@Z 0000000180040074     libvcruntime:ehstate.obj
 0004:000010bc       $pdata$__vcrt_initialize_locks 00000001800400bc     libvcruntime:locks.obj
 0004:000010c8       $pdata$__vcrt_uninitialize_locks 00000001800400c8     libvcruntime:locks.obj
 0004:000010d4       $pdata$abort               00000001800400d4     libucrt:abort.obj
 0004:000010e0       $pdata$__acrt_initialize_stdio 00000001800400e0     libucrt:_file.obj
 0004:000010ec       $pdata$__acrt_uninitialize_stdio 00000001800400ec     libucrt:_file.obj
 0004:000010f8       $pdata$__acrt_call_reportfault 00000001800400f8     libucrt:invalid_parameter.obj
 0004:00001104       $pdata$_invalid_parameter  0000000180040104     libucrt:invalid_parameter.obj
 0004:00001110       $pdata$_invalid_parameter_noinfo 0000000180040110     libucrt:invalid_parameter.obj
 0004:0000111c       $pdata$_invalid_parameter_noinfo_noreturn 000000018004011c     libucrt:invalid_parameter.obj
 0004:00001128       $pdata$_invoke_watson      0000000180040128     libucrt:invalid_parameter.obj
 0004:00001134       $pdata$strcspn             0000000180040134     libucrt:strcspn.obj
 0004:00001140       $pdata$??$common_vsprintf@Vformat_validation_base@__crt_stdio_output@@D@@YAH_KQEAD0QEBDQEAU__crt_locale_pointers@@1@Z 0000000180040140     libucrt:output.obj
 0004:0000114c       $pdata$??$ensure_buffer_is_big_enough@D@formatting_buffer@__crt_stdio_output@@QEAA_N_K@Z 000000018004014c     libucrt:output.obj
 0004:00001158       $pdata$??$type_case_integer_parse_into_buffer@I@?$output_processor@DV?$string_output_adapter@D@__crt_stdio_output@@V?$format_validation_base@DV?$string_output_adapter@D@__crt_stdio_output@@@2@@__crt_stdio_output@@AEAAXII_N@Z 0000000180040158     libucrt:output.obj
 0004:00001164       $pdata$??$type_case_integer_parse_into_buffer@_K@?$output_processor@DV?$string_output_adapter@D@__crt_stdio_output@@V?$format_validation_base@DV?$string_output_adapter@D@__crt_stdio_output@@@2@@__crt_stdio_output@@AEAAX_KI_N@Z 0000000180040164     libucrt:output.obj
 0004:00001170       $pdata$??$write_multiple_characters@V?$string_output_adapter@D@__crt_stdio_output@@D@__crt_stdio_output@@YAXAEBV?$string_output_adapter@D@0@DHQEAH@Z 0000000180040170     libucrt:output.obj
 0004:0000117c       $pdata$??0?$output_processor@DV?$string_output_adapter@D@__crt_stdio_output@@V?$format_validation_base@DV?$string_output_adapter@D@__crt_stdio_output@@@2@@__crt_stdio_output@@QEAA@AEBV?$string_output_adapter@D@1@_KQEBDQEAU__crt_locale_pointers@@QEAD@Z 000000018004017c     libucrt:output.obj
 0004:00001188       $pdata$??0_LocaleUpdate@@QEAA@QEAU__crt_locale_pointers@@@Z 0000000180040188     libucrt:output.obj
 0004:00001194       $pdata$?force_decimal_point@__crt_stdio_output@@YAXPEADQEAU__crt_locale_pointers@@@Z 0000000180040194     libucrt:output.obj
 0004:000011a0       $pdata$?parse_int_from_format_string@?$output_processor@DV?$string_output_adapter@D@__crt_stdio_output@@V?$format_validation_base@DV?$string_output_adapter@D@__crt_stdio_output@@@2@@__crt_stdio_output@@AEAA_NQEAH@Z 00000001800401a0     libucrt:output.obj
 0004:000011ac       $pdata$?process@?$output_processor@DV?$string_output_adapter@D@__crt_stdio_output@@V?$format_validation_base@DV?$string_output_adapter@D@__crt_stdio_output@@@2@@__crt_stdio_output@@QEAAHXZ 00000001800401ac     libucrt:output.obj
 0004:000011b8       $pdata$?state_case_normal@?$output_processor@DV?$string_output_adapter@D@__crt_stdio_output@@V?$format_validation_base@DV?$string_output_adapter@D@__crt_stdio_output@@@2@@__crt_stdio_output@@AEAA_NXZ 00000001800401b8     libucrt:output.obj
 0004:000011c4       $pdata$?state_case_normal_tchar@?$output_processor@DV?$string_output_adapter@D@__crt_stdio_output@@V?$format_validation_base@DV?$string_output_adapter@D@__crt_stdio_output@@@2@@__crt_stdio_output@@AEAA_ND@Z 00000001800401c4     libucrt:output.obj
 0004:000011d0       $pdata$?state_case_size@?$output_processor@DV?$string_output_adapter@D@__crt_stdio_output@@V?$format_validation_base@DV?$string_output_adapter@D@__crt_stdio_output@@@2@@__crt_stdio_output@@AEAA_NXZ 00000001800401d0     libucrt:output.obj
 0004:000011dc       $pdata$?state_case_type@?$output_processor@DV?$string_output_adapter@D@__crt_stdio_output@@V?$format_validation_base@DV?$string_output_adapter@D@__crt_stdio_output@@@2@@__crt_stdio_output@@AEAA_NXZ 00000001800401dc     libucrt:output.obj
 0004:000011e8       $pdata$?type_case_Z@?$output_processor@DV?$string_output_adapter@D@__crt_stdio_output@@V?$format_validation_base@DV?$string_output_adapter@D@__crt_stdio_output@@@2@@__crt_stdio_output@@AEAA_NXZ 00000001800401e8     libucrt:output.obj
 0004:000011f4       $pdata$?type_case_a@?$output_processor@DV?$string_output_adapter@D@__crt_stdio_output@@V?$format_validation_base@DV?$string_output_adapter@D@__crt_stdio_output@@@2@@__crt_stdio_output@@AEAA_NXZ 00000001800401f4     libucrt:output.obj
 0004:00001200       $pdata$?type_case_c_tchar@?$output_processor@DV?$string_output_adapter@D@__crt_stdio_output@@V?$format_validation_base@DV?$string_output_adapter@D@__crt_stdio_output@@@2@@__crt_stdio_output@@AEAA_ND@Z 0000000180040200     libucrt:output.obj
 0004:0000120c       $pdata$?type_case_integer@?$output_processor@DV?$string_output_adapter@D@__crt_stdio_output@@V?$format_validation_base@DV?$string_output_adapter@D@__crt_stdio_output@@@2@@__crt_stdio_output@@AEAA_NI_N@Z 000000018004020c     libucrt:output.obj
 0004:00001218       $pdata$?type_case_n@?$output_processor@DV?$string_output_adapter@D@__crt_stdio_output@@V?$format_validation_base@DV?$string_output_adapter@D@__crt_stdio_output@@@2@@__crt_stdio_output@@AEAA_NXZ 0000000180040218     libucrt:output.obj
 0004:00001224       $pdata$?type_case_s@?$output_processor@DV?$string_output_adapter@D@__crt_stdio_output@@V?$format_validation_base@DV?$string_output_adapter@D@__crt_stdio_output@@@2@@__crt_stdio_output@@AEAA_NXZ 0000000180040224     libucrt:output.obj
 0004:00001230       $pdata$?write_stored_string_tchar@?$output_processor@DV?$string_output_adapter@D@__crt_stdio_output@@V?$format_validation_base@DV?$string_output_adapter@D@__crt_stdio_output@@@2@@__crt_stdio_output@@AEAA_ND@Z 0000000180040230     libucrt:output.obj
 0004:0000123c       $pdata$?write_string@?$string_output_adapter@D@__crt_stdio_output@@QEBAXQEBDHQEAH1@Z 000000018004023c     libucrt:output.obj
 0004:00001248       $pdata$__stdio_common_vsprintf_s 0000000180040248     libucrt:output.obj
 0004:00001254       $pdata$localeconv          0000000180040254     libucrt:localeconv.obj
 0004:00001260       $pdata$frexp               0000000180040260     libucrt:frexp.obj
 0004:0000126c       $pdata$_stricmp            000000018004026c     libucrt:stricmp.obj
 0004:00001278       $pdata$_stricmp_l          0000000180040278     libucrt:stricmp.obj
 0004:00001284       $pdata$__acrt_initialize_locks 0000000180040284     libucrt:locks.obj
 0004:00001290       $pdata$__acrt_uninitialize_locks 0000000180040290     libucrt:locks.obj
 0004:0000129c       $pdata$call_wsetlocale     000000018004029c     libucrt:setlocale.obj
 0004:000012a8       $pdata$setlocale           00000001800402a8     libucrt:setlocale.obj
 0004:000012b4       $pdata$_calloc_base        00000001800402b4     libucrt:calloc_base.obj
 0004:000012c0       $pdata$__pctype_func       00000001800402c0     libucrt:ctype.obj
 0004:000012cc       $pdata$isdigit             00000001800402cc     libucrt:_ctype.obj
 0004:000012d8       $pdata$islower             00000001800402d8     libucrt:_ctype.obj
 0004:000012e4       $pdata$isupper             00000001800402e4     libucrt:_ctype.obj
 0004:000012f0       $pdata$_wcsdup             00000001800402f0     libucrt:wcsdup.obj
 0004:000012fc       $pdata$___lc_codepage_func 00000001800402fc     libucrt:initctype.obj
 0004:00001308       $pdata$___lc_locale_name_func 0000000180040308     libucrt:initctype.obj
 0004:00001314       $pdata$___mb_cur_max_func  0000000180040314     libucrt:initctype.obj
 0004:00001320       $pdata$__acrt_locale_initialize_ctype 0000000180040320     libucrt:initctype.obj
 0004:0000132c       $pdata$__acrt_errno_map_os_error 000000018004032c     libucrt:errno.obj
 0004:00001338       $pdata$__doserrno          0000000180040338     libucrt:errno.obj
 0004:00001344       $pdata$_errno              0000000180040344     libucrt:errno.obj
 0004:00001350       $pdata$?x_ismbbtype_l@@YAHPEAU__crt_locale_pointers@@IHH@Z 0000000180040350     libucrt:ismbbyte.obj
 0004:0000135c       $pdata$_malloc_base        000000018004035c     libucrt:malloc_base.obj
 0004:00001368       $pdata$_realloc_base       0000000180040368     libucrt:realloc_base.obj
 0004:00001374       $pdata$?divide@__crt_strtox@@YA_KAEAUbig_integer@1@AEBU21@@Z 0000000180040374     libucrt:strtod.obj
 0004:00001380       $pdata$5$?divide@__crt_strtox@@YA_KAEAUbig_integer@1@AEBU21@@Z 0000000180040380     libucrt:strtod.obj
 0004:0000138c       $pdata$6$?divide@__crt_strtox@@YA_KAEAUbig_integer@1@AEBU21@@Z 000000018004038c     libucrt:strtod.obj
 0004:000013b0       $pdata$_free_base          00000001800403b0     libucrt:free_base.obj
 0004:000013bc       $pdata$?internal_isupper_l@@YA_NHQEAU__crt_locale_pointers@@@Z 00000001800403bc     libucrt:tolower_toupper.obj
 0004:000013c8       $pdata$_tolower_l          00000001800403c8     libucrt:tolower_toupper.obj
 0004:000013d4       $pdata$tolower             00000001800403d4     libucrt:tolower_toupper.obj
 0004:000013e0       $pdata$wcscpy_s            00000001800403e0     libucrt:wcscpy_s.obj
 0004:000013ec       $pdata$strnlen             00000001800403ec     libucrt:strnlen.obj
 0004:000013f8       $pdata$wcsnlen             00000001800403f8     libucrt:strnlen.obj
 0004:00001404       $pdata$_callnewh           0000000180040404     libucrt:new_handler.obj
 0004:00001410       $pdata$_query_new_handler  0000000180040410     libucrt:new_handler.obj
 0004:0000141c       $pdata$_seh_filter_exe     000000018004041c     libucrt:exception_filter.obj
 0004:00001428       $pdata$?common_exit@@YAXHW4_crt_exit_cleanup_mode@@W4_crt_exit_return_mode@@@Z 0000000180040428     libucrt:exit.obj
 0004:00001434       $pdata$?exit_or_terminate_process@@YAXI@Z 0000000180040434     libucrt:exit.obj
 0004:00001440       $pdata$?try_cor_exit_process@@YAXI@Z 0000000180040440     libucrt:exit.obj
 0004:0000144c       $pdata$??$parse_command_line@D@@YAXPEADPEAPEAD0PEA_K2@Z 000000018004044c     libucrt:argv_parsing.obj
 0004:00001458       $pdata$__acrt_allocate_buffer_for_argv 0000000180040458     libucrt:argv_parsing.obj
 0004:00001464       $pdata$_configure_narrow_argv 0000000180040464     libucrt:argv_parsing.obj
 0004:00001470       $pdata$??$common_initialize_environment_nolock@D@@YAHXZ 0000000180040470     libucrt:environment_initialization.obj
 0004:0000147c       $pdata$??$create_environment@D@@YAQEAPEADQEAD@Z 000000018004047c     libucrt:environment_initialization.obj
 0004:00001488       $pdata$??$free_environment@_W@@YAXQEAPEA_W@Z 0000000180040488     libucrt:environment_initialization.obj
 0004:00001488       $pdata$??$free_environment@D@@YAXQEAPEAD@Z 0000000180040488     libucrt:environment_initialization.obj
 0004:00001494       $pdata$??$uninitialize_environment_internal@D@@YAXAEAPEAPEAD@Z 0000000180040494     libucrt:environment_initialization.obj
 0004:000014a0       $pdata$??$uninitialize_environment_internal@_W@@YAXAEAPEAPEA_W@Z 00000001800404a0     libucrt:environment_initialization.obj
 0004:000014ac       $pdata$__dcrt_uninitialize_environments_nolock 00000001800404ac     libucrt:environment_initialization.obj
 0004:000014b8       $pdata$??$?RV<lambda_b8c45f8f788dd370798f47cfe8ac3a86>@@AEAV<lambda_4e60a939b0d047cfe11ddc22648dfba9>@@V<lambda_332c3edc96d0294ec56c57d38c1cdfd5>@@@?$__crt_seh_guarded_call@H@@QEAAH$$QEAV<lambda_b8c45f8f788dd370798f47cfe8ac3a86>@@AEAV<lambda_4e60a939b0d047cfe11ddc22648dfba9>@@$$QEAV<lambda_332c3edc96d0294ec56c57d38c1cdfd5>@@@Z 00000001800404b8     libucrt:onexit.obj
 0004:000014c4       $pdata$??$?RV<lambda_e24bbb7b643b32fcea6fa61b31d4c984>@@AEAV<lambda_275893d493268fdec8709772e3fcec0e>@@V<lambda_9d71df4d7cf3f480f8d633942495c3b0>@@@?$__crt_seh_guarded_call@H@@QEAAH$$QEAV<lambda_e24bbb7b643b32fcea6fa61b31d4c984>@@AEAV<lambda_275893d493268fdec8709772e3fcec0e>@@$$QEAV<lambda_9d71df4d7cf3f480f8d633942495c3b0>@@@Z 00000001800404c4     libucrt:onexit.obj
 0004:000014d0       $pdata$??R<lambda_4e60a939b0d047cfe11ddc22648dfba9>@@QEBAHXZ 00000001800404d0     libucrt:onexit.obj
 0004:000014dc       $pdata$_execute_onexit_table 00000001800404dc     libucrt:onexit.obj
 0004:000014e8       $pdata$_register_onexit_function 00000001800404e8     libucrt:onexit.obj
 0004:000014f4       $pdata$initialize_c        00000001800404f4     libucrt:initialization.obj
 0004:00001500       $pdata$uninitialize_environment 0000000180040500     libucrt:initialization.obj
 0004:0000150c       $pdata$initialize_pointers 000000018004050c     libucrt:initialization.obj
 0004:00001518       $pdata$uninitialize_allocated_memory 0000000180040518     libucrt:initialization.obj
 0004:00001524       $pdata$__acrt_thread_attach 0000000180040524     libucrt:initialization.obj
 0004:00001530       $pdata$__acrt_thread_detach 0000000180040530     libucrt:initialization.obj
 0004:0000153c       $pdata$__acrt_uninitialize_critical 000000018004053c     libucrt:initialization.obj
 0004:00001548       $pdata$_initterm           0000000180040548     libucrt:initterm.obj
 0004:00001554       $pdata$_initterm_e         0000000180040554     libucrt:initterm.obj
 0004:00001560       $pdata$terminate           0000000180040560     libucrt:terminate.obj
 0004:0000156c       $pdata$strcpy_s            000000018004056c     libucrt:strcpy_s.obj
 0004:00001578       $pdata$??$parse_integer@KV?$c_string_character_source@D@__crt_strtox@@@__crt_strtox@@YAKQEAU__crt_locale_pointers@@V?$c_string_character_source@D@0@H_N@Z 0000000180040578     libucrt:atox.obj
 0004:00001584       $pdata$??$parse_integer@KV?$c_string_character_source@_W@__crt_strtox@@@__crt_strtox@@YAKQEAU__crt_locale_pointers@@V?$c_string_character_source@_W@0@H_N@Z 0000000180040584     libucrt:atox.obj
 0004:00001590       $pdata$_wtol               0000000180040590     libucrt:atox.obj
 0004:0000159c       $pdata$??$?RV<lambda_c36588078e9f5dfd39652860aa6b3aaf>@@AEAV<lambda_ec61778202f4f5fc7e7711acc23c3bca>@@V<lambda_dc9d2797ccde5d239b4a0efae8ebd7db>@@@?$__crt_seh_guarded_call@P6AXH@Z@@QEAAP6AXH@Z$$QEAV<lambda_c36588078e9f5dfd39652860aa6b3aaf>@@AEAV<lambda_ec61778202f4f5fc7e7711acc23c3bca>@@$$QEAV<lambda_dc9d2797ccde5d239b4a0efae8ebd7db>@@@Z 000000018004059c     libucrt:signal.obj
 0004:000015a8       $pdata$__acrt_get_sigabrt_handler 00000001800405a8     libucrt:signal.obj
 0004:000015b4       $pdata$raise               00000001800405b4     libucrt:signal.obj
 0004:000015c0       $pdata$?<helper_func_cdecl>@<lambda_e2bb8337c48846e80c921ea5ddadc92d>@@CAHPEA_W@Z 00000001800405c0     libucrt:winapi_thunks.obj
 0004:000015cc       $pdata$??$?RV<lambda_630b2aca97f6d20d5b5ea6529ea6b6af>@@AEAV<lambda_af91936f1d075d609f72d9d8cba980af>@@V<lambda_e82fa975f615b5c7c7b0e4d178fdae67>@@@?$__crt_seh_guarded_call@H@@QEAAH$$QEAV<lambda_630b2aca97f6d20d5b5ea6529ea6b6af>@@AEAV<lambda_af91936f1d075d609f72d9d8cba980af>@@$$QEAV<lambda_e82fa975f615b5c7c7b0e4d178fdae67>@@@Z 00000001800405cc     libucrt:winapi_thunks.obj
 0004:000015d8       $pdata$?try_get_function@@YAPEAXW4function_id@?A0x63058377@@QEBDQEBW4module_id@2@2@Z 00000001800405d8     libucrt:winapi_thunks.obj
 0004:000015e4       $pdata$__acrt_EnumSystemLocalesEx 00000001800405e4     libucrt:winapi_thunks.obj
 0004:000015f0       $pdata$__acrt_FlsAlloc     00000001800405f0     libucrt:winapi_thunks.obj
 0004:000015fc       $pdata$__acrt_FlsFree      00000001800405fc     libucrt:winapi_thunks.obj
 0004:00001608       $pdata$__acrt_FlsGetValue  0000000180040608     libucrt:winapi_thunks.obj
 0004:00001614       $pdata$__acrt_FlsSetValue  0000000180040614     libucrt:winapi_thunks.obj
 0004:00001620       $pdata$__acrt_GetLocaleInfoEx 0000000180040620     libucrt:winapi_thunks.obj
 0004:0000162c       $pdata$__acrt_GetUserDefaultLocaleName 000000018004062c     libucrt:winapi_thunks.obj
 0004:00001638       $pdata$__acrt_InitializeCriticalSectionEx 0000000180040638     libucrt:winapi_thunks.obj
 0004:00001644       $pdata$__acrt_IsValidLocaleName 0000000180040644     libucrt:winapi_thunks.obj
 0004:00001650       $pdata$__acrt_LCIDToLocaleName 0000000180040650     libucrt:winapi_thunks.obj
 0004:0000165c       $pdata$__acrt_LCMapStringEx 000000018004065c     libucrt:winapi_thunks.obj
 0004:00001668       $pdata$__acrt_LocaleNameToLCID 0000000180040668     libucrt:winapi_thunks.obj
 0004:00001674       $pdata$__acrt_can_use_vista_locale_apis 0000000180040674     libucrt:winapi_thunks.obj
 0004:00001680       $pdata$__acrt_initialize_winapi_thunks 0000000180040680     libucrt:winapi_thunks.obj
 0004:0000168c       $pdata$__acrt_is_packaged_app 000000018004068c     libucrt:winapi_thunks.obj
 0004:00001698       $pdata$__acrt_uninitialize_winapi_thunks 0000000180040698     libucrt:winapi_thunks.obj
 0004:000016a4       $pdata$_fcloseall          00000001800406a4     libucrt:closeall.obj
 0004:000016b0       $pdata$__acrt_stdio_flush_nolock 00000001800406b0     libucrt:fflush.obj
 0004:000016bc       $pdata$_fflush_nolock      00000001800406bc     libucrt:fflush.obj
 0004:000016c8       $pdata$common_flush_all    00000001800406c8     libucrt:fflush.obj
 0004:000016d4       $pdata$__acrt_stdio_free_buffer_nolock 00000001800406d4     libucrt:_freebuf.obj
 0004:000016e0       $pdata$?initialize_inherited_file_handles_nolock@@YAXXZ 00000001800406e0     libucrt:ioinit.obj
 0004:000016ec       $pdata$?initialize_stdio_handles_nolock@@YAXXZ 00000001800406ec     libucrt:ioinit.obj
 0004:000016f8       $pdata$__acrt_initialize_lowio 00000001800406f8     libucrt:ioinit.obj
 0004:00001704       $pdata$__acrt_uninitialize_lowio 0000000180040704     libucrt:ioinit.obj
 0004:00001710       $pdata$??$?RV<lambda_46352004c1216016012b18bd6f87e700>@@AEAV<lambda_3bd07e1a1191394380780325891bf33f>@@V<lambda_334532d3f185bcaa59b5be82d7d22bff>@@@?$__crt_seh_guarded_call@X@@QEAAX$$QEAV<lambda_46352004c1216016012b18bd6f87e700>@@AEAV<lambda_3bd07e1a1191394380780325891bf33f>@@$$QEAV<lambda_334532d3f185bcaa59b5be82d7d22bff>@@@Z 0000000180040710     libucrt:per_thread_data.obj
 0004:0000171c       $pdata$??$?RV<lambda_5e887d1dcbef67a5eb4283622ba103bf>@@AEAV<lambda_4466841279450cc726390878d4a41900>@@V<lambda_341c25c0346d94847f1f3c463c57e077>@@@?$__crt_seh_guarded_call@X@@QEAAX$$QEAV<lambda_5e887d1dcbef67a5eb4283622ba103bf>@@AEAV<lambda_4466841279450cc726390878d4a41900>@@$$QEAV<lambda_341c25c0346d94847f1f3c463c57e077>@@@Z 000000018004071c     libucrt:per_thread_data.obj
 0004:00001728       $pdata$??$?RV<lambda_72d1df2b273a38828b1ce30cbf4cdab5>@@AEAV<lambda_876a65b173b8412d3a47c70a915b0cf4>@@V<lambda_41932305e351933ebe8f8be3ed8bb5dc>@@@?$__crt_seh_guarded_call@X@@QEAAX$$QEAV<lambda_72d1df2b273a38828b1ce30cbf4cdab5>@@AEAV<lambda_876a65b173b8412d3a47c70a915b0cf4>@@$$QEAV<lambda_41932305e351933ebe8f8be3ed8bb5dc>@@@Z 0000000180040728     libucrt:per_thread_data.obj
 0004:00001734       $pdata$??$?RV<lambda_fb3a7dec4e47f37f22dae91bb15c9095>@@AEAV<lambda_698284760c8add0bfb0756c19673e34b>@@V<lambda_dfb8eca1e75fef3034a8fb18dd509707>@@@?$__crt_seh_guarded_call@X@@QEAAX$$QEAV<lambda_fb3a7dec4e47f37f22dae91bb15c9095>@@AEAV<lambda_698284760c8add0bfb0756c19673e34b>@@$$QEAV<lambda_dfb8eca1e75fef3034a8fb18dd509707>@@@Z 0000000180040734     libucrt:per_thread_data.obj
 0004:00001740       $pdata$?construct_ptd_array@@YAXQEAU__acrt_ptd@@@Z 0000000180040740     libucrt:per_thread_data.obj
 0004:0000174c       $pdata$?destroy_fls@@YAXPEAX@Z 000000018004074c     libucrt:per_thread_data.obj
 0004:00001758       $pdata$?destroy_ptd_array@@YAXQEAU__acrt_ptd@@@Z 0000000180040758     libucrt:per_thread_data.obj
 0004:00001764       $pdata$?replace_current_thread_locale_nolock@@YAXQEAU__acrt_ptd@@QEAU__crt_locale_data@@@Z 0000000180040764     libucrt:per_thread_data.obj
 0004:00001770       $pdata$__acrt_freeptd      0000000180040770     libucrt:per_thread_data.obj
 0004:0000177c       $pdata$__acrt_getptd       000000018004077c     libucrt:per_thread_data.obj
 0004:00001788       $pdata$__acrt_getptd_noexit 0000000180040788     libucrt:per_thread_data.obj
 0004:00001794       $pdata$__acrt_initialize_ptd 0000000180040794     libucrt:per_thread_data.obj
 0004:000017a0       $pdata$__acrt_uninitialize_ptd 00000001800407a0     libucrt:per_thread_data.obj
 0004:000017ac       $pdata$strtol              00000001800407ac     libucrt:strtox.obj
 0004:000017b8       $pdata$_mbtowc_l           00000001800407b8     libucrt:mbtowc.obj
 0004:000017c4       $pdata$_wctomb_s_l         00000001800407c4     libucrt:wctomb.obj
 0004:000017d0       $pdata$wctomb_s            00000001800407d0     libucrt:wctomb.obj
 0004:000017dc       $pdata$__acrt_update_locale_info 00000001800407dc     libucrt:locale_update.obj
 0004:000017e8       $pdata$__acrt_update_multibyte_info 00000001800407e8     libucrt:locale_update.obj
 0004:000017f4       $pdata$?fp_format_a@@YAHQEBNPEAD_KQEAD2H_NIQEAU__crt_locale_pointers@@@Z 00000001800407f4     libucrt:cvt.obj
 0004:00001800       $pdata$?fp_format_e@@YAHQEBNQEAD_K12H_NIQEAU__crt_locale_pointers@@@Z 0000000180040800     libucrt:cvt.obj
 0004:0000180c       $pdata$?fp_format_e_internal@@YAHQEAD_KH_NIQEAU_strflt@@2QEAU__crt_locale_pointers@@@Z 000000018004080c     libucrt:cvt.obj
 0004:00001818       $pdata$?fp_format_f_internal@@YAHQEAD_KHQEAU_strflt@@_NQEAU__crt_locale_pointers@@@Z 0000000180040818     libucrt:cvt.obj
 0004:00001824       $pdata$?fp_format_g@@YAHQEBNQEAD_K12H_NIQEAU__crt_locale_pointers@@@Z 0000000180040824     libucrt:cvt.obj
 0004:00001830       $pdata$?fp_format_nan_or_infinity@@YAHW4__acrt_fp_class@@_NPEAD_K1@Z 0000000180040830     libucrt:cvt.obj
 0004:0000183c       $pdata$__acrt_fp_format    000000018004083c     libucrt:cvt.obj
 0004:00001848       $pdata$_fileno             0000000180040848     libucrt:fileno.obj
 0004:00001854       $pdata$??$?RV<lambda_5df02c53a8f32f81fd64e5bbb78039f1>@@AEAV<lambda_2af78c5f5901b1372d98f9ab3177dfa6>@@AEAV<lambda_f51fe5fd7c79a33db34fc9310f277369>@@@?$__crt_seh_guarded_call@X@@QEAAX$$QEAV<lambda_5df02c53a8f32f81fd64e5bbb78039f1>@@AEAV<lambda_2af78c5f5901b1372d98f9ab3177dfa6>@@AEAV<lambda_f51fe5fd7c79a33db34fc9310f277369>@@@Z 0000000180040854     libucrt:wsetlocale.obj
 0004:00001860       $pdata$??$?RV<lambda_d67e8342c384adda8f857579ab50b2ae>@@AEAV<lambda_30712929f77e709619002f448b6a9510>@@V<lambda_4525336fd7e478d965fb7ca7a337cad8>@@@?$__crt_seh_guarded_call@X@@QEAAX$$QEAV<lambda_d67e8342c384adda8f857579ab50b2ae>@@AEAV<lambda_30712929f77e709619002f448b6a9510>@@$$QEAV<lambda_4525336fd7e478d965fb7ca7a337cad8>@@@Z 0000000180040860     libucrt:wsetlocale.obj
 0004:0000186c       $pdata$??R<lambda_2af78c5f5901b1372d98f9ab3177dfa6>@@QEBAXXZ 000000018004086c     libucrt:wsetlocale.obj
 0004:00001878       $pdata$__acrt_copy_locale_name 0000000180040878     libucrt:wsetlocale.obj
 0004:00001884       $pdata$__acrt_uninitialize_locale 0000000180040884     libucrt:wsetlocale.obj
 0004:00001890       $pdata$__lc_lctowcs        0000000180040890     libucrt:wsetlocale.obj
 0004:0000189c       $pdata$__lc_wcstolc        000000018004089c     libucrt:wsetlocale.obj
 0004:000018a8       $pdata$_copytlocinfo_nolock 00000001800408a8     libucrt:wsetlocale.obj
 0004:000018b4       $pdata$_expandlocale       00000001800408b4     libucrt:wsetlocale.obj
 0004:000018c0       $pdata$_wcscats            00000001800408c0     libucrt:wsetlocale.obj
 0004:000018cc       $pdata$_wsetlocale         00000001800408cc     libucrt:wsetlocale.obj
 0004:000018d8       $pdata$_wsetlocale_get_all 00000001800408d8     libucrt:wsetlocale.obj
 0004:000018e4       $pdata$_wsetlocale_nolock  00000001800408e4     libucrt:wsetlocale.obj
 0004:000018f0       $pdata$_wsetlocale_set_cat 00000001800408f0     libucrt:wsetlocale.obj
 0004:000018fc       $pdata$_except1            00000001800408fc     libucrt:fpexcept.obj
 0004:00001908       $pdata$_handle_exc         0000000180040908     libucrt:fpexcept.obj
 0004:00001914       $pdata$_raise_exc          0000000180040914     libucrt:fpexcept.obj
 0004:00001920       $pdata$_raise_exc_ex       0000000180040920     libucrt:fpexcept.obj
 0004:0000192c       $pdata$_raise_excf         000000018004092c     libucrt:fpexcept.obj
 0004:00001938       $pdata$_set_errno_from_matherr 0000000180040938     libucrt:fpexcept.obj
 0004:00001944       $pdata$_umatherr           0000000180040944     libucrt:fpexcept.obj
 0004:00001950       $pdata$_clrfp              0000000180040950     libucrt:fpctrl.obj
 0004:0000195c       $pdata$_ctrlfp             000000018004095c     libucrt:fpctrl.obj
 0004:00001968       $pdata$_set_statfp         0000000180040968     libucrt:fpctrl.obj
 0004:00001974       $pdata$_statfp             0000000180040974     libucrt:fpctrl.obj
 0004:00001980       $pdata$?_mbstowcs_l_helper@@YA_KPEA_WPEBD_KPEAU__crt_locale_pointers@@@Z 0000000180040980     libucrt:mbstowcs.obj
 0004:0000198c       $pdata$_mbstowcs_s_l       000000018004098c     libucrt:mbstowcs.obj
 0004:00001998       $pdata$mbstowcs_s          0000000180040998     libucrt:mbstowcs.obj
 0004:000019a4       $pdata$?_wcstombs_l_helper@@YA_KPEADPEB_W_KPEAU__crt_locale_pointers@@@Z 00000001800409a4     libucrt:wcstombs.obj
 0004:000019b0       $pdata$_wcstombs_s_l       00000001800409b0     libucrt:wcstombs.obj
 0004:000019bc       $pdata$__acrt_initialize_heap 00000001800409bc     libucrt:heap_handle.obj
 0004:000019c8       $pdata$_isctype_l          00000001800409c8     libucrt:isctype.obj
 0004:000019d4       $pdata$?InternalGetLocaleInfoA@@YAHQEAU__crt_locale_pointers@@QEB_WKQEADH@Z 00000001800409d4     libucrt:getlocaleinfoa.obj
 0004:000019e0       $pdata$__acrt_GetLocaleInfoA 00000001800409e0     libucrt:getlocaleinfoa.obj
 0004:000019ec       $pdata$__acrt_GetStringTypeA 00000001800409ec     libucrt:getstringtypea.obj
 0004:000019f8       $pdata$?__acrt_LCMapStringA_stat@@YAHPEAU__crt_locale_pointers@@PEB_WKPEBDHPEADHHH@Z 00000001800409f8     libucrt:lcmapstringa.obj
 0004:00001a04       $pdata$__acrt_LCMapStringA 0000000180040a04     libucrt:lcmapstringa.obj
 0004:00001a10       $pdata$iswctype            0000000180040a10     libucrt:iswctype.obj
 0004:00001a1c       $pdata$__acrt_initialize_fma3 0000000180040a1c     libucrt:fma3_available.obj
 0004:00001a28       $pdata$_pow_special        0000000180040a28     libucrt:pow_special.obj
 0004:00001a34       $pdata$_powf_special       0000000180040a34     libucrt:pow_special.obj
 0004:00001a40       $pdata$_wcsicmp            0000000180040a40     libucrt:wcsicmp.obj
 0004:00001a4c       $pdata$_wcsicmp_l          0000000180040a4c     libucrt:wcsicmp.obj
 0004:00001a58       $pdata$_isleadbyte_l       0000000180040a58     libucrt:_wctype.obj
 0004:00001a64       $pdata$??$common_expand_argv_wildcards@D@@YAHQEAPEADQEAPEAPEAD@Z 0000000180040a64     libucrt:argv_wildcards.obj
 0004:00001a70       $pdata$??$copy_and_add_argument_to_buffer@D@@YAHQEBD0_KAEAV?$argument_list@D@?A0xca0879c4@@@Z 0000000180040a70     libucrt:argv_wildcards.obj
 0004:00001a7c       $pdata$??$expand_argument_wildcards@D@@YAHQEAD0AEAV?$argument_list@D@?A0xca0879c4@@@Z 0000000180040a7c     libucrt:argv_wildcards.obj
 0004:00001a88       $pdata$?expand_if_necessary@?$argument_list@D@?A0xca0879c4@@AEAAHXZ 0000000180040a88     libucrt:argv_wildcards.obj
 0004:00001a94       $pdata$??$?RV<lambda_99476a1ad63dd22509b5d3e65b0ffc95>@@AEAV<lambda_ad1ced32f4ac17aa236e5ef05d6b3b7c>@@V<lambda_f7424dd8d45958661754dc4f2697e9c3>@@@?$__crt_seh_guarded_call@X@@QEAAX$$QEAV<lambda_99476a1ad63dd22509b5d3e65b0ffc95>@@AEAV<lambda_ad1ced32f4ac17aa236e5ef05d6b3b7c>@@$$QEAV<lambda_f7424dd8d45958661754dc4f2697e9c3>@@@Z 0000000180040a94     libucrt:mbctype.obj
 0004:00001aa0       $pdata$??R<lambda_ad1ced32f4ac17aa236e5ef05d6b3b7c>@@QEBAXXZ 0000000180040aa0     libucrt:mbctype.obj
 0004:00001aac       $pdata$?getSystemCP@@YAHH@Z 0000000180040aac     libucrt:mbctype.obj
 0004:00001ab8       $pdata$?setSBCS@@YAXPEAU__crt_multibyte_data@@@Z 0000000180040ab8     libucrt:mbctype.obj
 0004:00001ac4       $pdata$?setSBUpLow@@YAXPEAU__crt_multibyte_data@@@Z 0000000180040ac4     libucrt:mbctype.obj
 0004:00001ad0       $pdata$?setmbcp_internal@@YAHH_N@Z 0000000180040ad0     libucrt:mbctype.obj
 0004:00001adc       $pdata$__acrt_initialize_multibyte 0000000180040adc     libucrt:mbctype.obj
 0004:00001ae8       $pdata$__acrt_update_thread_multibyte_data 0000000180040ae8     libucrt:mbctype.obj
 0004:00001af4       $pdata$_setmbcp_nolock     0000000180040af4     libucrt:mbctype.obj
 0004:00001b00       $pdata$__acrt_initialize_command_line 0000000180040b00     libucrt:argv_data.obj
 0004:00001b0c       $pdata$__dcrt_get_narrow_environment_from_os 0000000180040b0c     libucrt:get_environment_from_os.obj
 0004:00001b18       $pdata$_recalloc_base      0000000180040b18     libucrt:recalloc.obj
 0004:00001b24       $pdata$__acrt_execute_initializers 0000000180040b24     libucrt:shared_initialization.obj
 0004:00001b30       $pdata$__acrt_execute_uninitializers 0000000180040b30     libucrt:shared_initialization.obj
 0004:00001b3c       $pdata$__acrt_invoke_user_matherr 0000000180040b3c     libucrt:matherr.obj
 0004:00001b48       $pdata$?GetTableIndexFromLocaleName@@YAHPEB_W@Z 0000000180040b48     libucrt:lcidtoname_downlevel.obj
 0004:00001b54       $pdata$__acrt_DownlevelLCIDToLocaleName 0000000180040b54     libucrt:lcidtoname_downlevel.obj
 0004:00001b60       $pdata$__acrt_DownlevelLocaleNameToLCID 0000000180040b60     libucrt:lcidtoname_downlevel.obj
 0004:00001b6c       $pdata$_fclose_nolock      0000000180040b6c     libucrt:fclose.obj
 0004:00001b78       $pdata$fclose              0000000180040b78     libucrt:fclose.obj
 0004:00001b84       $pdata$??$?RV<lambda_b521505b218e5242e90febf6bfebc422>@@AEAV<lambda_6978c1fb23f02e42e1d9e99668cc68aa>@@V<lambda_314360699dd331753a4119843814e9a7>@@@?$__crt_seh_guarded_call@H@@QEAAH$$QEAV<lambda_b521505b218e5242e90febf6bfebc422>@@AEAV<lambda_6978c1fb23f02e42e1d9e99668cc68aa>@@$$QEAV<lambda_314360699dd331753a4119843814e9a7>@@@Z 0000000180040b84     libucrt:commit.obj
 0004:00001b90       $pdata$_commit             0000000180040b90     libucrt:commit.obj
 0004:00001b9c       $pdata$?write_double_translated_ansi_nolock@@YA?AUwrite_result@?A0x9c548279@@HQEBDI@Z 0000000180040b9c     libucrt:write.obj
 0004:00001ba8       $pdata$?write_text_ansi_nolock@@YA?AUwrite_result@?A0x9c548279@@HQEBDI@Z 0000000180040ba8     libucrt:write.obj
 0004:00001bb4       $pdata$?write_text_utf16le_nolock@@YA?AUwrite_result@?A0x9c548279@@HQEBDI@Z 0000000180040bb4     libucrt:write.obj
 0004:00001bc0       $pdata$?write_text_utf8_nolock@@YA?AUwrite_result@?A0x9c548279@@HQEBDI@Z 0000000180040bc0     libucrt:write.obj
 0004:00001bcc       $pdata$_write              0000000180040bcc     libucrt:write.obj
 0004:00001bd8       $pdata$_write_nolock       0000000180040bd8     libucrt:write.obj
 0004:00001be4       $pdata$__acrt_lowio_create_handle_array 0000000180040be4     libucrt:osfinfo.obj
 0004:00001bf0       $pdata$__acrt_lowio_destroy_handle_array 0000000180040bf0     libucrt:osfinfo.obj
 0004:00001bfc       $pdata$__acrt_lowio_ensure_fh_exists 0000000180040bfc     libucrt:osfinfo.obj
 0004:00001c08       $pdata$_free_osfhnd        0000000180040c08     libucrt:osfinfo.obj
 0004:00001c14       $pdata$_get_osfhandle      0000000180040c14     libucrt:osfinfo.obj
 0004:00001c20       $pdata$__acrt_free_locale  0000000180040c20     libucrt:locale_refcounting.obj
 0004:00001c2c       $pdata$__acrt_locale_free_lc_time_if_unreferenced 0000000180040c2c     libucrt:locale_refcounting.obj
 0004:00001c38       $pdata$__acrt_release_locale_ref 0000000180040c38     libucrt:locale_refcounting.obj
 0004:00001c44       $pdata$__acrt_update_thread_locale_data 0000000180040c44     libucrt:locale_refcounting.obj
 0004:00001c50       $pdata$_updatetlocinfoEx_nolock 0000000180040c50     libucrt:locale_refcounting.obj
 0004:00001c5c       $pdata$__acrt_fp_strflt_to_string 0000000180040c5c     libucrt:_fptostr.obj
 0004:00001c68       $pdata$__acrt_fltout       0000000180040c68     libucrt:cfout.obj
 0004:00001c74       $pdata$memcpy_s            0000000180040c74     libucrt:strtod.obj
 0004:00001c74       $pdata$memcpy_s            0000000180040c74     libucrt:cfout.obj
 0004:00001c80       $pdata$_isatty             0000000180040c80     libucrt:isatty.obj
 0004:00001c8c       $pdata$__acrt_locale_free_monetary 0000000180040c8c     libucrt:initmon.obj
 0004:00001c98       $pdata$__acrt_locale_initialize_monetary 0000000180040c98     libucrt:initmon.obj
 0004:00001ca4       $pdata$__acrt_locale_free_numeric 0000000180040ca4     libucrt:initnum.obj
 0004:00001cb0       $pdata$__acrt_locale_initialize_numeric 0000000180040cb0     libucrt:initnum.obj
 0004:00001cbc       $pdata$?free_crt_array_internal@@YAXQEAPEBX_K@Z 0000000180040cbc     libucrt:inittime.obj
 0004:00001cc8       $pdata$?initialize_lc_time@@YA_NQEAU__crt_lc_time_data@@QEAU__crt_locale_data@@@Z 0000000180040cc8     libucrt:inittime.obj
 0004:00001cd4       $pdata$__acrt_locale_free_time 0000000180040cd4     libucrt:inittime.obj
 0004:00001ce0       $pdata$__acrt_locale_initialize_time 0000000180040ce0     libucrt:inittime.obj
 0004:00001cec       $pdata$wcscat_s            0000000180040cec     libucrt:wcscat_s.obj
 0004:00001cf8       $pdata$wcsncpy_s           0000000180040cf8     libucrt:wcsncpy_s.obj
 0004:00001d04       $pdata$GetLocaleNameFromDefault 0000000180040d04     libucrt:get_qualified_locale.obj
 0004:00001d10       $pdata$GetLocaleNameFromLangCountry 0000000180040d10     libucrt:get_qualified_locale.obj
 0004:00001d1c       $pdata$GetLocaleNameFromLanguage 0000000180040d1c     libucrt:get_qualified_locale.obj
 0004:00001d28       $pdata$LangCountryEnumProcEx 0000000180040d28     libucrt:get_qualified_locale.obj
 0004:00001d34       $pdata$LanguageEnumProcEx  0000000180040d34     libucrt:get_qualified_locale.obj
 0004:00001d40       $pdata$ProcessCodePage     0000000180040d40     libucrt:get_qualified_locale.obj
 0004:00001d4c       $pdata$TestDefaultCountry  0000000180040d4c     libucrt:get_qualified_locale.obj
 0004:00001d58       $pdata$TranslateName       0000000180040d58     libucrt:get_qualified_locale.obj
 0004:00001d64       $pdata$__acrt_get_qualified_locale 0000000180040d64     libucrt:get_qualified_locale.obj
 0004:00001d70       $pdata$CountryEnumProc     0000000180040d70     libucrt:getqloc_downlevel.obj
 0004:00001d7c       $pdata$GetLcidFromLangCountry 0000000180040d7c     libucrt:getqloc_downlevel.obj
 0004:00001d88       $pdata$GetLcidFromLanguage 0000000180040d88     libucrt:getqloc_downlevel.obj
 0004:00001d94       $pdata$LangCountryEnumProc 0000000180040d94     libucrt:getqloc_downlevel.obj
 0004:00001da0       $pdata$LanguageEnumProc    0000000180040da0     libucrt:getqloc_downlevel.obj
 0004:00001dac       $pdata$ProcessCodePage     0000000180040dac     libucrt:getqloc_downlevel.obj
 0004:00001db8       $pdata$TestDefaultLanguage 0000000180040db8     libucrt:getqloc_downlevel.obj
 0004:00001dc4       $pdata$TranslateName       0000000180040dc4     libucrt:getqloc_downlevel.obj
 0004:00001dd0       $pdata$__acrt_get_qualified_locale_downlevel 0000000180040dd0     libucrt:getqloc_downlevel.obj
 0004:00001de8       $pdata$strncpy_s           0000000180040de8     libucrt:strncpy_s.obj
 0004:00001df4       $pdata$_getfpcontrolword   0000000180040df4     libucrt:_fenvutils.obj
 0004:00001e00       $pdata$_getfpstatusword    0000000180040e00     libucrt:_fenvutils.obj
 0004:00001e0c       $pdata$_setfpstatusword    0000000180040e0c     libucrt:_fenvutils.obj
 0004:00001e18       $pdata$_call_matherr       0000000180040e18     libucrt:libm_error.obj
 0004:00001e24       $pdata$_exception_enabled  0000000180040e24     libucrt:libm_error.obj
 0004:00001e30       $pdata$_handle_error       0000000180040e30     libucrt:libm_error.obj
 0004:00001e3c       $pdata$_handle_errorf      0000000180040e3c     libucrt:libm_error.obj
 0004:00001e48       $pdata$_towlower_l         0000000180040e48     libucrt:towlower.obj
 0004:00001e54       $pdata$?shortsort@@YAXPEAD0_KP6AHPEBX2@Z@Z 0000000180040e54     libucrt:qsort.obj
 0004:00001e60       $pdata$2$?shortsort@@YAXPEAD0_KP6AHPEBX2@Z@Z 0000000180040e60     libucrt:qsort.obj
 0004:00001e6c       $pdata$3$?shortsort@@YAXPEAD0_KP6AHPEBX2@Z@Z 0000000180040e6c     libucrt:qsort.obj
 0004:00001e78       $pdata$qsort               0000000180040e78     libucrt:qsort.obj
 0004:00001e84       $pdata$4$qsort             0000000180040e84     libucrt:qsort.obj
 0004:00001e90       $pdata$5$qsort             0000000180040e90     libucrt:qsort.obj
 0004:00001e9c       $pdata$strpbrk             0000000180040e9c     libucrt:strpbrk.obj
 0004:00001ea8       $pdata$_mbsdec_l           0000000180040ea8     libucrt:mbsdec.obj
 0004:00001eb4       $pdata$?initialize_multibyte@@YAHXZ 0000000180040eb4     libucrt:multibyte_initializer.obj
 0004:00001ec0       $pdata$_msize              0000000180040ec0     libucrt:msize.obj
 0004:00001ecc       $pdata$??$?RV<lambda_bfedae4ebbf01fab1bb6dcc6a9e276e0>@@AEAV<lambda_2fe9b910cf3cbf4a0ab98a02ba45b3ec>@@V<lambda_237c231691f317818eb88cc1d5d642d6>@@@?$__crt_seh_guarded_call@H@@QEAAH$$QEAV<lambda_bfedae4ebbf01fab1bb6dcc6a9e276e0>@@AEAV<lambda_2fe9b910cf3cbf4a0ab98a02ba45b3ec>@@$$QEAV<lambda_237c231691f317818eb88cc1d5d642d6>@@@Z 0000000180040ecc     libucrt:close.obj
 0004:00001ed8       $pdata$_close              0000000180040ed8     libucrt:close.obj
 0004:00001ee4       $pdata$_close_nolock       0000000180040ee4     libucrt:close.obj
 0004:00001ef0       $pdata$??$common_lseek_nolock@_J@@YA_JH_JH@Z 0000000180040ef0     libucrt:lseek.obj
 0004:00001efc       $pdata$_putwch_nolock      0000000180040efc     libucrt:putwch.obj
 0004:00001f08       $pdata$fegetenv            0000000180040f08     libucrt:fegetenv.obj
 0004:00001f14       $pdata$fesetenv            0000000180040f14     libucrt:fesetenv.obj
 0004:00001f20       $pdata$feholdexcept        0000000180040f20     libucrt:feholdexcept.obj
 0004:00001f38       $pdata$??$common_xtox@K_W@@YAHKQEA_W_KI_N@Z 0000000180040f38     libucrt:xtoa.obj
 0004:00001f44       $pdata$??$common_xtox_s@K_W@@YAHKQEA_W_KI_N@Z 0000000180040f44     libucrt:xtoa.obj
 0004:00001f50       $pdata$_itow_s             0000000180040f50     libucrt:xtoa.obj
 0004:00001f5c       $pdata$_wcsnicmp           0000000180040f5c     libucrt:wcsnicmp.obj
 0004:00001f68       $pdata$_wcsnicmp_l         0000000180040f68     libucrt:wcsnicmp.obj
 0004:00001f74       $pdata$_clearfp            0000000180040f74     libucrt:ieee.obj
 0004:00001f80       $pdata$common_control87    0000000180040f80     libucrt:ieee.obj
 0004:00001f8c       $pdata$__acrt_LCMapStringW 0000000180040f8c     libucrt:lcmapstringw.obj
 0004:00001f98       $pdata$__dcrt_lowio_initialize_console_output 0000000180040f98     libucrt:initcon.obj
 0004:00001fa4       $pdata$__dcrt_terminate_console_output 0000000180040fa4     libucrt:initcon.obj
 0004:00001fb0       $pdata$_log10_special      0000000180040fb0     libucrt:log_special.obj
 0004:00001fbc       $pdata$_log_special_common 0000000180040fbc     libucrt:log_special.obj
 0004:00001fc8       $pdata$?DloadAcquireSectionWriteAccess@@YAXXZ 0000000180040fc8     DelayImp:delayhlp.obj
 0004:00001fd4       $pdata$?DloadGetSRWLockFunctionPointers@@YAEXZ 0000000180040fd4     DelayImp:delayhlp.obj
 0004:00001fe0       $pdata$?DloadMakePermanentImageCommit@@YAXPEAX_K@Z 0000000180040fe0     DelayImp:delayhlp.obj
 0004:00001fec       $pdata$?DloadObtainSection@@YAPEAXPEAK0@Z 0000000180040fec     DelayImp:delayhlp.obj
 0004:00001ff8       $pdata$?DloadProtectSection@@YAXKPEAK@Z 0000000180040ff8     DelayImp:delayhlp.obj
 0004:00002004       $pdata$?DloadReleaseSectionWriteAccess@@YAXXZ 0000000180041004     DelayImp:delayhlp.obj
 0004:00002010       $pdata$__delayLoadHelper2  0000000180041010     DelayImp:delayhlp.obj
 0004:0000201c       $pdata$_IsNonwritableInCurrentImage 000000018004101c     LIBCMT:pesect.obj
 0004:00002028       $pdata$strrchr             0000000180041028     libvcruntime:strrchr.obj
 0004:00002034       $pdata$wcschr              0000000180041034     libvcruntime:wcschr.obj
 0004:0000204c       $pdata$__scrt_is_nonwritable_in_current_image$filt$0 000000018004104c     LIBCMT:utility.obj
 0004:00002058       $pdata$?fin$0@?0??dllmain_crt_process_attach@@YAHQEAUHINSTANCE__@@QEAX@Z@4HA 0000000180041058     LIBCMT:dll_dllmain.obj
 0004:00002064       $pdata$?fin$0@?0??dllmain_crt_process_detach@@YAH_N@Z@4HA 0000000180041064     LIBCMT:dll_dllmain.obj
 0004:00002070       $pdata$?filt$0@?0??dllmain_dispatch@@YAHQEAUHINSTANCE__@@KQEAX@Z@4HA 0000000180041070     LIBCMT:dll_dllmain.obj
 0004:0000207c       $pdata$__CxxCallCatchBlock$filt$0 000000018004107c     libvcruntime:frame.obj
 0004:00002088       $pdata$__CxxCallCatchBlock$fin$1 0000000180041088     libvcruntime:frame.obj
 0004:00002094       $pdata$__DestructExceptionObject$filt$0 0000000180041094     libvcruntime:frame.obj
 0004:000020a0       $pdata$__FrameUnwindToState$filt$0 00000001800410a0     libvcruntime:frame.obj
 0004:000020ac       $pdata$__FrameUnwindToState$fin$1 00000001800410ac     libvcruntime:frame.obj
 0004:000020b8       $pdata$_CallSETranslator$filt$0 00000001800410b8     libvcruntime:trnsctrl.obj
 0004:000020c4       $pdata$setlocale$fin$0     00000001800410c4     libucrt:setlocale.obj
 0004:000020d0       $pdata$_query_new_handler$fin$0 00000001800410d0     libucrt:new_handler.obj
 0004:000020dc       $pdata$?filt$0@?0??common_exit@@YAXHW4_crt_exit_cleanup_mode@@W4_crt_exit_return_mode@@@Z@4HA 00000001800410dc     libucrt:exit.obj
 0004:000020e8       $pdata$?fin$1@?0??common_exit@@YAXHW4_crt_exit_cleanup_mode@@W4_crt_exit_return_mode@@@Z@4HA 00000001800410e8     libucrt:exit.obj
 0004:000020f4       $pdata$?fin$0@?0???$?RV<lambda_e24bbb7b643b32fcea6fa61b31d4c984>@@AEAV<lambda_275893d493268fdec8709772e3fcec0e>@@V<lambda_9d71df4d7cf3f480f8d633942495c3b0>@@@?$__crt_seh_guarded_call@H@@QEAAH$$QEAV<lambda_e24bbb7b643b32fcea6fa61b31d4c984>@@AEAV<lambda_275893d493268fdec8709772e3fcec0e>@@$$QEAV<lambda_9d71df4d7cf3f480f8d633942495c3b0>@@@Z@4HA 00000001800410f4     libucrt:onexit.obj
 0004:00002100       $pdata$raise$fin$0         0000000180041100     libucrt:signal.obj
 0004:0000210c       $pdata$_fcloseall$fin$0    000000018004110c     libucrt:closeall.obj
 0004:00002118       $pdata$common_flush_all$fin$0 0000000180041118     libucrt:fflush.obj
 0004:00002124       $pdata$common_flush_all$fin$1 0000000180041124     libucrt:fflush.obj
 0004:00002130       $pdata$?fin$0@?0???$?RV<lambda_46352004c1216016012b18bd6f87e700>@@AEAV<lambda_3bd07e1a1191394380780325891bf33f>@@V<lambda_334532d3f185bcaa59b5be82d7d22bff>@@@?$__crt_seh_guarded_call@X@@QEAAX$$QEAV<lambda_46352004c1216016012b18bd6f87e700>@@AEAV<lambda_3bd07e1a1191394380780325891bf33f>@@$$QEAV<lambda_334532d3f185bcaa59b5be82d7d22bff>@@@Z@4HA 0000000180041130     libucrt:per_thread_data.obj
 0004:00002130       $pdata$?fin$0@?0???$?RV<lambda_5e887d1dcbef67a5eb4283622ba103bf>@@AEAV<lambda_4466841279450cc726390878d4a41900>@@V<lambda_341c25c0346d94847f1f3c463c57e077>@@@?$__crt_seh_guarded_call@X@@QEAAX$$QEAV<lambda_5e887d1dcbef67a5eb4283622ba103bf>@@AEAV<lambda_4466841279450cc726390878d4a41900>@@$$QEAV<lambda_341c25c0346d94847f1f3c463c57e077>@@@Z@4HA 0000000180041130     libucrt:per_thread_data.obj
 0004:00002130       $pdata$?fin$0@?0???$?RV<lambda_fb3a7dec4e47f37f22dae91bb15c9095>@@AEAV<lambda_698284760c8add0bfb0756c19673e34b>@@V<lambda_dfb8eca1e75fef3034a8fb18dd509707>@@@?$__crt_seh_guarded_call@X@@QEAAX$$QEAV<lambda_fb3a7dec4e47f37f22dae91bb15c9095>@@AEAV<lambda_698284760c8add0bfb0756c19673e34b>@@$$QEAV<lambda_dfb8eca1e75fef3034a8fb18dd509707>@@@Z@4HA 0000000180041130     libucrt:per_thread_data.obj
 0004:00002130       $pdata$?fin$0@?0???$?RV<lambda_c36588078e9f5dfd39652860aa6b3aaf>@@AEAV<lambda_ec61778202f4f5fc7e7711acc23c3bca>@@V<lambda_dc9d2797ccde5d239b4a0efae8ebd7db>@@@?$__crt_seh_guarded_call@P6AXH@Z@@QEAAP6AXH@Z$$QEAV<lambda_c36588078e9f5dfd39652860aa6b3aaf>@@AEAV<lambda_ec61778202f4f5fc7e7711acc23c3bca>@@$$QEAV<lambda_dc9d2797ccde5d239b4a0efae8ebd7db>@@@Z@4HA 0000000180041130     libucrt:signal.obj
 0004:00002130       $pdata$?fin$0@?0???$?RV<lambda_72d1df2b273a38828b1ce30cbf4cdab5>@@AEAV<lambda_876a65b173b8412d3a47c70a915b0cf4>@@V<lambda_41932305e351933ebe8f8be3ed8bb5dc>@@@?$__crt_seh_guarded_call@X@@QEAAX$$QEAV<lambda_72d1df2b273a38828b1ce30cbf4cdab5>@@AEAV<lambda_876a65b173b8412d3a47c70a915b0cf4>@@$$QEAV<lambda_41932305e351933ebe8f8be3ed8bb5dc>@@@Z@4HA 0000000180041130     libucrt:per_thread_data.obj
 0004:00002130       $pdata$?fin$0@?0???$?RV<lambda_99476a1ad63dd22509b5d3e65b0ffc95>@@AEAV<lambda_ad1ced32f4ac17aa236e5ef05d6b3b7c>@@V<lambda_f7424dd8d45958661754dc4f2697e9c3>@@@?$__crt_seh_guarded_call@X@@QEAAX$$QEAV<lambda_99476a1ad63dd22509b5d3e65b0ffc95>@@AEAV<lambda_ad1ced32f4ac17aa236e5ef05d6b3b7c>@@$$QEAV<lambda_f7424dd8d45958661754dc4f2697e9c3>@@@Z@4HA 0000000180041130     libucrt:mbctype.obj
 0004:00002130       $pdata$?fin$0@?0???$?RV<lambda_d67e8342c384adda8f857579ab50b2ae>@@AEAV<lambda_30712929f77e709619002f448b6a9510>@@V<lambda_4525336fd7e478d965fb7ca7a337cad8>@@@?$__crt_seh_guarded_call@X@@QEAAX$$QEAV<lambda_d67e8342c384adda8f857579ab50b2ae>@@AEAV<lambda_30712929f77e709619002f448b6a9510>@@$$QEAV<lambda_4525336fd7e478d965fb7ca7a337cad8>@@@Z@4HA 0000000180041130     libucrt:wsetlocale.obj
 0004:00002130       $pdata$?fin$0@?0???$?RV<lambda_b8c45f8f788dd370798f47cfe8ac3a86>@@AEAV<lambda_4e60a939b0d047cfe11ddc22648dfba9>@@V<lambda_332c3edc96d0294ec56c57d38c1cdfd5>@@@?$__crt_seh_guarded_call@H@@QEAAH$$QEAV<lambda_b8c45f8f788dd370798f47cfe8ac3a86>@@AEAV<lambda_4e60a939b0d047cfe11ddc22648dfba9>@@$$QEAV<lambda_332c3edc96d0294ec56c57d38c1cdfd5>@@@Z@4HA 0000000180041130     libucrt:onexit.obj
 0004:00002130       $pdata$?fin$0@?0???$?RV<lambda_630b2aca97f6d20d5b5ea6529ea6b6af>@@AEAV<lambda_af91936f1d075d609f72d9d8cba980af>@@V<lambda_e82fa975f615b5c7c7b0e4d178fdae67>@@@?$__crt_seh_guarded_call@H@@QEAAH$$QEAV<lambda_630b2aca97f6d20d5b5ea6529ea6b6af>@@AEAV<lambda_af91936f1d075d609f72d9d8cba980af>@@$$QEAV<lambda_e82fa975f615b5c7c7b0e4d178fdae67>@@@Z@4HA 0000000180041130     libucrt:winapi_thunks.obj
 0004:0000213c       $pdata$?fin$0@?0???$?RV<lambda_5df02c53a8f32f81fd64e5bbb78039f1>@@AEAV<lambda_2af78c5f5901b1372d98f9ab3177dfa6>@@AEAV<lambda_f51fe5fd7c79a33db34fc9310f277369>@@@?$__crt_seh_guarded_call@X@@QEAAX$$QEAV<lambda_5df02c53a8f32f81fd64e5bbb78039f1>@@AEAV<lambda_2af78c5f5901b1372d98f9ab3177dfa6>@@AEAV<lambda_f51fe5fd7c79a33db34fc9310f277369>@@@Z@4HA 000000018004113c     libucrt:wsetlocale.obj
 0004:00002148       $pdata$_ctrlfp$filt$0      0000000180041148     libucrt:fpctrl.obj
 0004:00002148       $pdata$common_control87$filt$0 0000000180041148     libucrt:ieee.obj
 0004:00002154       $pdata$__acrt_update_thread_multibyte_data$fin$0 0000000180041154     libucrt:mbctype.obj
 0004:00002160       $pdata$fclose$fin$0        0000000180041160     libucrt:fclose.obj
 0004:0000216c       $pdata$_write$fin$0        000000018004116c     libucrt:write.obj
 0004:00002178       $pdata$__acrt_initialize_lowio$fin$0 0000000180041178     libucrt:ioinit.obj
 0004:00002178       $pdata$__acrt_lowio_ensure_fh_exists$fin$0 0000000180041178     libucrt:osfinfo.obj
 0004:00002184       $pdata$__acrt_uninitialize_locale$fin$0 0000000180041184     libucrt:wsetlocale.obj
 0004:00002184       $pdata$__acrt_update_thread_locale_data$fin$0 0000000180041184     libucrt:locale_refcounting.obj
 0004:00002190       $pdata$?fin$0@?0???$?RV<lambda_bfedae4ebbf01fab1bb6dcc6a9e276e0>@@AEAV<lambda_2fe9b910cf3cbf4a0ab98a02ba45b3ec>@@V<lambda_237c231691f317818eb88cc1d5d642d6>@@@?$__crt_seh_guarded_call@H@@QEAAH$$QEAV<lambda_bfedae4ebbf01fab1bb6dcc6a9e276e0>@@AEAV<lambda_2fe9b910cf3cbf4a0ab98a02ba45b3ec>@@$$QEAV<lambda_237c231691f317818eb88cc1d5d642d6>@@@Z@4HA 0000000180041190     libucrt:close.obj
 0004:00002190       $pdata$?fin$0@?0???$?RV<lambda_b521505b218e5242e90febf6bfebc422>@@AEAV<lambda_6978c1fb23f02e42e1d9e99668cc68aa>@@V<lambda_314360699dd331753a4119843814e9a7>@@@?$__crt_seh_guarded_call@H@@QEAAH$$QEAV<lambda_b521505b218e5242e90febf6bfebc422>@@AEAV<lambda_6978c1fb23f02e42e1d9e99668cc68aa>@@$$QEAV<lambda_314360699dd331753a4119843814e9a7>@@@Z@4HA 0000000180041190     libucrt:commit.obj
 0004:0000219c       $pdata$_IsNonwritableInCurrentImage$filt$0 000000018004119c     LIBCMT:pesect.obj
 0004:000021a8       $pdata$??__FATTR_NAME_SET@tfnodejs@@YAXXZ 00000001800411a8     tfe_utils.obj
 0004:000021b4       $pdata$??__F_Fac_tidy_reg@std@@YAXXZ 00000001800411b4     libcpmt:locale0.obj
 0004:000021c0       $pdata$??__Fclassic_locale@std@@YAXXZ 00000001800411c0     libcpmt:locale0.obj
 0004:000021cc       $pdata$??__Finit_atexit@@YAXXZ 00000001800411cc     libcpmt:iosptrs.obj
 0005:00000000       __guard_fids__             0000000180042000     libucrt:initialization.obj
 0005:00000060       __guard_fids__             0000000180042060     libucrt:stdio_initializer.obj
 0005:00000064       __guard_fids__             0000000180042064     libucrt:stdio_initializer.obj
 0005:00000068       __guard_fids_??$?RV<lambda_630b2aca97f6d20d5b5ea6529ea6b6af>@@AEAV<lambda_af91936f1d075d609f72d9d8cba980af>@@V<lambda_e82fa975f615b5c7c7b0e4d178fdae67>@@@?$__crt_seh_guarded_call@H@@QEAAH$$QEAV<lambda_630b2aca97f6d20d5b5ea6529ea6b6af>@@AEAV<lambda_af91936f1d075d609f72d9d8cba980af>@@$$QEAV<lambda_e82fa975f615b5c7c7b0e4d178fdae67>@@@Z 0000000180042068     libucrt:winapi_thunks.obj
 0005:0000006c       __guard_fids___acrt_initialize_ptd 000000018004206c     libucrt:per_thread_data.obj
 0005:00000070       __guard_fids__             0000000180042070     libucrt:wsetlocale.obj
 0005:00000088       __guard_fids_??$expand_argument_wildcards@D@@YAHQEAD0AEAV?$argument_list@D@?A0xca0879c4@@@Z 0000000180042088     libucrt:argv_wildcards.obj
 0005:0000008c       __guard_fids__             000000018004208c     libucrt:locale_initializer.obj
 0005:00000090       __guard_fids_GetLocaleNameFromLangCountry 0000000180042090     libucrt:get_qualified_locale.obj
 0005:00000094       __guard_fids_GetLocaleNameFromLanguage 0000000180042094     libucrt:get_qualified_locale.obj
 0005:00000098       __guard_fids___acrt_get_qualified_locale_downlevel 0000000180042098     libucrt:getqloc_downlevel.obj
 0005:0000009c       __guard_fids_GetLcidFromLangCountry 000000018004209c     libucrt:getqloc_downlevel.obj
 0005:000000a0       __guard_fids_GetLcidFromLanguage 00000001800420a0     libucrt:getqloc_downlevel.obj
 0005:000000a4       __guard_fids__             00000001800420a4     libucrt:fma3_initializer.obj
 0005:000000a8       __guard_fids__             00000001800420a8     libucrt:timeset_initializer.obj
 0005:000000ac       __guard_fids__             00000001800420ac     libucrt:multibyte_initializer.obj
 0005:000000b0       __guard_fids__             00000001800420b0     libucrt:console_output_initializer.obj
 0005:000000b4       __guard_fids_??__Einitlocks@std@@YAXXZ 00000001800420b4     libcpmt:xlock.obj
 0005:000000b8       __guard_fids__             00000001800420b8     libcpmt:xlock.obj
 0005:000000bc       __guard_fids_??__E_Fac_tidy_reg@std@@YAXXZ 00000001800420bc     libcpmt:locale0.obj
 0005:000000c0       __guard_fids_?_Setgloballocale@locale@std@@CAXPEAX@Z 00000001800420c0     libcpmt:locale0.obj
 0005:000000c4       __guard_fids_??__Eclassic_locale@std@@YAXXZ 00000001800420c4     libcpmt:locale0.obj
 0005:000000c8       __guard_fids__             00000001800420c8     libcpmt:locale0.obj
 0005:000000d4       __guard_fids__             00000001800420d4     libcpmt:locale0.obj
 0005:000000e0       __guard_fids__             00000001800420e0     libcpmt:locale0.obj
 0005:000000e4       __guard_fids__             00000001800420e4     libcpmt:locale0.obj
 0005:000000e8       __guard_fids__             00000001800420e8     libcpmt:xthrow.obj
 0005:000000f0       __guard_fids__             00000001800420f0     libcpmt:xthrow.obj
 0005:000000f8       __guard_fids__             00000001800420f8     libcpmt:xthrow.obj
 0005:00000100       __guard_fids__             0000000180042100     libcpmt:xthrow.obj
 0005:00000108       __guard_fids__             0000000180042108     libcpmt:xthrow.obj
 0005:00000110       __guard_fids__             0000000180042110     libcpmt:xthrow.obj
 0005:00000118       __guard_fids_??__Einitlocks@std@@YAXXZ 0000000180042118     libcpmt:iosptrs.obj
 0005:0000011c       __guard_fids_??__Einit_atexit@@YAXXZ 000000018004211c     libcpmt:iosptrs.obj
 0005:00000120       __guard_fids__             0000000180042120     libcpmt:iosptrs.obj
 0005:00000124       __guard_fids__             0000000180042124     libcpmt:iosptrs.obj
 0005:00000128       __guard_fids__             0000000180042128     libcpmt:locale.obj
 0005:00000154       __guard_fids__             0000000180042154     libcpmt:locale.obj
 0005:00000180       __guard_fids__             0000000180042180     libcpmt:locale.obj
 0005:000001a0       __guard_fids__             00000001800421a0     libcpmt:winapisupp.obj
 0005:000001a4       __guard_fids__             00000001800421a4     LIBCMT:thread_safe_statics.obj
 0005:000001a8       __guard_fids_?__scrt_initialize_thread_safe_statics@@YAHXZ 00000001800421a8     LIBCMT:thread_safe_statics.obj
 0005:000001ac       __guard_fids_?dllmain_crt_process_attach@@YAHQEAUHINSTANCE__@@QEAX@Z 00000001800421ac     LIBCMT:dll_dllmain.obj
 0005:000001b4       __guard_fids_?dllmain_dispatch@@YAHQEAUHINSTANCE__@@KQEAX@Z 00000001800421b4     LIBCMT:dll_dllmain.obj
 0005:000001b8       __guard_fids__             00000001800421b8     LIBCMT:std_type_info_static.obj
 0005:000001bc       __guard_fids__             00000001800421bc     LIBCMT:throw_bad_alloc.obj
 0005:000001c4       __guard_fids__             00000001800421c4     LIBCMT:guard_support.obj
 0005:000001c8       __guard_fids__             00000001800421c8     libvcruntime:frame.obj
 0005:000001cc       __guard_fids__             00000001800421cc     libvcruntime:frame.obj
 0005:000001d4       __guard_fids__UnwindNestedFrames 00000001800421d4     libvcruntime:trnsctrl.obj
 0005:000001d8       __guard_fids___vcrt_initialize_ptd 00000001800421d8     libvcruntime:per_thread_data.obj
 0007:00000060       $R000000                   0000000180044060     * linker generated manifest res *

 Exports

  ordinal    name

        1    _register_tfe_binding_
